
nanovg.o:     file format elf32-littlearm


Disassembly of section .text:

00000000 <stbtt__isfont>:
       0:	e5d03000 	ldrb	r3, [r0]
       4:	e3530031 	cmp	r3, #49	; 0x31
       8:	0a000015 	beq	64 <stbtt__isfont+0x64>
       c:	e3530074 	cmp	r3, #116	; 0x74
      10:	0a000006 	beq	30 <stbtt__isfont+0x30>
      14:	e353004f 	cmp	r3, #79	; 0x4f
      18:	1a00002b 	bne	cc <stbtt__isfont+0xcc>
      1c:	e5d03001 	ldrb	r3, [r0, #1]
      20:	e3530054 	cmp	r3, #84	; 0x54
      24:	0a000020 	beq	ac <stbtt__isfont+0xac>
      28:	e3a00000 	mov	r0, #0
      2c:	e12fff1e 	bx	lr
      30:	e5d03001 	ldrb	r3, [r0, #1]
      34:	e3530079 	cmp	r3, #121	; 0x79
      38:	0a000013 	beq	8c <stbtt__isfont+0x8c>
      3c:	e3530072 	cmp	r3, #114	; 0x72
      40:	1afffff8 	bne	28 <stbtt__isfont+0x28>
      44:	e5d03002 	ldrb	r3, [r0, #2]
      48:	e3530075 	cmp	r3, #117	; 0x75
      4c:	1afffff5 	bne	28 <stbtt__isfont+0x28>
      50:	e5d03003 	ldrb	r3, [r0, #3]
      54:	e2430065 	sub	r0, r3, #101	; 0x65
      58:	e16f0f10 	clz	r0, r0
      5c:	e1a002a0 	lsr	r0, r0, #5
      60:	e12fff1e 	bx	lr
      64:	e5d03001 	ldrb	r3, [r0, #1]
      68:	e3530000 	cmp	r3, #0
      6c:	1affffed 	bne	28 <stbtt__isfont+0x28>
      70:	e5d02002 	ldrb	r2, [r0, #2]
      74:	e3520000 	cmp	r2, #0
      78:	1affffea 	bne	28 <stbtt__isfont+0x28>
      7c:	e5d03003 	ldrb	r3, [r0, #3]
      80:	e16f0f13 	clz	r0, r3
      84:	e1a002a0 	lsr	r0, r0, #5
      88:	e12fff1e 	bx	lr
      8c:	e5d03002 	ldrb	r3, [r0, #2]
      90:	e3530070 	cmp	r3, #112	; 0x70
      94:	1affffe3 	bne	28 <stbtt__isfont+0x28>
      98:	e5d03003 	ldrb	r3, [r0, #3]
      9c:	e2430031 	sub	r0, r3, #49	; 0x31
      a0:	e16f0f10 	clz	r0, r0
      a4:	e1a002a0 	lsr	r0, r0, #5
      a8:	e12fff1e 	bx	lr
      ac:	e5d03002 	ldrb	r3, [r0, #2]
      b0:	e3530054 	cmp	r3, #84	; 0x54
      b4:	1affffdb 	bne	28 <stbtt__isfont+0x28>
      b8:	e5d03003 	ldrb	r3, [r0, #3]
      bc:	e243004f 	sub	r0, r3, #79	; 0x4f
      c0:	e16f0f10 	clz	r0, r0
      c4:	e1a002a0 	lsr	r0, r0, #5
      c8:	e12fff1e 	bx	lr
      cc:	e3530000 	cmp	r3, #0
      d0:	1affffd4 	bne	28 <stbtt__isfont+0x28>
      d4:	e5d02001 	ldrb	r2, [r0, #1]
      d8:	e3520001 	cmp	r2, #1
      dc:	0affffe3 	beq	70 <stbtt__isfont+0x70>
      e0:	e3a00000 	mov	r0, #0
      e4:	e12fff1e 	bx	lr

000000e8 <stbtt__find_table>:
      e8:	e2813004 	add	r3, r1, #4
      ec:	e92d40f0 	push	{r4, r5, r6, r7, lr}
      f0:	e080e003 	add	lr, r0, r3
      f4:	e7d0c003 	ldrb	ip, [r0, r3]
      f8:	e5de3001 	ldrb	r3, [lr, #1]
      fc:	e083340c 	add	r3, r3, ip, lsl #8
     100:	e6ff6073 	uxth	r6, r3
     104:	e3560000 	cmp	r6, #0
     108:	0a000023 	beq	19c <stbtt__find_table+0xb4>
     10c:	e5d27000 	ldrb	r7, [r2]
     110:	e0801001 	add	r1, r0, r1
     114:	e260e00c 	rsb	lr, r0, #12
     118:	e3a03000 	mov	r3, #0
     11c:	ea000002 	b	12c <stbtt__find_table+0x44>
     120:	e1560003 	cmp	r6, r3
     124:	e2811010 	add	r1, r1, #16
     128:	0a00001b 	beq	19c <stbtt__find_table+0xb4>
     12c:	e5d1c00c 	ldrb	ip, [r1, #12]
     130:	e2833001 	add	r3, r3, #1
     134:	e08e4001 	add	r4, lr, r1
     138:	e15c0007 	cmp	ip, r7
     13c:	1afffff7 	bne	120 <stbtt__find_table+0x38>
     140:	e5d1500d 	ldrb	r5, [r1, #13]
     144:	e5d2c001 	ldrb	ip, [r2, #1]
     148:	e155000c 	cmp	r5, ip
     14c:	1afffff3 	bne	120 <stbtt__find_table+0x38>
     150:	e5d1500e 	ldrb	r5, [r1, #14]
     154:	e5d2c002 	ldrb	ip, [r2, #2]
     158:	e155000c 	cmp	r5, ip
     15c:	1affffef 	bne	120 <stbtt__find_table+0x38>
     160:	e5d1500f 	ldrb	r5, [r1, #15]
     164:	e5d2c003 	ldrb	ip, [r2, #3]
     168:	e155000c 	cmp	r5, ip
     16c:	1affffeb 	bne	120 <stbtt__find_table+0x38>
     170:	e2844008 	add	r4, r4, #8
     174:	e0803004 	add	r3, r0, r4
     178:	e7d01004 	ldrb	r1, [r0, r4]
     17c:	e5d30001 	ldrb	r0, [r3, #1]
     180:	e5d32002 	ldrb	r2, [r3, #2]
     184:	e5d33003 	ldrb	r3, [r3, #3]
     188:	e1a00800 	lsl	r0, r0, #16
     18c:	e0800c01 	add	r0, r0, r1, lsl #24
     190:	e0800402 	add	r0, r0, r2, lsl #8
     194:	e0800003 	add	r0, r0, r3
     198:	e8bd80f0 	pop	{r4, r5, r6, r7, pc}
     19c:	e3a00000 	mov	r0, #0
     1a0:	e8bd80f0 	pop	{r4, r5, r6, r7, pc}

000001a4 <stbtt_GetFontOffsetForIndex_internal>:
     1a4:	e92d4010 	push	{r4, lr}
     1a8:	e1a04000 	mov	r4, r0
     1ac:	ebffff93 	bl	0 <stbtt__isfont>
     1b0:	e3500000 	cmp	r0, #0
     1b4:	0a000003 	beq	1c8 <stbtt_GetFontOffsetForIndex_internal+0x24>
     1b8:	e2911000 	adds	r1, r1, #0
     1bc:	13a01001 	movne	r1, #1
     1c0:	e2610000 	rsb	r0, r1, #0
     1c4:	e8bd8010 	pop	{r4, pc}
     1c8:	e5d43000 	ldrb	r3, [r4]
     1cc:	e3530074 	cmp	r3, #116	; 0x74
     1d0:	1a000029 	bne	27c <stbtt_GetFontOffsetForIndex_internal+0xd8>
     1d4:	e5d43001 	ldrb	r3, [r4, #1]
     1d8:	e3530074 	cmp	r3, #116	; 0x74
     1dc:	1a000026 	bne	27c <stbtt_GetFontOffsetForIndex_internal+0xd8>
     1e0:	e5d43002 	ldrb	r3, [r4, #2]
     1e4:	e3530063 	cmp	r3, #99	; 0x63
     1e8:	1a000023 	bne	27c <stbtt_GetFontOffsetForIndex_internal+0xd8>
     1ec:	e5d43003 	ldrb	r3, [r4, #3]
     1f0:	e3530066 	cmp	r3, #102	; 0x66
     1f4:	1a000020 	bne	27c <stbtt_GetFontOffsetForIndex_internal+0xd8>
     1f8:	e5d43005 	ldrb	r3, [r4, #5]
     1fc:	e5d4c004 	ldrb	ip, [r4, #4]
     200:	e5d40006 	ldrb	r0, [r4, #6]
     204:	e1a03803 	lsl	r3, r3, #16
     208:	e5d42007 	ldrb	r2, [r4, #7]
     20c:	e0833c0c 	add	r3, r3, ip, lsl #24
     210:	e0833400 	add	r3, r3, r0, lsl #8
     214:	e0833002 	add	r3, r3, r2
     218:	e2433801 	sub	r3, r3, #65536	; 0x10000
     21c:	e3d33801 	bics	r3, r3, #65536	; 0x10000
     220:	1a000015 	bne	27c <stbtt_GetFontOffsetForIndex_internal+0xd8>
     224:	e5d43009 	ldrb	r3, [r4, #9]
     228:	e5d4c008 	ldrb	ip, [r4, #8]
     22c:	e5d4000a 	ldrb	r0, [r4, #10]
     230:	e1a03803 	lsl	r3, r3, #16
     234:	e5d4200b 	ldrb	r2, [r4, #11]
     238:	e0833c0c 	add	r3, r3, ip, lsl #24
     23c:	e0833400 	add	r3, r3, r0, lsl #8
     240:	e0833002 	add	r3, r3, r2
     244:	e1510003 	cmp	r1, r3
     248:	aa00000b 	bge	27c <stbtt_GetFontOffsetForIndex_internal+0xd8>
     24c:	e1a01101 	lsl	r1, r1, #2
     250:	e281100c 	add	r1, r1, #12
     254:	e0843001 	add	r3, r4, r1
     258:	e7d4c001 	ldrb	ip, [r4, r1]
     25c:	e5d30001 	ldrb	r0, [r3, #1]
     260:	e5d32002 	ldrb	r2, [r3, #2]
     264:	e5d31003 	ldrb	r1, [r3, #3]
     268:	e1a00800 	lsl	r0, r0, #16
     26c:	e0800c0c 	add	r0, r0, ip, lsl #24
     270:	e0800402 	add	r0, r0, r2, lsl #8
     274:	e0800001 	add	r0, r0, r1
     278:	e8bd8010 	pop	{r4, pc}
     27c:	e3e00000 	mvn	r0, #0
     280:	e8bd8010 	pop	{r4, pc}

00000284 <stbtt__track_vertex>:
     284:	e590301c 	ldr	r3, [r0, #28]
     288:	e1530001 	cmp	r3, r1
     28c:	ba000014 	blt	2e4 <stbtt__track_vertex+0x60>
     290:	e5903004 	ldr	r3, [r0, #4]
     294:	e3530000 	cmp	r3, #0
     298:	0a000011 	beq	2e4 <stbtt__track_vertex+0x60>
     29c:	e5903024 	ldr	r3, [r0, #36]	; 0x24
     2a0:	e1530002 	cmp	r3, r2
     2a4:	ba000002 	blt	2b4 <stbtt__track_vertex+0x30>
     2a8:	e5903004 	ldr	r3, [r0, #4]
     2ac:	e3530000 	cmp	r3, #0
     2b0:	1a000014 	bne	308 <stbtt__track_vertex+0x84>
     2b4:	e5903018 	ldr	r3, [r0, #24]
     2b8:	e5802024 	str	r2, [r0, #36]	; 0x24
     2bc:	e1530001 	cmp	r3, r1
     2c0:	e5903020 	ldr	r3, [r0, #32]
     2c4:	da000008 	ble	2ec <stbtt__track_vertex+0x68>
     2c8:	e1520003 	cmp	r2, r3
     2cc:	e5801018 	str	r1, [r0, #24]
     2d0:	aa000013 	bge	324 <stbtt__track_vertex+0xa0>
     2d4:	e5802020 	str	r2, [r0, #32]
     2d8:	e3a03001 	mov	r3, #1
     2dc:	e5803004 	str	r3, [r0, #4]
     2e0:	e12fff1e 	bx	lr
     2e4:	e580101c 	str	r1, [r0, #28]
     2e8:	eaffffeb 	b	29c <stbtt__track_vertex+0x18>
     2ec:	e590c004 	ldr	ip, [r0, #4]
     2f0:	e35c0000 	cmp	ip, #0
     2f4:	05801018 	streq	r1, [r0, #24]
     2f8:	0afffff5 	beq	2d4 <stbtt__track_vertex+0x50>
     2fc:	e1520003 	cmp	r2, r3
     300:	bafffff3 	blt	2d4 <stbtt__track_vertex+0x50>
     304:	eafffff3 	b	2d8 <stbtt__track_vertex+0x54>
     308:	e590c018 	ldr	ip, [r0, #24]
     30c:	e5903020 	ldr	r3, [r0, #32]
     310:	e151000c 	cmp	r1, ip
     314:	aafffff8 	bge	2fc <stbtt__track_vertex+0x78>
     318:	e1520003 	cmp	r2, r3
     31c:	e5801018 	str	r1, [r0, #24]
     320:	baffffeb 	blt	2d4 <stbtt__track_vertex+0x50>
     324:	e5903004 	ldr	r3, [r0, #4]
     328:	e3530000 	cmp	r3, #0
     32c:	0affffe8 	beq	2d4 <stbtt__track_vertex+0x50>
     330:	eaffffe8 	b	2d8 <stbtt__track_vertex+0x54>

00000334 <stbtt__csctx_v>:
     334:	e590c000 	ldr	ip, [r0]
     338:	e92d4070 	push	{r4, r5, r6, lr}
     33c:	e35c0000 	cmp	ip, #0
     340:	e1a06001 	mov	r6, r1
     344:	e1a04000 	mov	r4, r0
     348:	e1a01002 	mov	r1, r2
     34c:	1a000012 	bne	39c <stbtt__csctx_v+0x68>
     350:	e590c02c 	ldr	ip, [r0, #44]	; 0x2c
     354:	e3a0e00e 	mov	lr, #14
     358:	e5905028 	ldr	r5, [r0, #40]	; 0x28
     35c:	e00e0c9e 	mul	lr, lr, ip
     360:	e085000e 	add	r0, r5, lr
     364:	e5c0600c 	strb	r6, [r0, #12]
     368:	e18520be 	strh	r2, [r5, lr]
     36c:	e1c030b2 	strh	r3, [r0, #2]
     370:	e59d3010 	ldr	r3, [sp, #16]
     374:	e1c030b4 	strh	r3, [r0, #4]
     378:	e59d3014 	ldr	r3, [sp, #20]
     37c:	e1c030b6 	strh	r3, [r0, #6]
     380:	e59d3018 	ldr	r3, [sp, #24]
     384:	e1c030b8 	strh	r3, [r0, #8]
     388:	e59d301c 	ldr	r3, [sp, #28]
     38c:	e1c030ba 	strh	r3, [r0, #10]
     390:	e28cc001 	add	ip, ip, #1
     394:	e584c02c 	str	ip, [r4, #44]	; 0x2c
     398:	e8bd8070 	pop	{r4, r5, r6, pc}
     39c:	e1a02003 	mov	r2, r3
     3a0:	ebffffb7 	bl	284 <stbtt__track_vertex>
     3a4:	e3560004 	cmp	r6, #4
     3a8:	0a000001 	beq	3b4 <stbtt__csctx_v+0x80>
     3ac:	e594c02c 	ldr	ip, [r4, #44]	; 0x2c
     3b0:	eafffff6 	b	390 <stbtt__csctx_v+0x5c>
     3b4:	e59d2014 	ldr	r2, [sp, #20]
     3b8:	e59d1010 	ldr	r1, [sp, #16]
     3bc:	ebffffb0 	bl	284 <stbtt__track_vertex>
     3c0:	e59d201c 	ldr	r2, [sp, #28]
     3c4:	e59d1018 	ldr	r1, [sp, #24]
     3c8:	ebffffad 	bl	284 <stbtt__track_vertex>
     3cc:	eafffff6 	b	3ac <stbtt__csctx_v+0x78>

000003d0 <stbtt__csctx_close_shape>:
     3d0:	edd07a02 	vldr	s15, [r0, #8]
     3d4:	edd06a04 	vldr	s13, [r0, #16]
     3d8:	ed907a03 	vldr	s14, [r0, #12]
     3dc:	eef47a66 	vcmp.f32	s15, s13
     3e0:	eef1fa10 	vmrs	APSR_nzcv, fpscr
     3e4:	1a000003 	bne	3f8 <stbtt__csctx_close_shape+0x28>
     3e8:	edd06a05 	vldr	s13, [r0, #20]
     3ec:	eef46a47 	vcmp.f32	s13, s14
     3f0:	eef1fa10 	vmrs	APSR_nzcv, fpscr
     3f4:	012fff1e 	bxeq	lr
     3f8:	eebd7ac7 	vcvt.s32.f32	s14, s14
     3fc:	e3a02000 	mov	r2, #0
     400:	e52de004 	push	{lr}		; (str lr, [sp, #-4]!)
     404:	e24dd014 	sub	sp, sp, #20
     408:	e3a01002 	mov	r1, #2
     40c:	e58d200c 	str	r2, [sp, #12]
     410:	e58d2008 	str	r2, [sp, #8]
     414:	e58d2004 	str	r2, [sp, #4]
     418:	eefd7ae7 	vcvt.s32.f32	s15, s15
     41c:	e58d2000 	str	r2, [sp]
     420:	ee173a10 	vmov	r3, s14
     424:	ee172a90 	vmov	r2, s15
     428:	ebffffc1 	bl	334 <stbtt__csctx_v>
     42c:	e28dd014 	add	sp, sp, #20
     430:	e49df004 	pop	{pc}		; (ldr pc, [sp], #4)

00000434 <stbtt__csctx_rmove_to>:
     434:	e92d4010 	push	{r4, lr}
     438:	e24dd010 	sub	sp, sp, #16
     43c:	e1a04000 	mov	r4, r0
     440:	ebffffe2 	bl	3d0 <stbtt__csctx_close_shape>
     444:	ed947a04 	vldr	s14, [r4, #16]
     448:	e3a03000 	mov	r3, #0
     44c:	e58d300c 	str	r3, [sp, #12]
     450:	e1a00004 	mov	r0, r4
     454:	e3a01001 	mov	r1, #1
     458:	edd47a05 	vldr	s15, [r4, #20]
     45c:	e58d3008 	str	r3, [sp, #8]
     460:	e58d3004 	str	r3, [sp, #4]
     464:	e58d3000 	str	r3, [sp]
     468:	ee700aa7 	vadd.f32	s1, s1, s15
     46c:	ee300a07 	vadd.f32	s0, s0, s14
     470:	edc40a05 	vstr	s1, [r4, #20]
     474:	edc40a03 	vstr	s1, [r4, #12]
     478:	eefd7ae0 	vcvt.s32.f32	s15, s1
     47c:	ed840a04 	vstr	s0, [r4, #16]
     480:	ed840a02 	vstr	s0, [r4, #8]
     484:	ee173a90 	vmov	r3, s15
     488:	eefd7ac0 	vcvt.s32.f32	s15, s0
     48c:	ee172a90 	vmov	r2, s15
     490:	ebffffa7 	bl	334 <stbtt__csctx_v>
     494:	e28dd010 	add	sp, sp, #16
     498:	e8bd8010 	pop	{r4, pc}

0000049c <stbtt__csctx_rline_to>:
     49c:	ed907a04 	vldr	s14, [r0, #16]
     4a0:	e3a02000 	mov	r2, #0
     4a4:	e52de004 	push	{lr}		; (str lr, [sp, #-4]!)
     4a8:	e24dd014 	sub	sp, sp, #20
     4ac:	edd07a05 	vldr	s15, [r0, #20]
     4b0:	e3a01002 	mov	r1, #2
     4b4:	e58d200c 	str	r2, [sp, #12]
     4b8:	e58d2008 	str	r2, [sp, #8]
     4bc:	ee300a07 	vadd.f32	s0, s0, s14
     4c0:	e58d2004 	str	r2, [sp, #4]
     4c4:	e58d2000 	str	r2, [sp]
     4c8:	ee700aa7 	vadd.f32	s1, s1, s15
     4cc:	ed800a04 	vstr	s0, [r0, #16]
     4d0:	eefd7ac0 	vcvt.s32.f32	s15, s0
     4d4:	edc00a05 	vstr	s1, [r0, #20]
     4d8:	ee172a90 	vmov	r2, s15
     4dc:	eefd7ae0 	vcvt.s32.f32	s15, s1
     4e0:	ee173a90 	vmov	r3, s15
     4e4:	ebffff92 	bl	334 <stbtt__csctx_v>
     4e8:	e28dd014 	add	sp, sp, #20
     4ec:	e49df004 	pop	{pc}		; (ldr pc, [sp], #4)

000004f0 <stbtt__csctx_rccurve_to>:
     4f0:	edd07a04 	vldr	s15, [r0, #16]
     4f4:	e3a01004 	mov	r1, #4
     4f8:	e52de004 	push	{lr}		; (str lr, [sp, #-4]!)
     4fc:	e24dd014 	sub	sp, sp, #20
     500:	ed907a05 	vldr	s14, [r0, #20]
     504:	ee300a27 	vadd.f32	s0, s0, s15
     508:	ee700a87 	vadd.f32	s1, s1, s14
     50c:	ee301a01 	vadd.f32	s2, s0, s2
     510:	ee701aa1 	vadd.f32	s3, s1, s3
     514:	ee312a02 	vadd.f32	s4, s2, s4
     518:	ee712aa2 	vadd.f32	s5, s3, s5
     51c:	ed802a04 	vstr	s4, [r0, #16]
     520:	eefd7ac2 	vcvt.s32.f32	s15, s4
     524:	edc02a05 	vstr	s5, [r0, #20]
     528:	eebd1ac1 	vcvt.s32.f32	s2, s2
     52c:	ee172a90 	vmov	r2, s15
     530:	eefd1ae1 	vcvt.s32.f32	s3, s3
     534:	ed8d1a02 	vstr	s2, [sp, #8]
     538:	eefd0ae0 	vcvt.s32.f32	s1, s1
     53c:	edcd1a03 	vstr	s3, [sp, #12]
     540:	eebd0ac0 	vcvt.s32.f32	s0, s0
     544:	edcd0a01 	vstr	s1, [sp, #4]
     548:	eefd7ae2 	vcvt.s32.f32	s15, s5
     54c:	ed8d0a00 	vstr	s0, [sp]
     550:	ee173a90 	vmov	r3, s15
     554:	ebffff76 	bl	334 <stbtt__csctx_v>
     558:	e28dd014 	add	sp, sp, #20
     55c:	e49df004 	pop	{pc}		; (ldr pc, [sp], #4)

00000560 <stbtt__sort_edges_quicksort>:
     560:	e92d4ff0 	push	{r4, r5, r6, r7, r8, r9, sl, fp, lr}
     564:	e351000c 	cmp	r1, #12
     568:	e24dd02c 	sub	sp, sp, #44	; 0x2c
     56c:	e58d100c 	str	r1, [sp, #12]
     570:	da000085 	ble	78c <stbtt__sort_edges_quicksort+0x22c>
     574:	e1a0b000 	mov	fp, r0
     578:	e59d200c 	ldr	r2, [sp, #12]
     57c:	e3a01014 	mov	r1, #20
     580:	eddb6a01 	vldr	s13, [fp, #4]
     584:	e2424001 	sub	r4, r2, #1
     588:	e0030291 	mul	r3, r1, r2
     58c:	e1a0c0c2 	asr	ip, r2, #1
     590:	e02cbc91 	mla	ip, r1, ip, fp
     594:	e1a02003 	mov	r2, r3
     598:	e08b3003 	add	r3, fp, r3
     59c:	e2422014 	sub	r2, r2, #20
     5a0:	ed137a04 	vldr	s14, [r3, #-16]
     5a4:	e08b1002 	add	r1, fp, r2
     5a8:	e58d1000 	str	r1, [sp]
     5ac:	eddc7a01 	vldr	s15, [ip, #4]
     5b0:	eef47ac7 	vcmpe.f32	s15, s14
     5b4:	eef1fa10 	vmrs	APSR_nzcv, fpscr
     5b8:	eef46ae7 	vcmpe.f32	s13, s15
     5bc:	43a03001 	movmi	r3, #1
     5c0:	53a03000 	movpl	r3, #0
     5c4:	eef1fa10 	vmrs	APSR_nzcv, fpscr
     5c8:	43a02001 	movmi	r2, #1
     5cc:	53a02000 	movpl	r2, #0
     5d0:	e1520003 	cmp	r2, r3
     5d4:	0a000016 	beq	634 <stbtt__sort_edges_quicksort+0xd4>
     5d8:	eef46ac7 	vcmpe.f32	s13, s14
     5dc:	e28d6014 	add	r6, sp, #20
     5e0:	e1a0500c 	mov	r5, ip
     5e4:	e1a0700c 	mov	r7, ip
     5e8:	e1a08006 	mov	r8, r6
     5ec:	eef1fa10 	vmrs	APSR_nzcv, fpscr
     5f0:	43a0e001 	movmi	lr, #1
     5f4:	53a0e000 	movpl	lr, #0
     5f8:	e15e0003 	cmp	lr, r3
     5fc:	01a0100b 	moveq	r1, fp
     600:	e1a0e001 	mov	lr, r1
     604:	e1a09001 	mov	r9, r1
     608:	e8be000f 	ldm	lr!, {r0, r1, r2, r3}
     60c:	e8a6000f 	stmia	r6!, {r0, r1, r2, r3}
     610:	e8b5000f 	ldm	r5!, {r0, r1, r2, r3}
     614:	e59ea000 	ldr	sl, [lr]
     618:	e8a9000f 	stmia	r9!, {r0, r1, r2, r3}
     61c:	e8b8000f 	ldm	r8!, {r0, r1, r2, r3}
     620:	e5958000 	ldr	r8, [r5]
     624:	e586a000 	str	sl, [r6]
     628:	e58e8000 	str	r8, [lr]
     62c:	e8a7000f 	stmia	r7!, {r0, r1, r2, r3}
     630:	e585a000 	str	sl, [r5]
     634:	e1a0e00b 	mov	lr, fp
     638:	e28d6014 	add	r6, sp, #20
     63c:	e8be000f 	ldm	lr!, {r0, r1, r2, r3}
     640:	e1a0700c 	mov	r7, ip
     644:	e1a08006 	mov	r8, r6
     648:	e1a0a00b 	mov	sl, fp
     64c:	e28b5014 	add	r5, fp, #20
     650:	e8a6000f 	stmia	r6!, {r0, r1, r2, r3}
     654:	e8bc000f 	ldm	ip!, {r0, r1, r2, r3}
     658:	e59e9000 	ldr	r9, [lr]
     65c:	e8aa000f 	stmia	sl!, {r0, r1, r2, r3}
     660:	e3a0a001 	mov	sl, #1
     664:	e8b8000f 	ldm	r8!, {r0, r1, r2, r3}
     668:	e5869000 	str	r9, [r6]
     66c:	e59c6000 	ldr	r6, [ip]
     670:	e58e6000 	str	r6, [lr]
     674:	e8a7000f 	stmia	r7!, {r0, r1, r2, r3}
     678:	e59d3000 	ldr	r3, [sp]
     67c:	ed9b7a01 	vldr	s14, [fp, #4]
     680:	e58c9000 	str	r9, [ip]
     684:	edd36a01 	vldr	s13, [r3, #4]
     688:	edd57a01 	vldr	s15, [r5, #4]
     68c:	eef47ac7 	vcmpe.f32	s15, s14
     690:	eef1fa10 	vmrs	APSR_nzcv, fpscr
     694:	4a000029 	bmi	740 <stbtt__sort_edges_quicksort+0x1e0>
     698:	eeb47ae6 	vcmpe.f32	s14, s13
     69c:	eef1fa10 	vmrs	APSR_nzcv, fpscr
     6a0:	5a000029 	bpl	74c <stbtt__sort_edges_quicksort+0x1ec>
     6a4:	e2442001 	sub	r2, r4, #1
     6a8:	e3a03014 	mov	r3, #20
     6ac:	e023b293 	mla	r3, r3, r2, fp
     6b0:	e1a0c003 	mov	ip, r3
     6b4:	e2433014 	sub	r3, r3, #20
     6b8:	edd37a06 	vldr	s15, [r3, #24]
     6bc:	e1a04002 	mov	r4, r2
     6c0:	e2422001 	sub	r2, r2, #1
     6c4:	eef47ac7 	vcmpe.f32	s15, s14
     6c8:	eef1fa10 	vmrs	APSR_nzcv, fpscr
     6cc:	cafffff7 	bgt	6b0 <stbtt__sort_edges_quicksort+0x150>
     6d0:	e15a0004 	cmp	sl, r4
     6d4:	aa000020 	bge	75c <stbtt__sort_edges_quicksort+0x1fc>
     6d8:	e1a0e005 	mov	lr, r5
     6dc:	e2444001 	sub	r4, r4, #1
     6e0:	e8be000f 	ldm	lr!, {r0, r1, r2, r3}
     6e4:	e28d6014 	add	r6, sp, #20
     6e8:	e1a0700c 	mov	r7, ip
     6ec:	e58d6004 	str	r6, [sp, #4]
     6f0:	e1a09005 	mov	r9, r5
     6f4:	e59e8000 	ldr	r8, [lr]
     6f8:	e8a6000f 	stmia	r6!, {r0, r1, r2, r3}
     6fc:	e58d8000 	str	r8, [sp]
     700:	e3a08014 	mov	r8, #20
     704:	e028b498 	mla	r8, r8, r4, fp
     708:	e8bc000f 	ldm	ip!, {r0, r1, r2, r3}
     70c:	e58d8008 	str	r8, [sp, #8]
     710:	e59d8004 	ldr	r8, [sp, #4]
     714:	e8a9000f 	stmia	r9!, {r0, r1, r2, r3}
     718:	e8b8000f 	ldm	r8!, {r0, r1, r2, r3}
     71c:	e59d9000 	ldr	r9, [sp]
     720:	e59c8000 	ldr	r8, [ip]
     724:	e5869000 	str	r9, [r6]
     728:	e58e8000 	str	r8, [lr]
     72c:	e8a7000f 	stmia	r7!, {r0, r1, r2, r3}
     730:	e59d8008 	ldr	r8, [sp, #8]
     734:	ed9b7a01 	vldr	s14, [fp, #4]
     738:	e58c9000 	str	r9, [ip]
     73c:	edd86a01 	vldr	s13, [r8, #4]
     740:	e2855014 	add	r5, r5, #20
     744:	e28aa001 	add	sl, sl, #1
     748:	eaffffce 	b	688 <stbtt__sort_edges_quicksort+0x128>
     74c:	e15a0004 	cmp	sl, r4
     750:	e3a03014 	mov	r3, #20
     754:	e02cb493 	mla	ip, r3, r4, fp
     758:	baffffde 	blt	6d8 <stbtt__sort_edges_quicksort+0x178>
     75c:	e59d300c 	ldr	r3, [sp, #12]
     760:	e043300a 	sub	r3, r3, sl
     764:	e58d300c 	str	r3, [sp, #12]
     768:	e1530004 	cmp	r3, r4
     76c:	da000008 	ble	794 <stbtt__sort_edges_quicksort+0x234>
     770:	e1a0000b 	mov	r0, fp
     774:	e1a01004 	mov	r1, r4
     778:	ebffff78 	bl	560 <stbtt__sort_edges_quicksort>
     77c:	e1a0b005 	mov	fp, r5
     780:	e59d300c 	ldr	r3, [sp, #12]
     784:	e353000c 	cmp	r3, #12
     788:	caffff7a 	bgt	578 <stbtt__sort_edges_quicksort+0x18>
     78c:	e28dd02c 	add	sp, sp, #44	; 0x2c
     790:	e8bd8ff0 	pop	{r4, r5, r6, r7, r8, r9, sl, fp, pc}
     794:	e59d100c 	ldr	r1, [sp, #12]
     798:	e1a00005 	mov	r0, r5
     79c:	ebffff6f 	bl	560 <stbtt__sort_edges_quicksort>
     7a0:	e58d400c 	str	r4, [sp, #12]
     7a4:	eafffff5 	b	780 <stbtt__sort_edges_quicksort+0x220>

000007a8 <stbtt__tesselate_curve>:
     7a8:	e3520011 	cmp	r2, #17
     7ac:	0a000023 	beq	840 <stbtt__tesselate_curve+0x98>
     7b0:	e92d47f0 	push	{r4, r5, r6, r7, r8, r9, sl, lr}
     7b4:	eeb56a00 	vmov.f32	s12, #80	; 0x3e800000  0.250
     7b8:	ed2d8b06 	vpush	{d8-d10}
     7bc:	e1a04000 	mov	r4, r0
     7c0:	e1a09001 	mov	r9, r1
     7c4:	ee718aa1 	vadd.f32	s17, s3, s3
     7c8:	ee788aa0 	vadd.f32	s17, s17, s1
     7cc:	ee318a01 	vadd.f32	s16, s2, s2
     7d0:	ee788aa2 	vadd.f32	s17, s17, s5
     7d4:	ee388a00 	vadd.f32	s16, s16, s0
     7d8:	ee688a86 	vmul.f32	s17, s17, s12
     7dc:	ee388a02 	vadd.f32	s16, s16, s4
     7e0:	eeb6aa00 	vmov.f32	s20, #96	; 0x3f000000  0.5
     7e4:	ee707aa2 	vadd.f32	s15, s1, s5
     7e8:	ee288a06 	vmul.f32	s16, s16, s12
     7ec:	eeb06a68 	vmov.f32	s12, s17
     7f0:	ee176a8a 	vnmls.f32	s12, s15, s20
     7f4:	eeb05a48 	vmov.f32	s10, s16
     7f8:	eef07a46 	vmov.f32	s15, s12
     7fc:	ee306a02 	vadd.f32	s12, s0, s4
     800:	ee165a0a 	vnmls.f32	s10, s12, s20
     804:	ee677aa7 	vmul.f32	s15, s15, s15
     808:	ee457a05 	vmla.f32	s15, s10, s10
     80c:	eef47ac3 	vcmpe.f32	s15, s6
     810:	eef1fa10 	vmrs	APSR_nzcv, fpscr
     814:	ca00000b 	bgt	848 <stbtt__tesselate_curve+0xa0>
     818:	e5912000 	ldr	r2, [r1]
     81c:	e3500000 	cmp	r0, #0
     820:	10803182 	addne	r3, r0, r2, lsl #3
     824:	e2822001 	add	r2, r2, #1
     828:	1d832a00 	vstrne	s4, [r3]
     82c:	1dc32a01 	vstrne	s5, [r3, #4]
     830:	e5812000 	str	r2, [r1]
     834:	ecbd8b06 	vpop	{d8-d10}
     838:	e3a00001 	mov	r0, #1
     83c:	e8bd87f0 	pop	{r4, r5, r6, r7, r8, r9, sl, pc}
     840:	e3a00001 	mov	r0, #1
     844:	e12fff1e 	bx	lr
     848:	ee125a90 	vmov	r5, s5
     84c:	e2827001 	add	r7, r2, #1
     850:	ee126a10 	vmov	r6, s4
     854:	eef09a61 	vmov.f32	s19, s3
     858:	e1a02007 	mov	r2, r7
     85c:	ee138a10 	vmov	r8, s6
     860:	eeb09a41 	vmov.f32	s18, s2
     864:	ee711aa0 	vadd.f32	s3, s3, s1
     868:	ee311a00 	vadd.f32	s2, s2, s0
     86c:	eef02a68 	vmov.f32	s5, s17
     870:	eeb02a48 	vmov.f32	s4, s16
     874:	ee611a8a 	vmul.f32	s3, s3, s20
     878:	ee211a0a 	vmul.f32	s2, s2, s20
     87c:	ebffffc9 	bl	7a8 <stbtt__tesselate_curve>
     880:	ee025a90 	vmov	s5, r5
     884:	ee026a10 	vmov	s4, r6
     888:	e1a02007 	mov	r2, r7
     88c:	ee038a10 	vmov	s6, r8
     890:	e1a01009 	mov	r1, r9
     894:	e1a00004 	mov	r0, r4
     898:	ee791aa2 	vadd.f32	s3, s19, s5
     89c:	ee391a02 	vadd.f32	s2, s18, s4
     8a0:	eef00a68 	vmov.f32	s1, s17
     8a4:	eeb00a48 	vmov.f32	s0, s16
     8a8:	ee611a8a 	vmul.f32	s3, s3, s20
     8ac:	ee211a0a 	vmul.f32	s2, s2, s20
     8b0:	ebffffbc 	bl	7a8 <stbtt__tesselate_curve>
     8b4:	eaffffde 	b	834 <stbtt__tesselate_curve+0x8c>

000008b8 <stbrp_pack_rects>:
     8b8:	e3520000 	cmp	r2, #0
     8bc:	d12fff1e 	bxle	lr
     8c0:	e3a03000 	mov	r3, #0
     8c4:	e1a0c001 	mov	ip, r1
     8c8:	e92d47f0 	push	{r4, r5, r6, r7, r8, r9, sl, lr}
     8cc:	e1a09003 	mov	r9, r3
     8d0:	e5907000 	ldr	r7, [r0]
     8d4:	e3a08001 	mov	r8, #1
     8d8:	e5906004 	ldr	r6, [r0, #4]
     8dc:	e5904008 	ldr	r4, [r0, #8]
     8e0:	ea00000c 	b	918 <stbrp_pack_rects+0x60>
     8e4:	e590a008 	ldr	sl, [r0, #8]
     8e8:	e2833001 	add	r3, r3, #1
     8ec:	e58c4004 	str	r4, [ip, #4]
     8f0:	e28cc018 	add	ip, ip, #24
     8f4:	e50c8004 	str	r8, [ip, #-4]
     8f8:	e085400a 	add	r4, r5, sl
     8fc:	e50ca018 	str	sl, [ip, #-24]	; 0xffffffe8
     900:	e5905010 	ldr	r5, [r0, #16]
     904:	e5804008 	str	r4, [r0, #8]
     908:	e15e0005 	cmp	lr, r5
     90c:	c580e010 	strgt	lr, [r0, #16]
     910:	e1520003 	cmp	r2, r3
     914:	08bd87f0 	popeq	{r4, r5, r6, r7, r8, r9, sl, pc}
     918:	e59c500c 	ldr	r5, [ip, #12]
     91c:	e0854004 	add	r4, r5, r4
     920:	e1540007 	cmp	r4, r7
     924:	c5809008 	strgt	r9, [r0, #8]
     928:	c5904010 	ldrgt	r4, [r0, #16]
     92c:	d590400c 	ldrle	r4, [r0, #12]
     930:	c580400c 	strgt	r4, [r0, #12]
     934:	e59ce010 	ldr	lr, [ip, #16]
     938:	e084e00e 	add	lr, r4, lr
     93c:	e15e0006 	cmp	lr, r6
     940:	daffffe7 	ble	8e4 <stbrp_pack_rects+0x2c>
     944:	e1520003 	cmp	r2, r3
     948:	d8bd87f0 	pople	{r4, r5, r6, r7, r8, r9, sl, pc}
     94c:	e3a0c018 	mov	ip, #24
     950:	e3a00000 	mov	r0, #0
     954:	e023139c 	mla	r3, ip, r3, r1
     958:	e022129c 	mla	r2, ip, r2, r1
     95c:	e5830014 	str	r0, [r3, #20]
     960:	e2833018 	add	r3, r3, #24
     964:	e1530002 	cmp	r3, r2
     968:	1afffffb 	bne	95c <stbrp_pack_rects+0xa4>
     96c:	e8bd87f0 	pop	{r4, r5, r6, r7, r8, r9, sl, pc}

00000970 <stbtt__CompareUTF8toUTF16_bigendian_prefix>:
     970:	e3530000 	cmp	r3, #0
     974:	0a000065 	beq	b10 <stbtt__CompareUTF8toUTF16_bigendian_prefix+0x1a0>
     978:	e92d40f0 	push	{r4, r5, r6, r7, lr}
     97c:	e1a04000 	mov	r4, r0
     980:	e3a00000 	mov	r0, #0
     984:	ea000008 	b	9ac <stbtt__CompareUTF8toUTF16_bigendian_prefix+0x3c>
     988:	e1510000 	cmp	r1, r0
     98c:	da00001c 	ble	a04 <stbtt__CompareUTF8toUTF16_bigendian_prefix+0x94>
     990:	e7d4e000 	ldrb	lr, [r4, r0]
     994:	e2800001 	add	r0, r0, #1
     998:	e15e000c 	cmp	lr, ip
     99c:	1a000018 	bne	a04 <stbtt__CompareUTF8toUTF16_bigendian_prefix+0x94>
     9a0:	e2533002 	subs	r3, r3, #2
     9a4:	e2822002 	add	r2, r2, #2
     9a8:	08bd80f0 	popeq	{r4, r5, r6, r7, pc}
     9ac:	e5d2e000 	ldrb	lr, [r2]
     9b0:	e5d2c001 	ldrb	ip, [r2, #1]
     9b4:	e08cc40e 	add	ip, ip, lr, lsl #8
     9b8:	e6ffc07c 	uxth	ip, ip
     9bc:	e35c007f 	cmp	ip, #127	; 0x7f
     9c0:	9afffff0 	bls	988 <stbtt__CompareUTF8toUTF16_bigendian_prefix+0x18>
     9c4:	e35c0b02 	cmp	ip, #2048	; 0x800
     9c8:	2a00000f 	bcs	a0c <stbtt__CompareUTF8toUTF16_bigendian_prefix+0x9c>
     9cc:	e2805001 	add	r5, r0, #1
     9d0:	e1550001 	cmp	r5, r1
     9d4:	aa00000a 	bge	a04 <stbtt__CompareUTF8toUTF16_bigendian_prefix+0x94>
     9d8:	e1a0e32c 	lsr	lr, ip, #6
     9dc:	e7d46000 	ldrb	r6, [r4, r0]
     9e0:	e28ee0c0 	add	lr, lr, #192	; 0xc0
     9e4:	e156000e 	cmp	r6, lr
     9e8:	1a000005 	bne	a04 <stbtt__CompareUTF8toUTF16_bigendian_prefix+0x94>
     9ec:	e20cc03f 	and	ip, ip, #63	; 0x3f
     9f0:	e7d4e005 	ldrb	lr, [r4, r5]
     9f4:	e28cc080 	add	ip, ip, #128	; 0x80
     9f8:	e2800002 	add	r0, r0, #2
     9fc:	e15e000c 	cmp	lr, ip
     a00:	0affffe6 	beq	9a0 <stbtt__CompareUTF8toUTF16_bigendian_prefix+0x30>
     a04:	e3e00000 	mvn	r0, #0
     a08:	e8bd80f0 	pop	{r4, r5, r6, r7, pc}
     a0c:	e28ceb0a 	add	lr, ip, #10240	; 0x2800
     a10:	e6ffe07e 	uxth	lr, lr
     a14:	e35e0b01 	cmp	lr, #1024	; 0x400
     a18:	2a000023 	bcs	aac <stbtt__CompareUTF8toUTF16_bigendian_prefix+0x13c>
     a1c:	e5d26002 	ldrb	r6, [r2, #2]
     a20:	e2805003 	add	r5, r0, #3
     a24:	e5d2e003 	ldrb	lr, [r2, #3]
     a28:	e1550001 	cmp	r5, r1
     a2c:	e08ee406 	add	lr, lr, r6, lsl #8
     a30:	e6ffe07e 	uxth	lr, lr
     a34:	aafffff2 	bge	a04 <stbtt__CompareUTF8toUTF16_bigendian_prefix+0x94>
     a38:	e08ec50c 	add	ip, lr, ip, lsl #10
     a3c:	e7d46000 	ldrb	r6, [r4, r0]
     a40:	e24cc7d7 	sub	ip, ip, #56360960	; 0x35c0000
     a44:	e2807001 	add	r7, r0, #1
     a48:	e24ccbf7 	sub	ip, ip, #252928	; 0x3dc00
     a4c:	e1a0e92c 	lsr	lr, ip, #18
     a50:	e28ee0f0 	add	lr, lr, #240	; 0xf0
     a54:	e156000e 	cmp	r6, lr
     a58:	1affffe9 	bne	a04 <stbtt__CompareUTF8toUTF16_bigendian_prefix+0x94>
     a5c:	e7d46007 	ldrb	r6, [r4, r7]
     a60:	e7e5e65c 	ubfx	lr, ip, #12, #6
     a64:	e28ee080 	add	lr, lr, #128	; 0x80
     a68:	e2807002 	add	r7, r0, #2
     a6c:	e156000e 	cmp	r6, lr
     a70:	1affffe3 	bne	a04 <stbtt__CompareUTF8toUTF16_bigendian_prefix+0x94>
     a74:	e7d46007 	ldrb	r6, [r4, r7]
     a78:	e7e5e35c 	ubfx	lr, ip, #6, #6
     a7c:	e28ee080 	add	lr, lr, #128	; 0x80
     a80:	e156000e 	cmp	r6, lr
     a84:	1affffde 	bne	a04 <stbtt__CompareUTF8toUTF16_bigendian_prefix+0x94>
     a88:	e20cc03f 	and	ip, ip, #63	; 0x3f
     a8c:	e7d4e005 	ldrb	lr, [r4, r5]
     a90:	e28cc080 	add	ip, ip, #128	; 0x80
     a94:	e2800004 	add	r0, r0, #4
     a98:	e15e000c 	cmp	lr, ip
     a9c:	1affffd8 	bne	a04 <stbtt__CompareUTF8toUTF16_bigendian_prefix+0x94>
     aa0:	e2822002 	add	r2, r2, #2
     aa4:	e2433002 	sub	r3, r3, #2
     aa8:	eaffffbc 	b	9a0 <stbtt__CompareUTF8toUTF16_bigendian_prefix+0x30>
     aac:	e28ceb09 	add	lr, ip, #9216	; 0x2400
     ab0:	e6ffe07e 	uxth	lr, lr
     ab4:	e35e0b01 	cmp	lr, #1024	; 0x400
     ab8:	3affffd1 	bcc	a04 <stbtt__CompareUTF8toUTF16_bigendian_prefix+0x94>
     abc:	e2805002 	add	r5, r0, #2
     ac0:	e1550001 	cmp	r5, r1
     ac4:	aaffffce 	bge	a04 <stbtt__CompareUTF8toUTF16_bigendian_prefix+0x94>
     ac8:	e1a0e62c 	lsr	lr, ip, #12
     acc:	e7d46000 	ldrb	r6, [r4, r0]
     ad0:	e28ee0e0 	add	lr, lr, #224	; 0xe0
     ad4:	e2807001 	add	r7, r0, #1
     ad8:	e156000e 	cmp	r6, lr
     adc:	1affffc8 	bne	a04 <stbtt__CompareUTF8toUTF16_bigendian_prefix+0x94>
     ae0:	e7d46007 	ldrb	r6, [r4, r7]
     ae4:	e7e5e35c 	ubfx	lr, ip, #6, #6
     ae8:	e28ee080 	add	lr, lr, #128	; 0x80
     aec:	e156000e 	cmp	r6, lr
     af0:	1affffc3 	bne	a04 <stbtt__CompareUTF8toUTF16_bigendian_prefix+0x94>
     af4:	e20cc03f 	and	ip, ip, #63	; 0x3f
     af8:	e7d4e005 	ldrb	lr, [r4, r5]
     afc:	e28cc080 	add	ip, ip, #128	; 0x80
     b00:	e2800003 	add	r0, r0, #3
     b04:	e15e000c 	cmp	lr, ip
     b08:	0affffa4 	beq	9a0 <stbtt__CompareUTF8toUTF16_bigendian_prefix+0x30>
     b0c:	eaffffbc 	b	a04 <stbtt__CompareUTF8toUTF16_bigendian_prefix+0x94>
     b10:	e1a00003 	mov	r0, r3
     b14:	e12fff1e 	bx	lr

00000b18 <stbtt__matchpair>:
     b18:	e281c002 	add	ip, r1, #2
     b1c:	e92d4ff0 	push	{r4, r5, r6, r7, r8, r9, sl, fp, lr}
     b20:	e080e00c 	add	lr, r0, ip
     b24:	e7d0500c 	ldrb	r5, [r0, ip]
     b28:	e281c004 	add	ip, r1, #4
     b2c:	e5de8001 	ldrb	r8, [lr, #1]
     b30:	e080400c 	add	r4, r0, ip
     b34:	e7d0e00c 	ldrb	lr, [r0, ip]
     b38:	e24dd00c 	sub	sp, sp, #12
     b3c:	e0888405 	add	r8, r8, r5, lsl #8
     b40:	e5d4c001 	ldrb	ip, [r4, #1]
     b44:	e59d9030 	ldr	r9, [sp, #48]	; 0x30
     b48:	e6ff8078 	uxth	r8, r8
     b4c:	e08cc40e 	add	ip, ip, lr, lsl #8
     b50:	e3580000 	cmp	r8, #0
     b54:	e6f1c07c 	uxtah	ip, r1, ip
     b58:	e58dc000 	str	ip, [sp]
     b5c:	0a000070 	beq	d24 <stbtt__matchpair+0x20c>
     b60:	e1a0b003 	mov	fp, r3
     b64:	e58d2004 	str	r2, [sp, #4]
     b68:	e1a0a000 	mov	sl, r0
     b6c:	e0804001 	add	r4, r0, r1
     b70:	e3a05000 	mov	r5, #0
     b74:	ea000002 	b	b84 <stbtt__matchpair+0x6c>
     b78:	e1580005 	cmp	r8, r5
     b7c:	da000068 	ble	d24 <stbtt__matchpair+0x20c>
     b80:	e284400c 	add	r4, r4, #12
     b84:	e5d4200c 	ldrb	r2, [r4, #12]
     b88:	e2855001 	add	r5, r5, #1
     b8c:	e5d4300d 	ldrb	r3, [r4, #13]
     b90:	e0833402 	add	r3, r3, r2, lsl #8
     b94:	e6ff3073 	uxth	r3, r3
     b98:	e1530009 	cmp	r3, r9
     b9c:	1afffff5 	bne	b78 <stbtt__matchpair+0x60>
     ba0:	e5d42006 	ldrb	r2, [r4, #6]
     ba4:	e5d46007 	ldrb	r6, [r4, #7]
     ba8:	e5d43008 	ldrb	r3, [r4, #8]
     bac:	e0866402 	add	r6, r6, r2, lsl #8
     bb0:	e5d47009 	ldrb	r7, [r4, #9]
     bb4:	e6ff6076 	uxth	r6, r6
     bb8:	e0877403 	add	r7, r7, r3, lsl #8
     bbc:	e3560000 	cmp	r6, #0
     bc0:	e6ff7077 	uxth	r7, r7
     bc4:	0a000008 	beq	bec <stbtt__matchpair+0xd4>
     bc8:	e357000a 	cmp	r7, #10
     bcc:	13570001 	cmpne	r7, #1
     bd0:	03a03001 	moveq	r3, #1
     bd4:	13a03000 	movne	r3, #0
     bd8:	e3560003 	cmp	r6, #3
     bdc:	13a03000 	movne	r3, #0
     be0:	02033001 	andeq	r3, r3, #1
     be4:	e3530000 	cmp	r3, #0
     be8:	0affffe2 	beq	b78 <stbtt__matchpair+0x60>
     bec:	e5d43010 	ldrb	r3, [r4, #16]
     bf0:	e1a0100b 	mov	r1, fp
     bf4:	e5d42011 	ldrb	r2, [r4, #17]
     bf8:	e5d4c00e 	ldrb	ip, [r4, #14]
     bfc:	e0822403 	add	r2, r2, r3, lsl #8
     c00:	e5d4300f 	ldrb	r3, [r4, #15]
     c04:	e59d0004 	ldr	r0, [sp, #4]
     c08:	e083340c 	add	r3, r3, ip, lsl #8
     c0c:	e59dc000 	ldr	ip, [sp]
     c10:	e6fc2072 	uxtah	r2, ip, r2
     c14:	e6ff3073 	uxth	r3, r3
     c18:	e08a2002 	add	r2, sl, r2
     c1c:	ebffff53 	bl	970 <stbtt__CompareUTF8toUTF16_bigendian_prefix>
     c20:	e3500000 	cmp	r0, #0
     c24:	baffffd3 	blt	b78 <stbtt__matchpair+0x60>
     c28:	e1580005 	cmp	r8, r5
     c2c:	da00003f 	ble	d30 <stbtt__matchpair+0x218>
     c30:	e5d42018 	ldrb	r2, [r4, #24]
     c34:	e5d43019 	ldrb	r3, [r4, #25]
     c38:	e0833402 	add	r3, r3, r2, lsl #8
     c3c:	e59d2034 	ldr	r2, [sp, #52]	; 0x34
     c40:	e6ff3073 	uxth	r3, r3
     c44:	e1530002 	cmp	r3, r2
     c48:	0a000004 	beq	c60 <stbtt__matchpair+0x148>
     c4c:	e15b0000 	cmp	fp, r0
     c50:	1affffca 	bne	b80 <stbtt__matchpair+0x68>
     c54:	e3a00001 	mov	r0, #1
     c58:	e28dd00c 	add	sp, sp, #12
     c5c:	e8bd8ff0 	pop	{r4, r5, r6, r7, r8, r9, sl, fp, pc}
     c60:	e5d42012 	ldrb	r2, [r4, #18]
     c64:	e5d43013 	ldrb	r3, [r4, #19]
     c68:	e0833402 	add	r3, r3, r2, lsl #8
     c6c:	e6ff3073 	uxth	r3, r3
     c70:	e1560003 	cmp	r6, r3
     c74:	1afffff4 	bne	c4c <stbtt__matchpair+0x134>
     c78:	e5d42014 	ldrb	r2, [r4, #20]
     c7c:	e5d43015 	ldrb	r3, [r4, #21]
     c80:	e0833402 	add	r3, r3, r2, lsl #8
     c84:	e6ff3073 	uxth	r3, r3
     c88:	e1570003 	cmp	r7, r3
     c8c:	1affffee 	bne	c4c <stbtt__matchpair+0x134>
     c90:	e5d4c00a 	ldrb	ip, [r4, #10]
     c94:	e5d41016 	ldrb	r1, [r4, #22]
     c98:	e5d4200b 	ldrb	r2, [r4, #11]
     c9c:	e5d43017 	ldrb	r3, [r4, #23]
     ca0:	e082240c 	add	r2, r2, ip, lsl #8
     ca4:	e0833401 	add	r3, r3, r1, lsl #8
     ca8:	e6ff2072 	uxth	r2, r2
     cac:	e6ff3073 	uxth	r3, r3
     cb0:	e1520003 	cmp	r2, r3
     cb4:	1affffe4 	bne	c4c <stbtt__matchpair+0x134>
     cb8:	e5d4201a 	ldrb	r2, [r4, #26]
     cbc:	e5d4301b 	ldrb	r3, [r4, #27]
     cc0:	e0833402 	add	r3, r3, r2, lsl #8
     cc4:	e6ff3073 	uxth	r3, r3
     cc8:	e3530000 	cmp	r3, #0
     ccc:	0affffde 	beq	c4c <stbtt__matchpair+0x134>
     cd0:	e15b0000 	cmp	fp, r0
     cd4:	daffffa9 	ble	b80 <stbtt__matchpair+0x68>
     cd8:	e59d2004 	ldr	r2, [sp, #4]
     cdc:	e7d22000 	ldrb	r2, [r2, r0]
     ce0:	e3520020 	cmp	r2, #32
     ce4:	1affffa5 	bne	b80 <stbtt__matchpair+0x68>
     ce8:	e5d4101c 	ldrb	r1, [r4, #28]
     cec:	e2800001 	add	r0, r0, #1
     cf0:	e59dc004 	ldr	ip, [sp, #4]
     cf4:	e04b6000 	sub	r6, fp, r0
     cf8:	e5d4201d 	ldrb	r2, [r4, #29]
     cfc:	e08c0000 	add	r0, ip, r0
     d00:	e59dc000 	ldr	ip, [sp]
     d04:	e0822401 	add	r2, r2, r1, lsl #8
     d08:	e1a01006 	mov	r1, r6
     d0c:	e6fc2072 	uxtah	r2, ip, r2
     d10:	e08a2002 	add	r2, sl, r2
     d14:	ebffff15 	bl	970 <stbtt__CompareUTF8toUTF16_bigendian_prefix>
     d18:	e1560000 	cmp	r6, r0
     d1c:	1affff97 	bne	b80 <stbtt__matchpair+0x68>
     d20:	eaffffcb 	b	c54 <stbtt__matchpair+0x13c>
     d24:	e3a00000 	mov	r0, #0
     d28:	e28dd00c 	add	sp, sp, #12
     d2c:	e8bd8ff0 	pop	{r4, r5, r6, r7, r8, r9, sl, fp, pc}
     d30:	e04b0000 	sub	r0, fp, r0
     d34:	e16f0f10 	clz	r0, r0
     d38:	e1a002a0 	lsr	r0, r0, #5
     d3c:	eafffff9 	b	d28 <stbtt__matchpair+0x210>

00000d40 <fons__blurCols>:
     d40:	e3520000 	cmp	r2, #0
     d44:	e92d43f0 	push	{r4, r5, r6, r7, r8, r9, lr}
     d48:	e59de01c 	ldr	lr, [sp, #28]
     d4c:	d8bd83f0 	pople	{r4, r5, r6, r7, r8, r9, pc}
     d50:	e3a04000 	mov	r4, #0
     d54:	e2416001 	sub	r6, r1, #1
     d58:	e1a05004 	mov	r5, r4
     d5c:	e3510001 	cmp	r1, #1
     d60:	c0809006 	addgt	r9, r0, r6
     d64:	c1a08000 	movgt	r8, r0
     d68:	c3a07000 	movgt	r7, #0
     d6c:	da000007 	ble	d90 <fons__blurCols+0x50>
     d70:	e5f8c001 	ldrb	ip, [r8, #1]!
     d74:	e1590008 	cmp	r9, r8
     d78:	e067c38c 	rsb	ip, r7, ip, lsl #7
     d7c:	e00c0c9e 	mul	ip, lr, ip
     d80:	e087784c 	add	r7, r7, ip, asr #16
     d84:	e1a0c3c7 	asr	ip, r7, #7
     d88:	e5c8c000 	strb	ip, [r8]
     d8c:	1afffff7 	bne	d70 <fons__blurCols+0x30>
     d90:	e080c001 	add	ip, r0, r1
     d94:	e3510001 	cmp	r1, #1
     d98:	e54c5001 	strb	r5, [ip, #-1]
     d9c:	da000009 	ble	dc8 <fons__blurCols+0x88>
     da0:	e0808006 	add	r8, r0, r6
     da4:	e3a07000 	mov	r7, #0
     da8:	e578c001 	ldrb	ip, [r8, #-1]!
     dac:	e1580000 	cmp	r8, r0
     db0:	e067c38c 	rsb	ip, r7, ip, lsl #7
     db4:	e00c0c9e 	mul	ip, lr, ip
     db8:	e087784c 	add	r7, r7, ip, asr #16
     dbc:	e1a0c3c7 	asr	ip, r7, #7
     dc0:	e5c8c000 	strb	ip, [r8]
     dc4:	1afffff7 	bne	da8 <fons__blurCols+0x68>
     dc8:	e2844001 	add	r4, r4, #1
     dcc:	e6c05003 	strb	r5, [r0], r3
     dd0:	e1520004 	cmp	r2, r4
     dd4:	1affffe0 	bne	d5c <fons__blurCols+0x1c>
     dd8:	e8bd83f0 	pop	{r4, r5, r6, r7, r8, r9, pc}

00000ddc <fons__blurRows>:
     ddc:	e3510000 	cmp	r1, #0
     de0:	e92d41f0 	push	{r4, r5, r6, r7, r8, lr}
     de4:	e59dc018 	ldr	ip, [sp, #24]
     de8:	d8bd81f0 	pople	{r4, r5, r6, r7, r8, pc}
     dec:	e242e001 	sub	lr, r2, #1
     df0:	e0806001 	add	r6, r0, r1
     df4:	e0010392 	mul	r1, r2, r3
     df8:	e3a05000 	mov	r5, #0
     dfc:	e00e0e93 	mul	lr, r3, lr
     e00:	e24e4001 	sub	r4, lr, #1
     e04:	e04ee003 	sub	lr, lr, r3
     e08:	e0804004 	add	r4, r0, r4
     e0c:	e1530001 	cmp	r3, r1
     e10:	b1a07003 	movlt	r7, r3
     e14:	b3a08000 	movlt	r8, #0
     e18:	aa000008 	bge	e40 <fons__blurRows+0x64>
     e1c:	e7d02007 	ldrb	r2, [r0, r7]
     e20:	e0682382 	rsb	r2, r8, r2, lsl #7
     e24:	e002029c 	mul	r2, ip, r2
     e28:	e0888842 	add	r8, r8, r2, asr #16
     e2c:	e1a023c8 	asr	r2, r8, #7
     e30:	e7c02007 	strb	r2, [r0, r7]
     e34:	e0877003 	add	r7, r7, r3
     e38:	e1570001 	cmp	r7, r1
     e3c:	bafffff6 	blt	e1c <fons__blurRows+0x40>
     e40:	e35e0000 	cmp	lr, #0
     e44:	e5e45001 	strb	r5, [r4, #1]!
     e48:	ba000009 	blt	e74 <fons__blurRows+0x98>
     e4c:	e1a0700e 	mov	r7, lr
     e50:	e3a08000 	mov	r8, #0
     e54:	e7d02007 	ldrb	r2, [r0, r7]
     e58:	e0682382 	rsb	r2, r8, r2, lsl #7
     e5c:	e002029c 	mul	r2, ip, r2
     e60:	e0888842 	add	r8, r8, r2, asr #16
     e64:	e1a023c8 	asr	r2, r8, #7
     e68:	e7c02007 	strb	r2, [r0, r7]
     e6c:	e0577003 	subs	r7, r7, r3
     e70:	5afffff7 	bpl	e54 <fons__blurRows+0x78>
     e74:	e4c05001 	strb	r5, [r0], #1
     e78:	e1500006 	cmp	r0, r6
     e7c:	1affffe2 	bne	e0c <fons__blurRows+0x30>
     e80:	e8bd81f0 	pop	{r4, r5, r6, r7, r8, pc}

00000e84 <fons__flush>:
     e84:	e5902030 	ldr	r2, [r0, #48]	; 0x30
     e88:	e5903038 	ldr	r3, [r0, #56]	; 0x38
     e8c:	e92d4070 	push	{r4, r5, r6, lr}
     e90:	e1520003 	cmp	r2, r3
     e94:	e24dd008 	sub	sp, sp, #8
     e98:	e1a04000 	mov	r4, r0
     e9c:	aa000003 	bge	eb0 <fons__flush+0x2c>
     ea0:	e5902034 	ldr	r2, [r0, #52]	; 0x34
     ea4:	e590303c 	ldr	r3, [r0, #60]	; 0x3c
     ea8:	e1520003 	cmp	r2, r3
     eac:	ba000012 	blt	efc <fons__flush+0x78>
     eb0:	e2845a05 	add	r5, r4, #20480	; 0x5000
     eb4:	e5951050 	ldr	r1, [r5, #80]	; 0x50
     eb8:	e3510000 	cmp	r1, #0
     ebc:	da00000c 	ble	ef4 <fons__flush+0x70>
     ec0:	e594601c 	ldr	r6, [r4, #28]
     ec4:	e3560000 	cmp	r6, #0
     ec8:	0a000007 	beq	eec <fons__flush+0x68>
     ecc:	e2843901 	add	r3, r4, #16384	; 0x4000
     ed0:	e2842d81 	add	r2, r4, #8256	; 0x2040
     ed4:	e594000c 	ldr	r0, [r4, #12]
     ed8:	e2833050 	add	r3, r3, #80	; 0x50
     edc:	e58d1000 	str	r1, [sp]
     ee0:	e2822010 	add	r2, r2, #16
     ee4:	e2841050 	add	r1, r4, #80	; 0x50
     ee8:	e12fff36 	blx	r6
     eec:	e3a03000 	mov	r3, #0
     ef0:	e5853050 	str	r3, [r5, #80]	; 0x50
     ef4:	e28dd008 	add	sp, sp, #8
     ef8:	e8bd8070 	pop	{r4, r5, r6, pc}
     efc:	e5903018 	ldr	r3, [r0, #24]
     f00:	e3530000 	cmp	r3, #0
     f04:	0a000003 	beq	f18 <fons__flush+0x94>
     f08:	e590202c 	ldr	r2, [r0, #44]	; 0x2c
     f0c:	e2801030 	add	r1, r0, #48	; 0x30
     f10:	e590000c 	ldr	r0, [r0, #12]
     f14:	e12fff33 	blx	r3
     f18:	e5941000 	ldr	r1, [r4]
     f1c:	e3a03000 	mov	r3, #0
     f20:	e5942004 	ldr	r2, [r4, #4]
     f24:	e5843038 	str	r3, [r4, #56]	; 0x38
     f28:	e5841030 	str	r1, [r4, #48]	; 0x30
     f2c:	e5842034 	str	r2, [r4, #52]	; 0x34
     f30:	e584303c 	str	r3, [r4, #60]	; 0x3c
     f34:	eaffffdd 	b	eb0 <fons__flush+0x2c>

00000f38 <stbi__start_callbacks>:
     f38:	e92d4070 	push	{r4, r5, r6, lr}
     f3c:	e1a04000 	mov	r4, r0
     f40:	e1a0e002 	mov	lr, r2
     f44:	e2845028 	add	r5, r4, #40	; 0x28
     f48:	e8910007 	ldm	r1, {r0, r1, r2}
     f4c:	e2843010 	add	r3, r4, #16
     f50:	e3a0c080 	mov	ip, #128	; 0x80
     f54:	e8830007 	stm	r3, {r0, r1, r2}
     f58:	e3a03001 	mov	r3, #1
     f5c:	e584e01c 	str	lr, [r4, #28]
     f60:	e1a0000e 	mov	r0, lr
     f64:	e5843020 	str	r3, [r4, #32]
     f68:	e1a01005 	mov	r1, r5
     f6c:	e5943010 	ldr	r3, [r4, #16]
     f70:	e1a0200c 	mov	r2, ip
     f74:	e58450b0 	str	r5, [r4, #176]	; 0xb0
     f78:	e584c024 	str	ip, [r4, #36]	; 0x24
     f7c:	e12fff33 	blx	r3
     f80:	e3500000 	cmp	r0, #0
     f84:	05840020 	streq	r0, [r4, #32]
     f88:	02843029 	addeq	r3, r4, #41	; 0x29
     f8c:	10853000 	addne	r3, r5, r0
     f90:	058450a8 	streq	r5, [r4, #168]	; 0xa8
     f94:	05c40028 	strbeq	r0, [r4, #40]	; 0x28
     f98:	158450a8 	strne	r5, [r4, #168]	; 0xa8
     f9c:	e58430ac 	str	r3, [r4, #172]	; 0xac
     fa0:	e58430b4 	str	r3, [r4, #180]	; 0xb4
     fa4:	e8bd8070 	pop	{r4, r5, r6, pc}

00000fa8 <stbi__stdio_eof>:
     fa8:	e1d000bc 	ldrh	r0, [r0, #12]
     fac:	e7e002d0 	ubfx	r0, r0, #5, #1
     fb0:	e12fff1e 	bx	lr

00000fb4 <stbi__idct_block>:
     fb4:	e92d4ff0 	push	{r4, r5, r6, r7, r8, r9, sl, fp, lr}
     fb8:	e24ddf4d 	sub	sp, sp, #308	; 0x134
     fbc:	e30e3271 	movw	r3, #57969	; 0xe271
     fc0:	e34f3fff 	movt	r3, #65535	; 0xffff
     fc4:	e58d3024 	str	r3, [sp, #36]	; 0x24
     fc8:	e30f319b 	movw	r3, #61851	; 0xf19b
     fcc:	e34f3fff 	movt	r3, #65535	; 0xffff
     fd0:	e58d301c 	str	r3, [sp, #28]
     fd4:	e30f39c3 	movw	r3, #63939	; 0xf9c3
     fd8:	e242e002 	sub	lr, r2, #2
     fdc:	e282200e 	add	r2, r2, #14
     fe0:	e58d2014 	str	r2, [sp, #20]
     fe4:	e30e209e 	movw	r2, #57502	; 0xe09e
     fe8:	e34f2fff 	movt	r2, #65535	; 0xffff
     fec:	e58d2020 	str	r2, [sp, #32]
     ff0:	e1a02003 	mov	r2, r3
     ff4:	e28d3030 	add	r3, sp, #48	; 0x30
     ff8:	e34f2fff 	movt	r2, #65535	; 0xffff
     ffc:	e58d002c 	str	r0, [sp, #44]	; 0x2c
    1000:	e58d2028 	str	r2, [sp, #40]	; 0x28
    1004:	e58d1018 	str	r1, [sp, #24]
    1008:	e1de26f2 	ldrsh	r2, [lr, #98]	; 0x62
    100c:	e1deb2f2 	ldrsh	fp, [lr, #34]	; 0x22
    1010:	e1de01f2 	ldrsh	r0, [lr, #18]
    1014:	e1a01002 	mov	r1, r2
    1018:	e08bc001 	add	ip, fp, r1
    101c:	e58dc00c 	str	ip, [sp, #12]
    1020:	e3500000 	cmp	r0, #0
    1024:	e1dec3f2 	ldrsh	ip, [lr, #50]	; 0x32
    1028:	e1de55f2 	ldrsh	r5, [lr, #82]	; 0x52
    102c:	e58d1004 	str	r1, [sp, #4]
    1030:	e1de17f2 	ldrsh	r1, [lr, #114]	; 0x72
    1034:	e0858000 	add	r8, r5, r0
    1038:	e59d6020 	ldr	r6, [sp, #32]
    103c:	e58dc000 	str	ip, [sp]
    1040:	e081c00c 	add	ip, r1, ip
    1044:	e08ca008 	add	sl, ip, r8
    1048:	e1de24f2 	ldrsh	r2, [lr, #66]	; 0x42
    104c:	e00c0c96 	mul	ip, r6, ip
    1050:	e1fe90f2 	ldrsh	r9, [lr, #2]!
    1054:	e30162d0 	movw	r6, #4816	; 0x12d0
    1058:	e0817000 	add	r7, r1, r0
    105c:	e00a0a96 	mul	sl, r6, sl
    1060:	e58d1008 	str	r1, [sp, #8]
    1064:	e59d601c 	ldr	r6, [sp, #28]
    1068:	e59d1000 	ldr	r1, [sp]
    106c:	e58d9010 	str	r9, [sp, #16]
    1070:	e0854001 	add	r4, r5, r1
    1074:	e0821009 	add	r1, r2, r9
    1078:	e0499002 	sub	r9, r9, r2
    107c:	e027a796 	mla	r7, r6, r7, sl
    1080:	e3e06c29 	mvn	r6, #10496	; 0x2900
    1084:	e1a01601 	lsl	r1, r1, #12
    1088:	e1a09609 	lsl	r9, r9, #12
    108c:	e026a496 	mla	r6, r6, r4, sl
    1090:	1a000008 	bne	10b8 <stbi__idct_block+0x104>
    1094:	e35b0000 	cmp	fp, #0
    1098:	1a000006 	bne	10b8 <stbi__idct_block+0x104>
    109c:	e59d4000 	ldr	r4, [sp]
    10a0:	e3540000 	cmp	r4, #0
    10a4:	1a000003 	bne	10b8 <stbi__idct_block+0x104>
    10a8:	e3520000 	cmp	r2, #0
    10ac:	1a000001 	bne	10b8 <stbi__idct_block+0x104>
    10b0:	e3550000 	cmp	r5, #0
    10b4:	0a0000f1 	beq	1480 <stbi__idct_block+0x4cc>
    10b8:	e59d2028 	ldr	r2, [sp, #40]	; 0x28
    10bc:	e087a00c 	add	sl, r7, ip
    10c0:	e58da010 	str	sl, [sp, #16]
    10c4:	e086400c 	add	r4, r6, ip
    10c8:	e59da00c 	ldr	sl, [sp, #12]
    10cc:	e0080892 	mul	r8, r2, r8
    10d0:	e30028a9 	movw	r2, #2217	; 0x8a9
    10d4:	e0020a92 	mul	r2, r2, sl
    10d8:	e300ac3f 	movw	sl, #3135	; 0xc3f
    10dc:	e10b2a8b 	smlabb	fp, fp, sl, r2
    10e0:	e59dc024 	ldr	ip, [sp, #36]	; 0x24
    10e4:	e59da004 	ldr	sl, [sp, #4]
    10e8:	e0877008 	add	r7, r7, r8
    10ec:	e0866008 	add	r6, r6, r8
    10f0:	e30084c7 	movw	r8, #1223	; 0x4c7
    10f4:	e1022c8a 	smlabb	r2, sl, ip, r2
    10f8:	e301c805 	movw	ip, #6149	; 0x1805
    10fc:	e1007c80 	smlabb	r0, r0, ip, r7
    1100:	e302c0da 	movw	ip, #8410	; 0x20da
    1104:	e1066c85 	smlabb	r6, r5, ip, r6
    1108:	e59d5000 	ldr	r5, [sp]
    110c:	e303c12a 	movw	ip, #12586	; 0x312a
    1110:	e59da010 	ldr	sl, [sp, #16]
    1114:	e08b7001 	add	r7, fp, r1
    1118:	e041100b 	sub	r1, r1, fp
    111c:	e10c4c85 	smlabb	ip, r5, ip, r4
    1120:	e59d4008 	ldr	r4, [sp, #8]
    1124:	e0825009 	add	r5, r2, r9
    1128:	e0492002 	sub	r2, r9, r2
    112c:	e2877c02 	add	r7, r7, #512	; 0x200
    1130:	e2811c02 	add	r1, r1, #512	; 0x200
    1134:	e10aa884 	smlabb	sl, r4, r8, sl
    1138:	e2855c02 	add	r5, r5, #512	; 0x200
    113c:	e2822c02 	add	r2, r2, #512	; 0x200
    1140:	e0808007 	add	r8, r0, r7
    1144:	e08c4005 	add	r4, ip, r5
    1148:	e086b002 	add	fp, r6, r2
    114c:	e08a9001 	add	r9, sl, r1
    1150:	e0477000 	sub	r7, r7, r0
    1154:	e041a00a 	sub	sl, r1, sl
    1158:	e045c00c 	sub	ip, r5, ip
    115c:	e0426006 	sub	r6, r2, r6
    1160:	e1a08548 	asr	r8, r8, #10
    1164:	e1a07547 	asr	r7, r7, #10
    1168:	e1a09549 	asr	r9, r9, #10
    116c:	e1a0a54a 	asr	sl, sl, #10
    1170:	e1a04544 	asr	r4, r4, #10
    1174:	e1a0c54c 	asr	ip, ip, #10
    1178:	e1a0b54b 	asr	fp, fp, #10
    117c:	e1a06546 	asr	r6, r6, #10
    1180:	e5838000 	str	r8, [r3]
    1184:	e58370e0 	str	r7, [r3, #224]	; 0xe0
    1188:	e5839060 	str	r9, [r3, #96]	; 0x60
    118c:	e583a080 	str	sl, [r3, #128]	; 0x80
    1190:	e5834020 	str	r4, [r3, #32]
    1194:	e583c0c0 	str	ip, [r3, #192]	; 0xc0
    1198:	e583b040 	str	fp, [r3, #64]	; 0x40
    119c:	e58360a0 	str	r6, [r3, #160]	; 0xa0
    11a0:	e59d2014 	ldr	r2, [sp, #20]
    11a4:	e2833004 	add	r3, r3, #4
    11a8:	e152000e 	cmp	r2, lr
    11ac:	1affff95 	bne	1008 <stbi__idct_block+0x54>
    11b0:	e59d102c 	ldr	r1, [sp, #44]	; 0x2c
    11b4:	e28d9050 	add	r9, sp, #80	; 0x50
    11b8:	e30e3271 	movw	r3, #57969	; 0xe271
    11bc:	e30f219b 	movw	r2, #61851	; 0xf19b
    11c0:	e34f3fff 	movt	r3, #65535	; 0xffff
    11c4:	e34f2fff 	movt	r2, #65535	; 0xffff
    11c8:	e58d3000 	str	r3, [sp]
    11cc:	e30e309e 	movw	r3, #57502	; 0xe09e
    11d0:	e58d2004 	str	r2, [sp, #4]
    11d4:	e34f3fff 	movt	r3, #65535	; 0xffff
    11d8:	e30f29c3 	movw	r2, #63939	; 0xf9c3
    11dc:	e58d3008 	str	r3, [sp, #8]
    11e0:	e34f2fff 	movt	r2, #65535	; 0xffff
    11e4:	e58d200c 	str	r2, [sp, #12]
    11e8:	e5198004 	ldr	r8, [r9, #-4]
    11ec:	e301a805 	movw	sl, #6149	; 0x1805
    11f0:	e5193014 	ldr	r3, [r9, #-20]	; 0xffffffec
    11f4:	e519e014 	ldr	lr, [r9, #-20]	; 0xffffffec
    11f8:	e0882003 	add	r2, r8, r3
    11fc:	e519300c 	ldr	r3, [r9, #-12]
    1200:	e519c01c 	ldr	ip, [r9, #-28]	; 0xffffffe4
    1204:	e083b00e 	add	fp, r3, lr
    1208:	e59de00c 	ldr	lr, [sp, #12]
    120c:	e083500c 	add	r5, r3, ip
    1210:	e59d7004 	ldr	r7, [sp, #4]
    1214:	e0823005 	add	r3, r2, r5
    1218:	e088600c 	add	r6, r8, ip
    121c:	e005059e 	mul	r5, lr, r5
    1220:	e301e2d0 	movw	lr, #4816	; 0x12d0
    1224:	e003039e 	mul	r3, lr, r3
    1228:	e5194018 	ldr	r4, [r9, #-24]	; 0xffffffe8
    122c:	e519e008 	ldr	lr, [r9, #-8]
    1230:	e59d0008 	ldr	r0, [sp, #8]
    1234:	e0263697 	mla	r6, r7, r6, r3
    1238:	e084700e 	add	r7, r4, lr
    123c:	e0020290 	mul	r2, r0, r2
    1240:	e30008a9 	movw	r0, #2217	; 0x8a9
    1244:	e0070790 	mul	r7, r0, r7
    1248:	e3000c3f 	movw	r0, #3135	; 0xc3f
    124c:	e0247490 	mla	r4, r0, r4, r7
    1250:	e3e00c29 	mvn	r0, #10496	; 0x2900
    1254:	e0203b90 	mla	r0, r0, fp, r3
    1258:	e59db000 	ldr	fp, [sp]
    125c:	e5193010 	ldr	r3, [r9, #-16]
    1260:	e02e7e9b 	mla	lr, fp, lr, r7
    1264:	e086b005 	add	fp, r6, r5
    1268:	e0807002 	add	r7, r0, r2
    126c:	e0800005 	add	r0, r0, r5
    1270:	e5195020 	ldr	r5, [r9, #-32]	; 0xffffffe0
    1274:	e0862002 	add	r2, r6, r2
    1278:	e02cbc9a 	mla	ip, sl, ip, fp
    127c:	e0855003 	add	r5, r5, r3
    1280:	e519a020 	ldr	sl, [r9, #-32]	; 0xffffffe0
    1284:	e30260da 	movw	r6, #8410	; 0x20da
    1288:	e1a05605 	lsl	r5, r5, #12
    128c:	e084b005 	add	fp, r4, r5
    1290:	e0455004 	sub	r5, r5, r4
    1294:	e04a3003 	sub	r3, sl, r3
    1298:	e285a401 	add	sl, r5, #16777216	; 0x1000000
    129c:	e519500c 	ldr	r5, [r9, #-12]
    12a0:	e28bb401 	add	fp, fp, #16777216	; 0x1000000
    12a4:	e28bb801 	add	fp, fp, #65536	; 0x10000
    12a8:	e1a03603 	lsl	r3, r3, #12
    12ac:	e08c400b 	add	r4, ip, fp
    12b0:	e28aa801 	add	sl, sl, #65536	; 0x10000
    12b4:	e0200596 	mla	r0, r6, r5, r0
    12b8:	e5195014 	ldr	r5, [r9, #-20]	; 0xffffffec
    12bc:	e303612a 	movw	r6, #12586	; 0x312a
    12c0:	e1a048c4 	asr	r4, r4, #17
    12c4:	e35400ff 	cmp	r4, #255	; 0xff
    12c8:	e0277596 	mla	r7, r6, r5, r7
    12cc:	e08e6003 	add	r6, lr, r3
    12d0:	e043300e 	sub	r3, r3, lr
    12d4:	e2865401 	add	r5, r6, #16777216	; 0x1000000
    12d8:	e2833401 	add	r3, r3, #16777216	; 0x1000000
    12dc:	e300e4c7 	movw	lr, #1223	; 0x4c7
    12e0:	e2855801 	add	r5, r5, #65536	; 0x10000
    12e4:	e2833801 	add	r3, r3, #65536	; 0x10000
    12e8:	e022289e 	mla	r2, lr, r8, r2
    12ec:	9a000005 	bls	1308 <stbi__idct_block+0x354>
    12f0:	e3540000 	cmp	r4, #0
    12f4:	b3a04000 	movlt	r4, #0
    12f8:	ba000003 	blt	130c <stbi__idct_block+0x358>
    12fc:	e35400ff 	cmp	r4, #255	; 0xff
    1300:	c3a040ff 	movgt	r4, #255	; 0xff
    1304:	ca000000 	bgt	130c <stbi__idct_block+0x358>
    1308:	e6ef4074 	uxtb	r4, r4
    130c:	e04bb00c 	sub	fp, fp, ip
    1310:	e5c14000 	strb	r4, [r1]
    1314:	e1a0b8cb 	asr	fp, fp, #17
    1318:	e35b00ff 	cmp	fp, #255	; 0xff
    131c:	9a000005 	bls	1338 <stbi__idct_block+0x384>
    1320:	e35b0000 	cmp	fp, #0
    1324:	b3a0b000 	movlt	fp, #0
    1328:	ba000003 	blt	133c <stbi__idct_block+0x388>
    132c:	e35b00ff 	cmp	fp, #255	; 0xff
    1330:	c3a0b0ff 	movgt	fp, #255	; 0xff
    1334:	ca000000 	bgt	133c <stbi__idct_block+0x388>
    1338:	e6efb07b 	uxtb	fp, fp
    133c:	e087c005 	add	ip, r7, r5
    1340:	e5c1b007 	strb	fp, [r1, #7]
    1344:	e1a0c8cc 	asr	ip, ip, #17
    1348:	e35c00ff 	cmp	ip, #255	; 0xff
    134c:	9a000005 	bls	1368 <stbi__idct_block+0x3b4>
    1350:	e35c0000 	cmp	ip, #0
    1354:	b3a0c000 	movlt	ip, #0
    1358:	ba000003 	blt	136c <stbi__idct_block+0x3b8>
    135c:	e35c00ff 	cmp	ip, #255	; 0xff
    1360:	c3a0c0ff 	movgt	ip, #255	; 0xff
    1364:	ca000000 	bgt	136c <stbi__idct_block+0x3b8>
    1368:	e6efc07c 	uxtb	ip, ip
    136c:	e0457007 	sub	r7, r5, r7
    1370:	e5c1c001 	strb	ip, [r1, #1]
    1374:	e1a078c7 	asr	r7, r7, #17
    1378:	e35700ff 	cmp	r7, #255	; 0xff
    137c:	9a000005 	bls	1398 <stbi__idct_block+0x3e4>
    1380:	e3570000 	cmp	r7, #0
    1384:	b3a07000 	movlt	r7, #0
    1388:	ba000003 	blt	139c <stbi__idct_block+0x3e8>
    138c:	e35700ff 	cmp	r7, #255	; 0xff
    1390:	c3a070ff 	movgt	r7, #255	; 0xff
    1394:	ca000000 	bgt	139c <stbi__idct_block+0x3e8>
    1398:	e6ef7077 	uxtb	r7, r7
    139c:	e080c003 	add	ip, r0, r3
    13a0:	e5c17006 	strb	r7, [r1, #6]
    13a4:	e1a0c8cc 	asr	ip, ip, #17
    13a8:	e35c00ff 	cmp	ip, #255	; 0xff
    13ac:	9a000005 	bls	13c8 <stbi__idct_block+0x414>
    13b0:	e35c0000 	cmp	ip, #0
    13b4:	b3a0c000 	movlt	ip, #0
    13b8:	ba000003 	blt	13cc <stbi__idct_block+0x418>
    13bc:	e35c00ff 	cmp	ip, #255	; 0xff
    13c0:	c3a0c0ff 	movgt	ip, #255	; 0xff
    13c4:	ca000000 	bgt	13cc <stbi__idct_block+0x418>
    13c8:	e6efc07c 	uxtb	ip, ip
    13cc:	e0433000 	sub	r3, r3, r0
    13d0:	e5c1c002 	strb	ip, [r1, #2]
    13d4:	e1a038c3 	asr	r3, r3, #17
    13d8:	e35300ff 	cmp	r3, #255	; 0xff
    13dc:	9a000005 	bls	13f8 <stbi__idct_block+0x444>
    13e0:	e3530000 	cmp	r3, #0
    13e4:	b3a03000 	movlt	r3, #0
    13e8:	ba000003 	blt	13fc <stbi__idct_block+0x448>
    13ec:	e35300ff 	cmp	r3, #255	; 0xff
    13f0:	c3a030ff 	movgt	r3, #255	; 0xff
    13f4:	ca000000 	bgt	13fc <stbi__idct_block+0x448>
    13f8:	e6ef3073 	uxtb	r3, r3
    13fc:	e082000a 	add	r0, r2, sl
    1400:	e5c13005 	strb	r3, [r1, #5]
    1404:	e1a038c0 	asr	r3, r0, #17
    1408:	e35300ff 	cmp	r3, #255	; 0xff
    140c:	9a000005 	bls	1428 <stbi__idct_block+0x474>
    1410:	e3530000 	cmp	r3, #0
    1414:	b3a03000 	movlt	r3, #0
    1418:	ba000003 	blt	142c <stbi__idct_block+0x478>
    141c:	e35300ff 	cmp	r3, #255	; 0xff
    1420:	c3a030ff 	movgt	r3, #255	; 0xff
    1424:	ca000000 	bgt	142c <stbi__idct_block+0x478>
    1428:	e6ef3073 	uxtb	r3, r3
    142c:	e04a2002 	sub	r2, sl, r2
    1430:	e5c13003 	strb	r3, [r1, #3]
    1434:	e1a028c2 	asr	r2, r2, #17
    1438:	e35200ff 	cmp	r2, #255	; 0xff
    143c:	9a000005 	bls	1458 <stbi__idct_block+0x4a4>
    1440:	e3520000 	cmp	r2, #0
    1444:	b3a02000 	movlt	r2, #0
    1448:	ba000003 	blt	145c <stbi__idct_block+0x4a8>
    144c:	e35200ff 	cmp	r2, #255	; 0xff
    1450:	c3a020ff 	movgt	r2, #255	; 0xff
    1454:	ca000000 	bgt	145c <stbi__idct_block+0x4a8>
    1458:	e6ef2072 	uxtb	r2, r2
    145c:	e28d3e15 	add	r3, sp, #336	; 0x150
    1460:	e2899020 	add	r9, r9, #32
    1464:	e1530009 	cmp	r3, r9
    1468:	e59d3018 	ldr	r3, [sp, #24]
    146c:	e5c12004 	strb	r2, [r1, #4]
    1470:	e0811003 	add	r1, r1, r3
    1474:	1affff5b 	bne	11e8 <stbi__idct_block+0x234>
    1478:	e28ddf4d 	add	sp, sp, #308	; 0x134
    147c:	e8bd8ff0 	pop	{r4, r5, r6, r7, r8, r9, sl, fp, pc}
    1480:	e59da004 	ldr	sl, [sp, #4]
    1484:	e35a0000 	cmp	sl, #0
    1488:	1affff0a 	bne	10b8 <stbi__idct_block+0x104>
    148c:	e59d2008 	ldr	r2, [sp, #8]
    1490:	e3520000 	cmp	r2, #0
    1494:	e59d2010 	ldr	r2, [sp, #16]
    1498:	e1a02102 	lsl	r2, r2, #2
    149c:	1affff05 	bne	10b8 <stbi__idct_block+0x104>
    14a0:	e58320e0 	str	r2, [r3, #224]	; 0xe0
    14a4:	e58320c0 	str	r2, [r3, #192]	; 0xc0
    14a8:	e58320a0 	str	r2, [r3, #160]	; 0xa0
    14ac:	e5832080 	str	r2, [r3, #128]	; 0x80
    14b0:	e5832060 	str	r2, [r3, #96]	; 0x60
    14b4:	e5832040 	str	r2, [r3, #64]	; 0x40
    14b8:	e5832020 	str	r2, [r3, #32]
    14bc:	e5832000 	str	r2, [r3]
    14c0:	eaffff36 	b	11a0 <stbi__idct_block+0x1ec>

000014c4 <resample_row_1>:
    14c4:	e1a00001 	mov	r0, r1
    14c8:	e12fff1e 	bx	lr

000014cc <stbi__resample_row_v_2>:
    14cc:	e3530000 	cmp	r3, #0
    14d0:	d12fff1e 	bxle	lr
    14d4:	e2411001 	sub	r1, r1, #1
    14d8:	e2422001 	sub	r2, r2, #1
    14dc:	e92d4030 	push	{r4, r5, lr}
    14e0:	e0813003 	add	r3, r1, r3
    14e4:	e240e001 	sub	lr, r0, #1
    14e8:	e3a05003 	mov	r5, #3
    14ec:	e5f1c001 	ldrb	ip, [r1, #1]!
    14f0:	e5f24001 	ldrb	r4, [r2, #1]!
    14f4:	e1530001 	cmp	r3, r1
    14f8:	e10c4c85 	smlabb	ip, r5, ip, r4
    14fc:	e28cc002 	add	ip, ip, #2
    1500:	e1a0c14c 	asr	ip, ip, #2
    1504:	e5eec001 	strb	ip, [lr, #1]!
    1508:	1afffff7 	bne	14ec <stbi__resample_row_v_2+0x20>
    150c:	e8bd8030 	pop	{r4, r5, pc}

00001510 <stbi__resample_row_generic>:
    1510:	e92d4010 	push	{r4, lr}
    1514:	e2534000 	subs	r4, r3, #0
    1518:	e59de008 	ldr	lr, [sp, #8]
    151c:	d8bd8010 	pople	{r4, pc}
    1520:	e0814004 	add	r4, r1, r4
    1524:	e1a03000 	mov	r3, r0
    1528:	e35e0000 	cmp	lr, #0
    152c:	e083c00e 	add	ip, r3, lr
    1530:	da000003 	ble	1544 <stbi__resample_row_generic+0x34>
    1534:	e5d12000 	ldrb	r2, [r1]
    1538:	e4c32001 	strb	r2, [r3], #1
    153c:	e153000c 	cmp	r3, ip
    1540:	1afffffb 	bne	1534 <stbi__resample_row_generic+0x24>
    1544:	e2811001 	add	r1, r1, #1
    1548:	e1a0300c 	mov	r3, ip
    154c:	e1510004 	cmp	r1, r4
    1550:	1afffff4 	bne	1528 <stbi__resample_row_generic+0x18>
    1554:	e8bd8010 	pop	{r4, pc}

00001558 <stbi__YCbCr_to_RGB_row>:
    1558:	e92d4ff0 	push	{r4, r5, r6, r7, r8, r9, sl, fp, lr}
    155c:	e24dd00c 	sub	sp, sp, #12
    1560:	e59dc030 	ldr	ip, [sp, #48]	; 0x30
    1564:	e35c0000 	cmp	ip, #0
    1568:	da000037 	ble	164c <stbi__YCbCr_to_RGB_row+0xf4>
    156c:	e3a09c6f 	mov	r9, #28416	; 0x6f00
    1570:	e3a08c93 	mov	r8, #37632	; 0x9300
    1574:	e3a07c7e 	mov	r7, #32256	; 0x7e00
    1578:	e3a06000 	mov	r6, #0
    157c:	e3a05c5a 	mov	r5, #23040	; 0x5a00
    1580:	e2433001 	sub	r3, r3, #1
    1584:	e2422001 	sub	r2, r2, #1
    1588:	e3409016 	movt	r9, #22
    158c:	e34f8ff4 	movt	r8, #65524	; 0xfff4
    1590:	e34f7ffa 	movt	r7, #65530	; 0xfffa
    1594:	e34f6fff 	movt	r6, #65535	; 0xffff
    1598:	e340501c 	movt	r5, #28
    159c:	e2411001 	sub	r1, r1, #1
    15a0:	e081c00c 	add	ip, r1, ip
    15a4:	e58dc004 	str	ip, [sp, #4]
    15a8:	e5f14001 	ldrb	r4, [r1, #1]!
    15ac:	e5f3a001 	ldrb	sl, [r3, #1]!
    15b0:	e5f2c001 	ldrb	ip, [r2, #1]!
    15b4:	e1a04a04 	lsl	r4, r4, #20
    15b8:	e24aa080 	sub	sl, sl, #128	; 0x80
    15bc:	e2844702 	add	r4, r4, #524288	; 0x80000
    15c0:	e24cc080 	sub	ip, ip, #128	; 0x80
    15c4:	e02b4a99 	mla	fp, r9, sl, r4
    15c8:	e00e0c97 	mul	lr, r7, ip
    15cc:	e02a4a98 	mla	sl, r8, sl, r4
    15d0:	e02c4c95 	mla	ip, r5, ip, r4
    15d4:	e00ee006 	and	lr, lr, r6
    15d8:	e1a04a4b 	asr	r4, fp, #20
    15dc:	e08ae00e 	add	lr, sl, lr
    15e0:	e35400ff 	cmp	r4, #255	; 0xff
    15e4:	e1e0b004 	mvn	fp, r4
    15e8:	e1a0ea4e 	asr	lr, lr, #20
    15ec:	e1a0bfcb 	asr	fp, fp, #31
    15f0:	e6ef4074 	uxtb	r4, r4
    15f4:	e1a0ca4c 	asr	ip, ip, #20
    15f8:	86ef407b 	uxtbhi	r4, fp
    15fc:	e1e0b00e 	mvn	fp, lr
    1600:	e1e0a00c 	mvn	sl, ip
    1604:	e1a0bfcb 	asr	fp, fp, #31
    1608:	e35e00ff 	cmp	lr, #255	; 0xff
    160c:	e1a0afca 	asr	sl, sl, #31
    1610:	e6efe07e 	uxtb	lr, lr
    1614:	86efe07b 	uxtbhi	lr, fp
    1618:	e35c00ff 	cmp	ip, #255	; 0xff
    161c:	e6efc07c 	uxtb	ip, ip
    1620:	86efc07a 	uxtbhi	ip, sl
    1624:	e59da004 	ldr	sl, [sp, #4]
    1628:	e5c0c002 	strb	ip, [r0, #2]
    162c:	e3e0c000 	mvn	ip, #0
    1630:	e151000a 	cmp	r1, sl
    1634:	e5c0c003 	strb	ip, [r0, #3]
    1638:	e59dc034 	ldr	ip, [sp, #52]	; 0x34
    163c:	e5c04000 	strb	r4, [r0]
    1640:	e5c0e001 	strb	lr, [r0, #1]
    1644:	e080000c 	add	r0, r0, ip
    1648:	1affffd6 	bne	15a8 <stbi__YCbCr_to_RGB_row+0x50>
    164c:	e28dd00c 	add	sp, sp, #12
    1650:	e8bd8ff0 	pop	{r4, r5, r6, r7, r8, r9, sl, fp, pc}

00001654 <stbi__bitreverse16>:
    1654:	e3052555 	movw	r2, #21845	; 0x5555
    1658:	e30a3aaa 	movw	r3, #43690	; 0xaaaa
    165c:	e00220c0 	and	r2, r2, r0, asr #1
    1660:	e0033080 	and	r3, r3, r0, lsl #1
    1664:	e1822003 	orr	r2, r2, r3
    1668:	e30ccccc 	movw	ip, #52428	; 0xcccc
    166c:	e3030333 	movw	r0, #13107	; 0x3333
    1670:	e30f10f0 	movw	r1, #61680	; 0xf0f0
    1674:	e0000122 	and	r0, r0, r2, lsr #2
    1678:	e00c2102 	and	r2, ip, r2, lsl #2
    167c:	e1800002 	orr	r0, r0, r2
    1680:	e3003f0f 	movw	r3, #3855	; 0xf0f
    1684:	e0033220 	and	r3, r3, r0, lsr #4
    1688:	e0010200 	and	r0, r1, r0, lsl #4
    168c:	e1833000 	orr	r3, r3, r0
    1690:	e1a00403 	lsl	r0, r3, #8
    1694:	e6ff0070 	uxth	r0, r0
    1698:	e1800423 	orr	r0, r0, r3, lsr #8
    169c:	e12fff1e 	bx	lr

000016a0 <stbi__high_bit>:
    16a0:	e2503000 	subs	r3, r0, #0
    16a4:	0a00000f 	beq	16e8 <stbi__high_bit+0x48>
    16a8:	e3530801 	cmp	r3, #65536	; 0x10000
    16ac:	21a03823 	lsrcs	r3, r3, #16
    16b0:	23a00010 	movcs	r0, #16
    16b4:	33a00000 	movcc	r0, #0
    16b8:	e35300ff 	cmp	r3, #255	; 0xff
    16bc:	81a03423 	lsrhi	r3, r3, #8
    16c0:	82800008 	addhi	r0, r0, #8
    16c4:	e353000f 	cmp	r3, #15
    16c8:	81a03223 	lsrhi	r3, r3, #4
    16cc:	82800004 	addhi	r0, r0, #4
    16d0:	e3530003 	cmp	r3, #3
    16d4:	81a03123 	lsrhi	r3, r3, #2
    16d8:	82800002 	addhi	r0, r0, #2
    16dc:	e3530001 	cmp	r3, #1
    16e0:	12800001 	addne	r0, r0, #1
    16e4:	e12fff1e 	bx	lr
    16e8:	e3e00000 	mvn	r0, #0
    16ec:	e12fff1e 	bx	lr

000016f0 <stbi__out_gif_code>:
    16f0:	e92d4070 	push	{r4, r5, r6, lr}
    16f4:	e0805101 	add	r5, r0, r1, lsl #2
    16f8:	e3003828 	movw	r3, #2088	; 0x828
    16fc:	e1a04000 	mov	r4, r0
    1700:	e19510f3 	ldrsh	r1, [r5, r3]
    1704:	e3510000 	cmp	r1, #0
    1708:	aa00002a 	bge	17b8 <stbi__out_gif_code+0xc8>
    170c:	e2843901 	add	r3, r4, #16384	; 0x4000
    1710:	e593184c 	ldr	r1, [r3, #2124]	; 0x84c
    1714:	e5932844 	ldr	r2, [r3, #2116]	; 0x844
    1718:	e1510002 	cmp	r1, r2
    171c:	a8bd8070 	popge	{r4, r5, r6, pc}
    1720:	e5d5e82b 	ldrb	lr, [r5, #2091]	; 0x82b
    1724:	e593c828 	ldr	ip, [r3, #2088]	; 0x828
    1728:	e5932848 	ldr	r2, [r3, #2120]	; 0x848
    172c:	e08c010e 	add	r0, ip, lr, lsl #2
    1730:	e1d050d3 	ldrsb	r5, [r0, #3]
    1734:	e3550000 	cmp	r5, #0
    1738:	ba000021 	blt	17c4 <stbi__out_gif_code+0xd4>
    173c:	e5931840 	ldr	r1, [r3, #2112]	; 0x840
    1740:	e2822004 	add	r2, r2, #4
    1744:	e5832848 	str	r2, [r3, #2120]	; 0x848
    1748:	e1520001 	cmp	r2, r1
    174c:	b8bd8070 	poplt	{r4, r5, r6, pc}
    1750:	e593284c 	ldr	r2, [r3, #2124]	; 0x84c
    1754:	e5931830 	ldr	r1, [r3, #2096]	; 0x830
    1758:	e593c844 	ldr	ip, [r3, #2116]	; 0x844
    175c:	e0822001 	add	r2, r2, r1
    1760:	e5931838 	ldr	r1, [r3, #2104]	; 0x838
    1764:	e152000c 	cmp	r2, ip
    1768:	e583284c 	str	r2, [r3, #2124]	; 0x84c
    176c:	e5831848 	str	r1, [r3, #2120]	; 0x848
    1770:	b8bd8070 	poplt	{r4, r5, r6, pc}
    1774:	e593282c 	ldr	r2, [r3, #2092]	; 0x82c
    1778:	e3520000 	cmp	r2, #0
    177c:	d8bd8070 	pople	{r4, r5, r6, pc}
    1780:	e5934850 	ldr	r4, [r3, #2128]	; 0x850
    1784:	e593e83c 	ldr	lr, [r3, #2108]	; 0x83c
    1788:	ea000001 	b	1794 <stbi__out_gif_code+0xa4>
    178c:	e3520000 	cmp	r2, #0
    1790:	0a000004 	beq	17a8 <stbi__out_gif_code+0xb8>
    1794:	e1a00214 	lsl	r0, r4, r2
    1798:	e2422001 	sub	r2, r2, #1
    179c:	e08e10c0 	add	r1, lr, r0, asr #1
    17a0:	e151000c 	cmp	r1, ip
    17a4:	aafffff8 	bge	178c <stbi__out_gif_code+0x9c>
    17a8:	e5830830 	str	r0, [r3, #2096]	; 0x830
    17ac:	e583184c 	str	r1, [r3, #2124]	; 0x84c
    17b0:	e583282c 	str	r2, [r3, #2092]	; 0x82c
    17b4:	e8bd8070 	pop	{r4, r5, r6, pc}
    17b8:	e6ff1071 	uxth	r1, r1
    17bc:	ebffffcb 	bl	16f0 <stbi__out_gif_code>
    17c0:	eaffffd1 	b	170c <stbi__out_gif_code+0x1c>
    17c4:	e5944008 	ldr	r4, [r4, #8]
    17c8:	e0812002 	add	r2, r1, r2
    17cc:	e5d05002 	ldrb	r5, [r0, #2]
    17d0:	e0841002 	add	r1, r4, r2
    17d4:	e7c45002 	strb	r5, [r4, r2]
    17d8:	e5d02001 	ldrb	r2, [r0, #1]
    17dc:	e5c12001 	strb	r2, [r1, #1]
    17e0:	e7dc210e 	ldrb	r2, [ip, lr, lsl #2]
    17e4:	e5c12002 	strb	r2, [r1, #2]
    17e8:	e5d02003 	ldrb	r2, [r0, #3]
    17ec:	e5c12003 	strb	r2, [r1, #3]
    17f0:	e5932848 	ldr	r2, [r3, #2120]	; 0x848
    17f4:	eaffffd0 	b	173c <stbi__out_gif_code+0x4c>

000017f8 <nvg__hue>:
    17f8:	eeb50ac0 	vcmpe.f32	s0, #0.0
    17fc:	eef1fa10 	vmrs	APSR_nzcv, fpscr
    1800:	4ef77a00 	vmovmi.f32	s15, #112	; 0x3f800000  1.0
    1804:	4e300a27 	vaddmi.f32	s0, s0, s15
    1808:	eef77a00 	vmov.f32	s15, #112	; 0x3f800000  1.0
    180c:	eeb40ae7 	vcmpe.f32	s0, s15
    1810:	eef1fa10 	vmrs	APSR_nzcv, fpscr
    1814:	ce300a67 	vsubgt.f32	s0, s0, s15
    1818:	eddf7a1b 	vldr	s15, [pc, #108]	; 188c <nvg__hue+0x94>
    181c:	eeb40ae7 	vcmpe.f32	s0, s15
    1820:	eef1fa10 	vmrs	APSR_nzcv, fpscr
    1824:	4a000010 	bmi	186c <nvg__hue+0x74>
    1828:	eef67a00 	vmov.f32	s15, #96	; 0x3f000000  0.5
    182c:	eeb40ae7 	vcmpe.f32	s0, s15
    1830:	eef1fa10 	vmrs	APSR_nzcv, fpscr
    1834:	4a00000a 	bmi	1864 <nvg__hue+0x6c>
    1838:	eddf7a14 	vldr	s15, [pc, #80]	; 1890 <nvg__hue+0x98>
    183c:	eeb40ae7 	vcmpe.f32	s0, s15
    1840:	eef1fa10 	vmrs	APSR_nzcv, fpscr
    1844:	5a00000e 	bpl	1884 <nvg__hue+0x8c>
    1848:	ee311a60 	vsub.f32	s2, s2, s1
    184c:	ee370ac0 	vsub.f32	s0, s15, s0
    1850:	ee210a00 	vmul.f32	s0, s2, s0
    1854:	eef17a08 	vmov.f32	s15, #24	; 0x40c00000  6.0
    1858:	ee400a27 	vmla.f32	s1, s0, s15
    185c:	eeb00a60 	vmov.f32	s0, s1
    1860:	e12fff1e 	bx	lr
    1864:	eeb00a41 	vmov.f32	s0, s2
    1868:	e12fff1e 	bx	lr
    186c:	ee311a60 	vsub.f32	s2, s2, s1
    1870:	ee210a00 	vmul.f32	s0, s2, s0
    1874:	eef17a08 	vmov.f32	s15, #24	; 0x40c00000  6.0
    1878:	ee400a27 	vmla.f32	s1, s0, s15
    187c:	eeb00a60 	vmov.f32	s0, s1
    1880:	e12fff1e 	bx	lr
    1884:	eeb00a60 	vmov.f32	s0, s1
    1888:	e12fff1e 	bx	lr
    188c:	3e2aaaab 	.word	0x3e2aaaab
    1890:	3f2aaaab 	.word	0x3f2aaaab

00001894 <nvg__polyReverse>:
    1894:	e92d47f0 	push	{r4, r5, r6, r7, r8, r9, sl, lr}
    1898:	e2417001 	sub	r7, r1, #1
    189c:	e3570000 	cmp	r7, #0
    18a0:	e24dd020 	sub	sp, sp, #32
    18a4:	da000019 	ble	1910 <nvg__polyReverse+0x7c>
    18a8:	e1a08000 	mov	r8, r0
    18ac:	e3a09000 	mov	r9, #0
    18b0:	e1a06289 	lsl	r6, r9, #5
    18b4:	e1a0e00d 	mov	lr, sp
    18b8:	e0884006 	add	r4, r8, r6
    18bc:	e1a05287 	lsl	r5, r7, #5
    18c0:	e088c005 	add	ip, r8, r5
    18c4:	e1a0a00d 	mov	sl, sp
    18c8:	e1a06004 	mov	r6, r4
    18cc:	e2899001 	add	r9, r9, #1
    18d0:	e8b4000f 	ldm	r4!, {r0, r1, r2, r3}
    18d4:	e1a0500c 	mov	r5, ip
    18d8:	e2477001 	sub	r7, r7, #1
    18dc:	e1590007 	cmp	r9, r7
    18e0:	e8ae000f 	stmia	lr!, {r0, r1, r2, r3}
    18e4:	e894000f 	ldm	r4, {r0, r1, r2, r3}
    18e8:	e88e000f 	stm	lr, {r0, r1, r2, r3}
    18ec:	e8bc000f 	ldm	ip!, {r0, r1, r2, r3}
    18f0:	e8a6000f 	stmia	r6!, {r0, r1, r2, r3}
    18f4:	e89c000f 	ldm	ip, {r0, r1, r2, r3}
    18f8:	e884000f 	stm	r4, {r0, r1, r2, r3}
    18fc:	e8ba000f 	ldm	sl!, {r0, r1, r2, r3}
    1900:	e8a5000f 	stmia	r5!, {r0, r1, r2, r3}
    1904:	e89e000f 	ldm	lr, {r0, r1, r2, r3}
    1908:	e88c000f 	stm	ip, {r0, r1, r2, r3}
    190c:	baffffe7 	blt	18b0 <nvg__polyReverse+0x1c>
    1910:	e28dd020 	add	sp, sp, #32
    1914:	e8bd87f0 	pop	{r4, r5, r6, r7, r8, r9, sl, pc}

00001918 <nvg__flushTextTexture>:
    1918:	e2801a02 	add	r1, r0, #8192	; 0x2000
    191c:	e92d4070 	push	{r4, r5, r6, lr}
    1920:	e24dd010 	sub	sp, sp, #16
    1924:	e591c264 	ldr	ip, [r1, #612]	; 0x264
    1928:	e59c2030 	ldr	r2, [ip, #48]	; 0x30
    192c:	e59c4038 	ldr	r4, [ip, #56]	; 0x38
    1930:	e1520004 	cmp	r2, r4
    1934:	aa000019 	bge	19a0 <nvg__flushTextTexture+0x88>
    1938:	e59c3034 	ldr	r3, [ip, #52]	; 0x34
    193c:	e59c503c 	ldr	r5, [ip, #60]	; 0x3c
    1940:	e1530005 	cmp	r3, r5
    1944:	aa000015 	bge	19a0 <nvg__flushTextTexture+0x88>
    1948:	e5911278 	ldr	r1, [r1, #632]	; 0x278
    194c:	e3a0e000 	mov	lr, #0
    1950:	e59c6000 	ldr	r6, [ip]
    1954:	e2811e89 	add	r1, r1, #2192	; 0x890
    1958:	e58ce038 	str	lr, [ip, #56]	; 0x38
    195c:	e281100a 	add	r1, r1, #10
    1960:	e58ce03c 	str	lr, [ip, #60]	; 0x3c
    1964:	e59ce004 	ldr	lr, [ip, #4]
    1968:	e7901101 	ldr	r1, [r0, r1, lsl #2]
    196c:	e58c6030 	str	r6, [ip, #48]	; 0x30
    1970:	e3510000 	cmp	r1, #0
    1974:	e58ce034 	str	lr, [ip, #52]	; 0x34
    1978:	0a000008 	beq	19a0 <nvg__flushTextTexture+0x88>
    197c:	e59c602c 	ldr	r6, [ip, #44]	; 0x2c
    1980:	e1a0e000 	mov	lr, r0
    1984:	e044c002 	sub	ip, r4, r2
    1988:	e5900000 	ldr	r0, [r0]
    198c:	e0455003 	sub	r5, r5, r3
    1990:	e58dc000 	str	ip, [sp]
    1994:	e98d0060 	stmib	sp, {r5, r6}
    1998:	e59e4014 	ldr	r4, [lr, #20]
    199c:	e12fff34 	blx	r4
    19a0:	e28dd010 	add	sp, sp, #16
    19a4:	e8bd8070 	pop	{r4, r5, r6, pc}

000019a8 <nvg__renderText>:
    19a8:	e92d43f0 	push	{r4, r5, r6, r7, r8, r9, lr}
    19ac:	e2805a02 	add	r5, r0, #8192	; 0x2000
    19b0:	e3a04e11 	mov	r4, #272	; 0x110
    19b4:	e24dd06c 	sub	sp, sp, #108	; 0x6c
    19b8:	e595324c 	ldr	r3, [r5, #588]	; 0x24c
    19bc:	e1a07000 	mov	r7, r0
    19c0:	e1a08002 	mov	r8, r2
    19c4:	e1a09001 	mov	r9, r1
    19c8:	e2433001 	sub	r3, r3, #1
    19cc:	e28d001c 	add	r0, sp, #28
    19d0:	e3a0204c 	mov	r2, #76	; 0x4c
    19d4:	e0040394 	mul	r4, r4, r3
    19d8:	e0876004 	add	r6, r7, r4
    19dc:	e2844f49 	add	r4, r4, #292	; 0x124
    19e0:	e2861060 	add	r1, r6, #96	; 0x60
    19e4:	e0874004 	add	r4, r7, r4
    19e8:	ebfffffe 	bl	0 <memcpy>
    19ec:	edd66a42 	vldr	s13, [r6, #264]	; 0x108
    19f0:	e5953278 	ldr	r3, [r5, #632]	; 0x278
    19f4:	e2862054 	add	r2, r6, #84	; 0x54
    19f8:	e58d900c 	str	r9, [sp, #12]
    19fc:	e286604c 	add	r6, r6, #76	; 0x4c
    1a00:	ed9d7a14 	vldr	s14, [sp, #80]	; 0x50
    1a04:	e2833e89 	add	r3, r3, #2192	; 0x890
    1a08:	e283300a 	add	r3, r3, #10
    1a0c:	eddd7a18 	vldr	s15, [sp, #96]	; 0x60
    1a10:	ee277a26 	vmul.f32	s14, s14, s13
    1a14:	ed950a97 	vldr	s0, [r5, #604]	; 0x25c
    1a18:	e58d8010 	str	r8, [sp, #16]
    1a1c:	e58d4008 	str	r4, [sp, #8]
    1a20:	e8920003 	ldm	r2, {r0, r1}
    1a24:	e797e103 	ldr	lr, [r7, r3, lsl #2]
    1a28:	e597c000 	ldr	ip, [r7]
    1a2c:	e88d0003 	stm	sp, {r0, r1}
    1a30:	e28d101c 	add	r1, sp, #28
    1a34:	e896000c 	ldm	r6, {r2, r3}
    1a38:	e1a0000c 	mov	r0, ip
    1a3c:	e58de064 	str	lr, [sp, #100]	; 0x64
    1a40:	e5974030 	ldr	r4, [r7, #48]	; 0x30
    1a44:	ee677aa6 	vmul.f32	s15, s15, s13
    1a48:	ed8d7a14 	vstr	s14, [sp, #80]	; 0x50
    1a4c:	edcd7a18 	vstr	s15, [sp, #96]	; 0x60
    1a50:	e12fff34 	blx	r4
    1a54:	e3052556 	movw	r2, #21846	; 0x5556
    1a58:	e3452555 	movt	r2, #21845	; 0x5555
    1a5c:	e5951288 	ldr	r1, [r5, #648]	; 0x288
    1a60:	e595027c 	ldr	r0, [r5, #636]	; 0x27c
    1a64:	e0c32298 	smull	r2, r3, r8, r2
    1a68:	e2800001 	add	r0, r0, #1
    1a6c:	e585027c 	str	r0, [r5, #636]	; 0x27c
    1a70:	e0438fc8 	sub	r8, r3, r8, asr #31
    1a74:	e0818008 	add	r8, r1, r8
    1a78:	e5858288 	str	r8, [r5, #648]	; 0x288
    1a7c:	e28dd06c 	add	sp, sp, #108	; 0x6c
    1a80:	e8bd83f0 	pop	{r4, r5, r6, r7, r8, r9, pc}

00001a84 <stbtt__GetGlyfOffset>:
    1a84:	e5903040 	ldr	r3, [r0, #64]	; 0x40
    1a88:	e92d4070 	push	{r4, r5, r6, lr}
    1a8c:	e3530000 	cmp	r3, #0
    1a90:	1a000034 	bne	1b68 <stbtt__GetGlyfOffset+0xe4>
    1a94:	e590300c 	ldr	r3, [r0, #12]
    1a98:	e1530001 	cmp	r3, r1
    1a9c:	da00002f 	ble	1b60 <stbtt__GetGlyfOffset+0xdc>
    1aa0:	e5903034 	ldr	r3, [r0, #52]	; 0x34
    1aa4:	e3530001 	cmp	r3, #1
    1aa8:	ca00002c 	bgt	1b60 <stbtt__GetGlyfOffset+0xdc>
    1aac:	e3530000 	cmp	r3, #0
    1ab0:	e5902018 	ldr	r2, [r0, #24]
    1ab4:	e590c004 	ldr	ip, [r0, #4]
    1ab8:	e5903010 	ldr	r3, [r0, #16]
    1abc:	0a000018 	beq	1b24 <stbtt__GetGlyfOffset+0xa0>
    1ac0:	e0833101 	add	r3, r3, r1, lsl #2
    1ac4:	e2834004 	add	r4, r3, #4
    1ac8:	e08c1003 	add	r1, ip, r3
    1acc:	e08ce004 	add	lr, ip, r4
    1ad0:	e7dc6003 	ldrb	r6, [ip, r3]
    1ad4:	e5d10001 	ldrb	r0, [r1, #1]
    1ad8:	e5de3001 	ldrb	r3, [lr, #1]
    1adc:	e7dc5004 	ldrb	r5, [ip, r4]
    1ae0:	e5de4002 	ldrb	r4, [lr, #2]
    1ae4:	e1a00800 	lsl	r0, r0, #16
    1ae8:	e5dec003 	ldrb	ip, [lr, #3]
    1aec:	e1a03803 	lsl	r3, r3, #16
    1af0:	e5d1e002 	ldrb	lr, [r1, #2]
    1af4:	e0800c06 	add	r0, r0, r6, lsl #24
    1af8:	e0833c05 	add	r3, r3, r5, lsl #24
    1afc:	e5d11003 	ldrb	r1, [r1, #3]
    1b00:	e0833404 	add	r3, r3, r4, lsl #8
    1b04:	e080040e 	add	r0, r0, lr, lsl #8
    1b08:	e083300c 	add	r3, r3, ip
    1b0c:	e0800001 	add	r0, r0, r1
    1b10:	e0833002 	add	r3, r3, r2
    1b14:	e0800002 	add	r0, r0, r2
    1b18:	e1500003 	cmp	r0, r3
    1b1c:	03e00000 	mvneq	r0, #0
    1b20:	e8bd8070 	pop	{r4, r5, r6, pc}
    1b24:	e0833081 	add	r3, r3, r1, lsl #1
    1b28:	e2831002 	add	r1, r3, #2
    1b2c:	e08c0003 	add	r0, ip, r3
    1b30:	e08c4001 	add	r4, ip, r1
    1b34:	e7dce003 	ldrb	lr, [ip, r3]
    1b38:	e7dc1001 	ldrb	r1, [ip, r1]
    1b3c:	e5d43001 	ldrb	r3, [r4, #1]
    1b40:	e5d00001 	ldrb	r0, [r0, #1]
    1b44:	e0833401 	add	r3, r3, r1, lsl #8
    1b48:	e080040e 	add	r0, r0, lr, lsl #8
    1b4c:	e6ff3073 	uxth	r3, r3
    1b50:	e6ff0070 	uxth	r0, r0
    1b54:	e0823083 	add	r3, r2, r3, lsl #1
    1b58:	e0820080 	add	r0, r2, r0, lsl #1
    1b5c:	eaffffed 	b	1b18 <stbtt__GetGlyfOffset+0x94>
    1b60:	e3e00000 	mvn	r0, #0
    1b64:	e8bd8070 	pop	{r4, r5, r6, pc}
    1b68:	e3003000 	movw	r3, #0
    1b6c:	e3002000 	movw	r2, #0
    1b70:	e3000000 	movw	r0, #0
    1b74:	e3403000 	movt	r3, #0
    1b78:	e3402000 	movt	r2, #0
    1b7c:	e3001642 	movw	r1, #1602	; 0x642
    1b80:	e3400000 	movt	r0, #0
    1b84:	ebfffffe 	bl	0 <__assert_func>

00001b88 <stbtt__GetGlyphClass>:
    1b88:	e5d02000 	ldrb	r2, [r0]
    1b8c:	e1a0c000 	mov	ip, r0
    1b90:	e5d03001 	ldrb	r3, [r0, #1]
    1b94:	e0833402 	add	r3, r3, r2, lsl #8
    1b98:	e6ff3073 	uxth	r3, r3
    1b9c:	e3530001 	cmp	r3, #1
    1ba0:	0a000022 	beq	1c30 <stbtt__GetGlyphClass+0xa8>
    1ba4:	e3530002 	cmp	r3, #2
    1ba8:	e92d4070 	push	{r4, r5, r6, lr}
    1bac:	1a00003c 	bne	1ca4 <stbtt__GetGlyphClass+0x11c>
    1bb0:	e5d03002 	ldrb	r3, [r0, #2]
    1bb4:	e5d00003 	ldrb	r0, [r0, #3]
    1bb8:	e0800403 	add	r0, r0, r3, lsl #8
    1bbc:	e6ff0070 	uxth	r0, r0
    1bc0:	e2400001 	sub	r0, r0, #1
    1bc4:	e3700001 	cmn	r0, #1
    1bc8:	08bd8070 	popeq	{r4, r5, r6, pc}
    1bcc:	e3a05000 	mov	r5, #0
    1bd0:	e3a04006 	mov	r4, #6
    1bd4:	e0802005 	add	r2, r0, r5
    1bd8:	e1a020c2 	asr	r2, r2, #1
    1bdc:	e0030294 	mul	r3, r4, r2
    1be0:	e2833004 	add	r3, r3, #4
    1be4:	e08ce003 	add	lr, ip, r3
    1be8:	e7dc6003 	ldrb	r6, [ip, r3]
    1bec:	e5de3001 	ldrb	r3, [lr, #1]
    1bf0:	e0833406 	add	r3, r3, r6, lsl #8
    1bf4:	e6ff3073 	uxth	r3, r3
    1bf8:	e1510003 	cmp	r1, r3
    1bfc:	b2420001 	sublt	r0, r2, #1
    1c00:	ba000006 	blt	1c20 <stbtt__GetGlyphClass+0x98>
    1c04:	e5de5002 	ldrb	r5, [lr, #2]
    1c08:	e5de3003 	ldrb	r3, [lr, #3]
    1c0c:	e0833405 	add	r3, r3, r5, lsl #8
    1c10:	e6ff3073 	uxth	r3, r3
    1c14:	e1510003 	cmp	r1, r3
    1c18:	da00001a 	ble	1c88 <stbtt__GetGlyphClass+0x100>
    1c1c:	e2825001 	add	r5, r2, #1
    1c20:	e1500005 	cmp	r0, r5
    1c24:	aaffffea 	bge	1bd4 <stbtt__GetGlyphClass+0x4c>
    1c28:	e3e00000 	mvn	r0, #0
    1c2c:	e8bd8070 	pop	{r4, r5, r6, pc}
    1c30:	e5d02002 	ldrb	r2, [r0, #2]
    1c34:	e5d03003 	ldrb	r3, [r0, #3]
    1c38:	e5d00004 	ldrb	r0, [r0, #4]
    1c3c:	e0833402 	add	r3, r3, r2, lsl #8
    1c40:	e5dc2005 	ldrb	r2, [ip, #5]
    1c44:	e6ff3073 	uxth	r3, r3
    1c48:	e0822400 	add	r2, r2, r0, lsl #8
    1c4c:	e1530001 	cmp	r3, r1
    1c50:	e6ff2072 	uxth	r2, r2
    1c54:	ca000010 	bgt	1c9c <stbtt__GetGlyphClass+0x114>
    1c58:	e0822003 	add	r2, r2, r3
    1c5c:	e1520001 	cmp	r2, r1
    1c60:	da00000d 	ble	1c9c <stbtt__GetGlyphClass+0x114>
    1c64:	e0413003 	sub	r3, r1, r3
    1c68:	e1a03083 	lsl	r3, r3, #1
    1c6c:	e2833006 	add	r3, r3, #6
    1c70:	e08c2003 	add	r2, ip, r3
    1c74:	e7dc3003 	ldrb	r3, [ip, r3]
    1c78:	e5d20001 	ldrb	r0, [r2, #1]
    1c7c:	e0800403 	add	r0, r0, r3, lsl #8
    1c80:	e6ff0070 	uxth	r0, r0
    1c84:	e12fff1e 	bx	lr
    1c88:	e5de3004 	ldrb	r3, [lr, #4]
    1c8c:	e5de0005 	ldrb	r0, [lr, #5]
    1c90:	e0800403 	add	r0, r0, r3, lsl #8
    1c94:	e6ff0070 	uxth	r0, r0
    1c98:	e8bd8070 	pop	{r4, r5, r6, pc}
    1c9c:	e3e00000 	mvn	r0, #0
    1ca0:	e12fff1e 	bx	lr
    1ca4:	e3003000 	movw	r3, #0
    1ca8:	e3000000 	movw	r0, #0
    1cac:	e3403000 	movt	r3, #0
    1cb0:	e3400000 	movt	r0, #0
    1cb4:	e59f2004 	ldr	r2, [pc, #4]	; 1cc0 <stbtt__GetGlyphClass+0x138>
    1cb8:	e30019b5 	movw	r1, #2485	; 0x9b5
    1cbc:	ebfffffe 	bl	0 <__assert_func>
    1cc0:	00000018 	.word	0x00000018

00001cc4 <stbtt__tesselate_cubic>:
    1cc4:	e92d4070 	push	{r4, r5, r6, lr}
    1cc8:	e1a05000 	mov	r5, r0
    1ccc:	ed2d8b10 	vpush	{d8-d15}
    1cd0:	e1a06001 	mov	r6, r1
    1cd4:	e1a04002 	mov	r4, r2
    1cd8:	eef69a00 	vmov.f32	s19, #96	; 0x3f000000  0.5
    1cdc:	e24dd010 	sub	sp, sp, #16
    1ce0:	eeb0fa40 	vmov.f32	s30, s0
    1ce4:	eeb08a60 	vmov.f32	s16, s1
    1ce8:	eeb09a41 	vmov.f32	s18, s2
    1cec:	eef08a61 	vmov.f32	s17, s3
    1cf0:	eef0aa42 	vmov.f32	s21, s4
    1cf4:	eeb0aa62 	vmov.f32	s20, s5
    1cf8:	eef0ba43 	vmov.f32	s23, s6
    1cfc:	eeb0ba63 	vmov.f32	s22, s7
    1d00:	eeb0ca44 	vmov.f32	s24, s8
    1d04:	ee380ac8 	vsub.f32	s0, s17, s16
    1d08:	ee200a00 	vmul.f32	s0, s0, s0
    1d0c:	ee797a4f 	vsub.f32	s15, s18, s30
    1d10:	ee070aa7 	vmla.f32	s0, s15, s15
    1d14:	ee3aeac9 	vsub.f32	s28, s21, s18
    1d18:	eeb70ac0 	vcvt.f64.f32	d0, s0
    1d1c:	eeb50b40 	vcmp.f64	d0, #0.0
    1d20:	eeb17bc0 	vsqrt.f64	d7, d0
    1d24:	eef1fa10 	vmrs	APSR_nzcv, fpscr
    1d28:	ee3ada68 	vsub.f32	s26, s20, s17
    1d2c:	ee7b6aea 	vsub.f32	s13, s23, s21
    1d30:	ee7bda4a 	vsub.f32	s27, s22, s20
    1d34:	ee7bfacf 	vsub.f32	s31, s23, s30
    1d38:	ee7bca48 	vsub.f32	s25, s22, s16
    1d3c:	4a00005a 	bmi	1eac <stbtt__tesselate_cubic+0x1e8>
    1d40:	ee2d0a0d 	vmul.f32	s0, s26, s26
    1d44:	ee0e0a0e 	vmla.f32	s0, s28, s28
    1d48:	eeb70ac0 	vcvt.f64.f32	d0, s0
    1d4c:	eeb50b40 	vcmp.f64	d0, #0.0
    1d50:	eeb1ebc0 	vsqrt.f64	d14, d0
    1d54:	eef1fa10 	vmrs	APSR_nzcv, fpscr
    1d58:	4a00004d 	bmi	1e94 <stbtt__tesselate_cubic+0x1d0>
    1d5c:	ee2d0aad 	vmul.f32	s0, s27, s27
    1d60:	ee060aa6 	vmla.f32	s0, s13, s13
    1d64:	ee37db0e 	vadd.f64	d13, d7, d14
    1d68:	eeb70ac0 	vcvt.f64.f32	d0, s0
    1d6c:	eeb50b40 	vcmp.f64	d0, #0.0
    1d70:	eeb1ebc0 	vsqrt.f64	d14, d0
    1d74:	eef1fa10 	vmrs	APSR_nzcv, fpscr
    1d78:	4a000043 	bmi	1e8c <stbtt__tesselate_cubic+0x1c8>
    1d7c:	ee2c0aac 	vmul.f32	s0, s25, s25
    1d80:	ee0f0aaf 	vmla.f32	s0, s31, s31
    1d84:	ee3ddb0e 	vadd.f64	d13, d13, d14
    1d88:	eeb70ac0 	vcvt.f64.f32	d0, s0
    1d8c:	eeb50b40 	vcmp.f64	d0, #0.0
    1d90:	eeb7dbcd 	vcvt.f32.f64	s26, d13
    1d94:	eef1fa10 	vmrs	APSR_nzcv, fpscr
    1d98:	eeb1ebc0 	vsqrt.f64	d14, d0
    1d9c:	4a000038 	bmi	1e84 <stbtt__tesselate_cubic+0x1c0>
    1da0:	e3540011 	cmp	r4, #17
    1da4:	eeb7ebce 	vcvt.f32.f64	s28, d14
    1da8:	ee2eea0e 	vmul.f32	s28, s28, s28
    1dac:	ee1dea0d 	vnmls.f32	s28, s26, s26
    1db0:	0a000030 	beq	1e78 <stbtt__tesselate_cubic+0x1b4>
    1db4:	eeb4eacc 	vcmpe.f32	s28, s24
    1db8:	eef1fa10 	vmrs	APSR_nzcv, fpscr
    1dbc:	da000026 	ble	1e5c <stbtt__tesselate_cubic+0x198>
    1dc0:	ee393a0f 	vadd.f32	s6, s18, s30
    1dc4:	e2844001 	add	r4, r4, #1
    1dc8:	e1a01006 	mov	r1, r6
    1dcc:	e1a00005 	mov	r0, r5
    1dd0:	e1a02004 	mov	r2, r4
    1dd4:	ee783a88 	vadd.f32	s7, s17, s16
    1dd8:	ee399a2a 	vadd.f32	s18, s18, s21
    1ddc:	ee788a8a 	vadd.f32	s17, s17, s20
    1de0:	ee7aaaab 	vadd.f32	s21, s21, s23
    1de4:	ee3aaa0b 	vadd.f32	s20, s20, s22
    1de8:	ee233a29 	vmul.f32	s6, s6, s19
    1dec:	ee299a29 	vmul.f32	s18, s18, s19
    1df0:	ee633aa9 	vmul.f32	s7, s7, s19
    1df4:	ee688aa9 	vmul.f32	s17, s17, s19
    1df8:	ee6aaaa9 	vmul.f32	s21, s21, s19
    1dfc:	ee2aaa29 	vmul.f32	s20, s20, s19
    1e00:	eeb01a43 	vmov.f32	s2, s6
    1e04:	eef01a63 	vmov.f32	s3, s7
    1e08:	ee333a09 	vadd.f32	s6, s6, s18
    1e0c:	ee733aa8 	vadd.f32	s7, s7, s17
    1e10:	ee399a2a 	vadd.f32	s18, s18, s21
    1e14:	ee788a8a 	vadd.f32	s17, s17, s20
    1e18:	ee233a29 	vmul.f32	s6, s6, s19
    1e1c:	ee633aa9 	vmul.f32	s7, s7, s19
    1e20:	ee299a29 	vmul.f32	s18, s18, s19
    1e24:	ee688aa9 	vmul.f32	s17, s17, s19
    1e28:	eeb02a43 	vmov.f32	s4, s6
    1e2c:	eef02a63 	vmov.f32	s5, s7
    1e30:	ee333a09 	vadd.f32	s6, s6, s18
    1e34:	ee733aa8 	vadd.f32	s7, s7, s17
    1e38:	ee233a29 	vmul.f32	s6, s6, s19
    1e3c:	ee633aa9 	vmul.f32	s7, s7, s19
    1e40:	eeb00a4f 	vmov.f32	s0, s30
    1e44:	eef00a48 	vmov.f32	s1, s16
    1e48:	eeb04a4c 	vmov.f32	s8, s24
    1e4c:	eeb0fa43 	vmov.f32	s30, s6
    1e50:	eeb08a63 	vmov.f32	s16, s7
    1e54:	ebffff9a 	bl	1cc4 <stbtt__tesselate_cubic>
    1e58:	eaffffa9 	b	1d04 <stbtt__tesselate_cubic+0x40>
    1e5c:	e5963000 	ldr	r3, [r6]
    1e60:	e3550000 	cmp	r5, #0
    1e64:	10855183 	addne	r5, r5, r3, lsl #3
    1e68:	e2833001 	add	r3, r3, #1
    1e6c:	1dc5ba00 	vstrne	s23, [r5]
    1e70:	1d85ba01 	vstrne	s22, [r5, #4]
    1e74:	e5863000 	str	r3, [r6]
    1e78:	e28dd010 	add	sp, sp, #16
    1e7c:	ecbd8b10 	vpop	{d8-d15}
    1e80:	e8bd8070 	pop	{r4, r5, r6, pc}
    1e84:	ebfffffe 	bl	0 <sqrt>
    1e88:	eaffffc4 	b	1da0 <stbtt__tesselate_cubic+0xdc>
    1e8c:	ebfffffe 	bl	0 <sqrt>
    1e90:	eaffffb9 	b	1d7c <stbtt__tesselate_cubic+0xb8>
    1e94:	edcd6a03 	vstr	s13, [sp, #12]
    1e98:	ed8d7b00 	vstr	d7, [sp]
    1e9c:	ebfffffe 	bl	0 <sqrt>
    1ea0:	eddd6a03 	vldr	s13, [sp, #12]
    1ea4:	ed9d7b00 	vldr	d7, [sp]
    1ea8:	eaffffab 	b	1d5c <stbtt__tesselate_cubic+0x98>
    1eac:	edcd6a03 	vstr	s13, [sp, #12]
    1eb0:	ed8d7b00 	vstr	d7, [sp]
    1eb4:	ebfffffe 	bl	0 <sqrt>
    1eb8:	eddd6a03 	vldr	s13, [sp, #12]
    1ebc:	ed9d7b00 	vldr	d7, [sp]
    1ec0:	eaffff9e 	b	1d40 <stbtt__tesselate_cubic+0x7c>

00001ec4 <stbi__getn>:
    1ec4:	e92d41f0 	push	{r4, r5, r6, r7, r8, lr}
    1ec8:	e1a07001 	mov	r7, r1
    1ecc:	e5901010 	ldr	r1, [r0, #16]
    1ed0:	e1a04000 	mov	r4, r0
    1ed4:	e1a05002 	mov	r5, r2
    1ed8:	e59030ac 	ldr	r3, [r0, #172]	; 0xac
    1edc:	e3510000 	cmp	r1, #0
    1ee0:	e59010a8 	ldr	r1, [r0, #168]	; 0xa8
    1ee4:	0a000002 	beq	1ef4 <stbi__getn+0x30>
    1ee8:	e0436001 	sub	r6, r3, r1
    1eec:	e1560002 	cmp	r6, r2
    1ef0:	ba000004 	blt	1f08 <stbi__getn+0x44>
    1ef4:	e0812005 	add	r2, r1, r5
    1ef8:	e1530002 	cmp	r3, r2
    1efc:	2a000010 	bcs	1f44 <stbi__getn+0x80>
    1f00:	e3a00000 	mov	r0, #0
    1f04:	e8bd81f0 	pop	{r4, r5, r6, r7, r8, pc}
    1f08:	e0425006 	sub	r5, r2, r6
    1f0c:	e1a00007 	mov	r0, r7
    1f10:	e1a02006 	mov	r2, r6
    1f14:	ebfffffe 	bl	0 <memcpy>
    1f18:	e5943010 	ldr	r3, [r4, #16]
    1f1c:	e0871006 	add	r1, r7, r6
    1f20:	e1a02005 	mov	r2, r5
    1f24:	e594001c 	ldr	r0, [r4, #28]
    1f28:	e12fff33 	blx	r3
    1f2c:	e59430ac 	ldr	r3, [r4, #172]	; 0xac
    1f30:	e58430a8 	str	r3, [r4, #168]	; 0xa8
    1f34:	e0450000 	sub	r0, r5, r0
    1f38:	e16f0f10 	clz	r0, r0
    1f3c:	e1a002a0 	lsr	r0, r0, #5
    1f40:	e8bd81f0 	pop	{r4, r5, r6, r7, r8, pc}
    1f44:	e1a02005 	mov	r2, r5
    1f48:	e1a00007 	mov	r0, r7
    1f4c:	ebfffffe 	bl	0 <memcpy>
    1f50:	e59430a8 	ldr	r3, [r4, #168]	; 0xa8
    1f54:	e3a00001 	mov	r0, #1
    1f58:	e0835005 	add	r5, r3, r5
    1f5c:	e58450a8 	str	r5, [r4, #168]	; 0xa8
    1f60:	e8bd81f0 	pop	{r4, r5, r6, r7, r8, pc}

00001f64 <stbtt__h_prefilter>:
    1f64:	e92d4ff0 	push	{r4, r5, r6, r7, r8, r9, sl, fp, lr}
    1f68:	e24dd024 	sub	sp, sp, #36	; 0x24
    1f6c:	e3520000 	cmp	r2, #0
    1f70:	e3a09000 	mov	r9, #0
    1f74:	e59d6048 	ldr	r6, [sp, #72]	; 0x48
    1f78:	e58d3008 	str	r3, [sp, #8]
    1f7c:	e58d2004 	str	r2, [sp, #4]
    1f80:	e0413006 	sub	r3, r1, r6
    1f84:	e58d901c 	str	r9, [sp, #28]
    1f88:	e58d3000 	str	r3, [sp]
    1f8c:	e58d9018 	str	r9, [sp, #24]
    1f90:	da00004e 	ble	20d0 <stbtt__h_prefilter+0x16c>
    1f94:	e1a07001 	mov	r7, r1
    1f98:	e1a08000 	mov	r8, r0
    1f9c:	e30a3aab 	movw	r3, #43691	; 0xaaab
    1fa0:	e30c2ccd 	movw	r2, #52429	; 0xcccd
    1fa4:	e34a3aaa 	movt	r3, #43690	; 0xaaaa
    1fa8:	e34c2ccc 	movt	r2, #52428	; 0xcccc
    1fac:	e58d3010 	str	r3, [sp, #16]
    1fb0:	e2463002 	sub	r3, r6, #2
    1fb4:	e58d2014 	str	r2, [sp, #20]
    1fb8:	e58d300c 	str	r3, [sp, #12]
    1fbc:	e1a02006 	mov	r2, r6
    1fc0:	e3a01000 	mov	r1, #0
    1fc4:	e28d0018 	add	r0, sp, #24
    1fc8:	ebfffffe 	bl	0 <memset>
    1fcc:	e59d300c 	ldr	r3, [sp, #12]
    1fd0:	e3530003 	cmp	r3, #3
    1fd4:	979ff103 	ldrls	pc, [pc, r3, lsl #2]
    1fd8:	ea00008f 	b	221c <stbtt__h_prefilter+0x2b8>
    1fdc:	000021b4 	.word	0x000021b4
    1fe0:	00002144 	.word	0x00002144
    1fe4:	000020d8 	.word	0x000020d8
    1fe8:	00001fec 	.word	0x00001fec
    1fec:	e59d3000 	ldr	r3, [sp]
    1ff0:	e3a05000 	mov	r5, #0
    1ff4:	e3530000 	cmp	r3, #0
    1ff8:	ba0000a3 	blt	228c <stbtt__h_prefilter+0x328>
    1ffc:	e59d3000 	ldr	r3, [sp]
    2000:	e248e001 	sub	lr, r8, #1
    2004:	e59d1014 	ldr	r1, [sp, #20]
    2008:	e1a0c005 	mov	ip, r5
    200c:	e283b001 	add	fp, r3, #1
    2010:	e20c2007 	and	r2, ip, #7
    2014:	e28d3020 	add	r3, sp, #32
    2018:	e0832002 	add	r2, r3, r2
    201c:	e5fe0001 	ldrb	r0, [lr, #1]!
    2020:	e28c3005 	add	r3, ip, #5
    2024:	e28d4020 	add	r4, sp, #32
    2028:	e5522008 	ldrb	r2, [r2, #-8]
    202c:	e2033007 	and	r3, r3, #7
    2030:	e0843003 	add	r3, r4, r3
    2034:	e28cc001 	add	ip, ip, #1
    2038:	e0402002 	sub	r2, r0, r2
    203c:	e15b000c 	cmp	fp, ip
    2040:	e0855002 	add	r5, r5, r2
    2044:	e5430008 	strb	r0, [r3, #-8]
    2048:	e0832195 	umull	r2, r3, r5, r1
    204c:	e1a03123 	lsr	r3, r3, #2
    2050:	e5ce3000 	strb	r3, [lr]
    2054:	1affffed 	bne	2010 <stbtt__h_prefilter+0xac>
    2058:	e1a0400b 	mov	r4, fp
    205c:	e1570004 	cmp	r7, r4
    2060:	da000014 	ble	20b8 <stbtt__h_prefilter+0x154>
    2064:	e7d82004 	ldrb	r2, [r8, r4]
    2068:	e088b004 	add	fp, r8, r4
    206c:	e3520000 	cmp	r2, #0
    2070:	1a000087 	bne	2294 <stbtt__h_prefilter+0x330>
    2074:	e24ba001 	sub	sl, fp, #1
    2078:	ea000002 	b	2088 <stbtt__h_prefilter+0x124>
    207c:	e5fb3001 	ldrb	r3, [fp, #1]!
    2080:	e3530000 	cmp	r3, #0
    2084:	1a000082 	bne	2294 <stbtt__h_prefilter+0x330>
    2088:	e2043007 	and	r3, r4, #7
    208c:	e28d2020 	add	r2, sp, #32
    2090:	e0823003 	add	r3, r2, r3
    2094:	e1a01006 	mov	r1, r6
    2098:	e2844001 	add	r4, r4, #1
    209c:	e5533008 	ldrb	r3, [r3, #-8]
    20a0:	e0455003 	sub	r5, r5, r3
    20a4:	e1a00005 	mov	r0, r5
    20a8:	ebfffffe 	bl	0 <__aeabi_uidiv>
    20ac:	e1570004 	cmp	r7, r4
    20b0:	e5ea0001 	strb	r0, [sl, #1]!
    20b4:	1afffff0 	bne	207c <stbtt__h_prefilter+0x118>
    20b8:	e59d3008 	ldr	r3, [sp, #8]
    20bc:	e2899001 	add	r9, r9, #1
    20c0:	e0888003 	add	r8, r8, r3
    20c4:	e59d3004 	ldr	r3, [sp, #4]
    20c8:	e1530009 	cmp	r3, r9
    20cc:	1affffba 	bne	1fbc <stbtt__h_prefilter+0x58>
    20d0:	e28dd024 	add	sp, sp, #36	; 0x24
    20d4:	e8bd8ff0 	pop	{r4, r5, r6, r7, r8, r9, sl, fp, pc}
    20d8:	e59d3000 	ldr	r3, [sp]
    20dc:	e3a05000 	mov	r5, #0
    20e0:	e3530000 	cmp	r3, #0
    20e4:	ba000068 	blt	228c <stbtt__h_prefilter+0x328>
    20e8:	e59d3000 	ldr	r3, [sp]
    20ec:	e248c001 	sub	ip, r8, #1
    20f0:	e1a01005 	mov	r1, r5
    20f4:	e283b001 	add	fp, r3, #1
    20f8:	e2012007 	and	r2, r1, #7
    20fc:	e28d3020 	add	r3, sp, #32
    2100:	e0832002 	add	r2, r3, r2
    2104:	e5fc0001 	ldrb	r0, [ip, #1]!
    2108:	e2813004 	add	r3, r1, #4
    210c:	e28de020 	add	lr, sp, #32
    2110:	e5522008 	ldrb	r2, [r2, #-8]
    2114:	e2033007 	and	r3, r3, #7
    2118:	e2811001 	add	r1, r1, #1
    211c:	e08e3003 	add	r3, lr, r3
    2120:	e0402002 	sub	r2, r0, r2
    2124:	e15b0001 	cmp	fp, r1
    2128:	e0855002 	add	r5, r5, r2
    212c:	e5430008 	strb	r0, [r3, #-8]
    2130:	e1a03125 	lsr	r3, r5, #2
    2134:	e5cc3000 	strb	r3, [ip]
    2138:	1affffee 	bne	20f8 <stbtt__h_prefilter+0x194>
    213c:	e1a0400b 	mov	r4, fp
    2140:	eaffffc5 	b	205c <stbtt__h_prefilter+0xf8>
    2144:	e59d3000 	ldr	r3, [sp]
    2148:	e3a05000 	mov	r5, #0
    214c:	e3530000 	cmp	r3, #0
    2150:	ba00004d 	blt	228c <stbtt__h_prefilter+0x328>
    2154:	e59d3000 	ldr	r3, [sp]
    2158:	e248c001 	sub	ip, r8, #1
    215c:	e59d1010 	ldr	r1, [sp, #16]
    2160:	e1a04005 	mov	r4, r5
    2164:	e283b001 	add	fp, r3, #1
    2168:	e2042007 	and	r2, r4, #7
    216c:	e28d3020 	add	r3, sp, #32
    2170:	e0832002 	add	r2, r3, r2
    2174:	e5fc0001 	ldrb	r0, [ip, #1]!
    2178:	e2843003 	add	r3, r4, #3
    217c:	e28de020 	add	lr, sp, #32
    2180:	e5522008 	ldrb	r2, [r2, #-8]
    2184:	e2033007 	and	r3, r3, #7
    2188:	e08e3003 	add	r3, lr, r3
    218c:	e2844001 	add	r4, r4, #1
    2190:	e0402002 	sub	r2, r0, r2
    2194:	e154000b 	cmp	r4, fp
    2198:	e0855002 	add	r5, r5, r2
    219c:	e5430008 	strb	r0, [r3, #-8]
    21a0:	e0832195 	umull	r2, r3, r5, r1
    21a4:	e1a030a3 	lsr	r3, r3, #1
    21a8:	e5cc3000 	strb	r3, [ip]
    21ac:	1affffed 	bne	2168 <stbtt__h_prefilter+0x204>
    21b0:	eaffffa9 	b	205c <stbtt__h_prefilter+0xf8>
    21b4:	e59d3000 	ldr	r3, [sp]
    21b8:	e3a05000 	mov	r5, #0
    21bc:	e3530000 	cmp	r3, #0
    21c0:	ba000031 	blt	228c <stbtt__h_prefilter+0x328>
    21c4:	e59d3000 	ldr	r3, [sp]
    21c8:	e2480001 	sub	r0, r8, #1
    21cc:	e1a04005 	mov	r4, r5
    21d0:	e283b001 	add	fp, r3, #1
    21d4:	e2042007 	and	r2, r4, #7
    21d8:	e28d3020 	add	r3, sp, #32
    21dc:	e0832002 	add	r2, r3, r2
    21e0:	e5f01001 	ldrb	r1, [r0, #1]!
    21e4:	e2843002 	add	r3, r4, #2
    21e8:	e28dc020 	add	ip, sp, #32
    21ec:	e5522008 	ldrb	r2, [r2, #-8]
    21f0:	e2033007 	and	r3, r3, #7
    21f4:	e2844001 	add	r4, r4, #1
    21f8:	e08c3003 	add	r3, ip, r3
    21fc:	e0412002 	sub	r2, r1, r2
    2200:	e154000b 	cmp	r4, fp
    2204:	e0855002 	add	r5, r5, r2
    2208:	e5431008 	strb	r1, [r3, #-8]
    220c:	e1a030a5 	lsr	r3, r5, #1
    2210:	e5c03000 	strb	r3, [r0]
    2214:	1affffee 	bne	21d4 <stbtt__h_prefilter+0x270>
    2218:	eaffff8f 	b	205c <stbtt__h_prefilter+0xf8>
    221c:	e59d3000 	ldr	r3, [sp]
    2220:	e3a05000 	mov	r5, #0
    2224:	e3530000 	cmp	r3, #0
    2228:	ba000017 	blt	228c <stbtt__h_prefilter+0x328>
    222c:	e59d3000 	ldr	r3, [sp]
    2230:	e248a001 	sub	sl, r8, #1
    2234:	e1a04005 	mov	r4, r5
    2238:	e283b001 	add	fp, r3, #1
    223c:	e2042007 	and	r2, r4, #7
    2240:	e28d3020 	add	r3, sp, #32
    2244:	e0832002 	add	r2, r3, r2
    2248:	e5fa1001 	ldrb	r1, [sl, #1]!
    224c:	e0843006 	add	r3, r4, r6
    2250:	e28d0020 	add	r0, sp, #32
    2254:	e5522008 	ldrb	r2, [r2, #-8]
    2258:	e2033007 	and	r3, r3, #7
    225c:	e0803003 	add	r3, r0, r3
    2260:	e2844001 	add	r4, r4, #1
    2264:	e0412002 	sub	r2, r1, r2
    2268:	e0855002 	add	r5, r5, r2
    226c:	e5431008 	strb	r1, [r3, #-8]
    2270:	e1a01006 	mov	r1, r6
    2274:	e1a00005 	mov	r0, r5
    2278:	ebfffffe 	bl	0 <__aeabi_uidiv>
    227c:	e154000b 	cmp	r4, fp
    2280:	e5ca0000 	strb	r0, [sl]
    2284:	1affffec 	bne	223c <stbtt__h_prefilter+0x2d8>
    2288:	eaffff73 	b	205c <stbtt__h_prefilter+0xf8>
    228c:	e1a04005 	mov	r4, r5
    2290:	eaffff71 	b	205c <stbtt__h_prefilter+0xf8>
    2294:	e3003000 	movw	r3, #0
    2298:	e3000000 	movw	r0, #0
    229c:	e3403000 	movt	r3, #0
    22a0:	e3400000 	movt	r0, #0
    22a4:	e59f2004 	ldr	r2, [pc, #4]	; 22b0 <stbtt__h_prefilter+0x34c>
    22a8:	e3001fa8 	movw	r1, #4008	; 0xfa8
    22ac:	ebfffffe 	bl	0 <__assert_func>
    22b0:	00000030 	.word	0x00000030

000022b4 <stbtt__v_prefilter>:
    22b4:	e92d4ff0 	push	{r4, r5, r6, r7, r8, r9, sl, fp, lr}
    22b8:	e24dd024 	sub	sp, sp, #36	; 0x24
    22bc:	e3510000 	cmp	r1, #0
    22c0:	e1a07003 	mov	r7, r3
    22c4:	e59d6048 	ldr	r6, [sp, #72]	; 0x48
    22c8:	e58d0000 	str	r0, [sp]
    22cc:	e0423006 	sub	r3, r2, r6
    22d0:	e58d3004 	str	r3, [sp, #4]
    22d4:	e3a03000 	mov	r3, #0
    22d8:	e58d301c 	str	r3, [sp, #28]
    22dc:	e58d3018 	str	r3, [sp, #24]
    22e0:	da000055 	ble	243c <stbtt__v_prefilter+0x188>
    22e4:	e0803001 	add	r3, r0, r1
    22e8:	e1a08002 	mov	r8, r2
    22ec:	e58d3008 	str	r3, [sp, #8]
    22f0:	e30c2ccd 	movw	r2, #52429	; 0xcccd
    22f4:	e30a3aab 	movw	r3, #43691	; 0xaaab
    22f8:	e34c2ccc 	movt	r2, #52428	; 0xcccc
    22fc:	e34a3aaa 	movt	r3, #43690	; 0xaaaa
    2300:	e58d2014 	str	r2, [sp, #20]
    2304:	e58d3010 	str	r3, [sp, #16]
    2308:	e2463002 	sub	r3, r6, #2
    230c:	e58d300c 	str	r3, [sp, #12]
    2310:	e1a02006 	mov	r2, r6
    2314:	e3a01000 	mov	r1, #0
    2318:	e28d0018 	add	r0, sp, #24
    231c:	ebfffffe 	bl	0 <memset>
    2320:	e59d300c 	ldr	r3, [sp, #12]
    2324:	e3530003 	cmp	r3, #3
    2328:	979ff103 	ldrls	pc, [pc, r3, lsl #2]
    232c:	ea000097 	b	2590 <stbtt__v_prefilter+0x2dc>
    2330:	00002524 	.word	0x00002524
    2334:	000024b0 	.word	0x000024b0
    2338:	00002444 	.word	0x00002444
    233c:	00002340 	.word	0x00002340
    2340:	e59d3004 	ldr	r3, [sp, #4]
    2344:	e3a05000 	mov	r5, #0
    2348:	e3530000 	cmp	r3, #0
    234c:	ba0000ac 	blt	2604 <stbtt__v_prefilter+0x350>
    2350:	e59d3004 	ldr	r3, [sp, #4]
    2354:	e1a01005 	mov	r1, r5
    2358:	e59d0000 	ldr	r0, [sp]
    235c:	e59dc014 	ldr	ip, [sp, #20]
    2360:	e2834001 	add	r4, r3, #1
    2364:	e2012007 	and	r2, r1, #7
    2368:	e28d3020 	add	r3, sp, #32
    236c:	e0832002 	add	r2, r3, r2
    2370:	e5d0e000 	ldrb	lr, [r0]
    2374:	e2813005 	add	r3, r1, #5
    2378:	e28d9020 	add	r9, sp, #32
    237c:	e5522008 	ldrb	r2, [r2, #-8]
    2380:	e2033007 	and	r3, r3, #7
    2384:	e0893003 	add	r3, r9, r3
    2388:	e2811001 	add	r1, r1, #1
    238c:	e04e2002 	sub	r2, lr, r2
    2390:	e1540001 	cmp	r4, r1
    2394:	e0855002 	add	r5, r5, r2
    2398:	e543e008 	strb	lr, [r3, #-8]
    239c:	e0832c95 	umull	r2, r3, r5, ip
    23a0:	e1a03123 	lsr	r3, r3, #2
    23a4:	e6c03007 	strb	r3, [r0], r7
    23a8:	1affffed 	bne	2364 <stbtt__v_prefilter+0xb0>
    23ac:	e1580004 	cmp	r8, r4
    23b0:	da00001b 	ble	2424 <stbtt__v_prefilter+0x170>
    23b4:	e0030794 	mul	r3, r4, r7
    23b8:	e59d2000 	ldr	r2, [sp]
    23bc:	e082a003 	add	sl, r2, r3
    23c0:	e7d21003 	ldrb	r1, [r2, r3]
    23c4:	e3510000 	cmp	r1, #0
    23c8:	1a00008f 	bne	260c <stbtt__v_prefilter+0x358>
    23cc:	e59d2000 	ldr	r2, [sp]
    23d0:	e0873003 	add	r3, r7, r3
    23d4:	e2679000 	rsb	r9, r7, #0
    23d8:	e082b003 	add	fp, r2, r3
    23dc:	ea000004 	b	23f4 <stbtt__v_prefilter+0x140>
    23e0:	e1a0a00b 	mov	sl, fp
    23e4:	e08bb007 	add	fp, fp, r7
    23e8:	e7db3009 	ldrb	r3, [fp, r9]
    23ec:	e3530000 	cmp	r3, #0
    23f0:	1a000085 	bne	260c <stbtt__v_prefilter+0x358>
    23f4:	e2043007 	and	r3, r4, #7
    23f8:	e28d2020 	add	r2, sp, #32
    23fc:	e0823003 	add	r3, r2, r3
    2400:	e1a01006 	mov	r1, r6
    2404:	e2844001 	add	r4, r4, #1
    2408:	e5533008 	ldrb	r3, [r3, #-8]
    240c:	e0455003 	sub	r5, r5, r3
    2410:	e1a00005 	mov	r0, r5
    2414:	ebfffffe 	bl	0 <__aeabi_uidiv>
    2418:	e1580004 	cmp	r8, r4
    241c:	e5ca0000 	strb	r0, [sl]
    2420:	1affffee 	bne	23e0 <stbtt__v_prefilter+0x12c>
    2424:	e59d3000 	ldr	r3, [sp]
    2428:	e59d2008 	ldr	r2, [sp, #8]
    242c:	e2833001 	add	r3, r3, #1
    2430:	e58d3000 	str	r3, [sp]
    2434:	e1520003 	cmp	r2, r3
    2438:	1affffb4 	bne	2310 <stbtt__v_prefilter+0x5c>
    243c:	e28dd024 	add	sp, sp, #36	; 0x24
    2440:	e8bd8ff0 	pop	{r4, r5, r6, r7, r8, r9, sl, fp, pc}
    2444:	e59d3004 	ldr	r3, [sp, #4]
    2448:	e3a05000 	mov	r5, #0
    244c:	e3530000 	cmp	r3, #0
    2450:	ba00006b 	blt	2604 <stbtt__v_prefilter+0x350>
    2454:	e59d3004 	ldr	r3, [sp, #4]
    2458:	e1a02005 	mov	r2, r5
    245c:	e59d0000 	ldr	r0, [sp]
    2460:	e2834001 	add	r4, r3, #1
    2464:	e2021007 	and	r1, r2, #7
    2468:	e28d3020 	add	r3, sp, #32
    246c:	e0831001 	add	r1, r3, r1
    2470:	e5d0c000 	ldrb	ip, [r0]
    2474:	e2823004 	add	r3, r2, #4
    2478:	e28de020 	add	lr, sp, #32
    247c:	e5511008 	ldrb	r1, [r1, #-8]
    2480:	e2033007 	and	r3, r3, #7
    2484:	e2822001 	add	r2, r2, #1
    2488:	e08e3003 	add	r3, lr, r3
    248c:	e04c1001 	sub	r1, ip, r1
    2490:	e1520004 	cmp	r2, r4
    2494:	e0855001 	add	r5, r5, r1
    2498:	e543c008 	strb	ip, [r3, #-8]
    249c:	e1a03125 	lsr	r3, r5, #2
    24a0:	e6c03007 	strb	r3, [r0], r7
    24a4:	1affffee 	bne	2464 <stbtt__v_prefilter+0x1b0>
    24a8:	e1a04002 	mov	r4, r2
    24ac:	eaffffbe 	b	23ac <stbtt__v_prefilter+0xf8>
    24b0:	e59d3004 	ldr	r3, [sp, #4]
    24b4:	e3a05000 	mov	r5, #0
    24b8:	e3530000 	cmp	r3, #0
    24bc:	ba000050 	blt	2604 <stbtt__v_prefilter+0x350>
    24c0:	e59d3004 	ldr	r3, [sp, #4]
    24c4:	e1a01005 	mov	r1, r5
    24c8:	e59d0000 	ldr	r0, [sp]
    24cc:	e59dc010 	ldr	ip, [sp, #16]
    24d0:	e2834001 	add	r4, r3, #1
    24d4:	e2012007 	and	r2, r1, #7
    24d8:	e28d3020 	add	r3, sp, #32
    24dc:	e0832002 	add	r2, r3, r2
    24e0:	e5d0e000 	ldrb	lr, [r0]
    24e4:	e2813003 	add	r3, r1, #3
    24e8:	e28d9020 	add	r9, sp, #32
    24ec:	e5522008 	ldrb	r2, [r2, #-8]
    24f0:	e2033007 	and	r3, r3, #7
    24f4:	e0893003 	add	r3, r9, r3
    24f8:	e2811001 	add	r1, r1, #1
    24fc:	e04e2002 	sub	r2, lr, r2
    2500:	e1510004 	cmp	r1, r4
    2504:	e0855002 	add	r5, r5, r2
    2508:	e543e008 	strb	lr, [r3, #-8]
    250c:	e0832c95 	umull	r2, r3, r5, ip
    2510:	e1a030a3 	lsr	r3, r3, #1
    2514:	e6c03007 	strb	r3, [r0], r7
    2518:	1affffed 	bne	24d4 <stbtt__v_prefilter+0x220>
    251c:	e1a04001 	mov	r4, r1
    2520:	eaffffa1 	b	23ac <stbtt__v_prefilter+0xf8>
    2524:	e59d3004 	ldr	r3, [sp, #4]
    2528:	e3a05000 	mov	r5, #0
    252c:	e3530000 	cmp	r3, #0
    2530:	ba000033 	blt	2604 <stbtt__v_prefilter+0x350>
    2534:	e59d3004 	ldr	r3, [sp, #4]
    2538:	e1a02005 	mov	r2, r5
    253c:	e59d0000 	ldr	r0, [sp]
    2540:	e2834001 	add	r4, r3, #1
    2544:	e2021007 	and	r1, r2, #7
    2548:	e28d3020 	add	r3, sp, #32
    254c:	e0831001 	add	r1, r3, r1
    2550:	e5d0c000 	ldrb	ip, [r0]
    2554:	e2823002 	add	r3, r2, #2
    2558:	e28de020 	add	lr, sp, #32
    255c:	e5511008 	ldrb	r1, [r1, #-8]
    2560:	e2033007 	and	r3, r3, #7
    2564:	e2822001 	add	r2, r2, #1
    2568:	e08e3003 	add	r3, lr, r3
    256c:	e04c1001 	sub	r1, ip, r1
    2570:	e1520004 	cmp	r2, r4
    2574:	e0855001 	add	r5, r5, r1
    2578:	e543c008 	strb	ip, [r3, #-8]
    257c:	e1a030a5 	lsr	r3, r5, #1
    2580:	e6c03007 	strb	r3, [r0], r7
    2584:	1affffee 	bne	2544 <stbtt__v_prefilter+0x290>
    2588:	e1a04002 	mov	r4, r2
    258c:	eaffff86 	b	23ac <stbtt__v_prefilter+0xf8>
    2590:	e59d3004 	ldr	r3, [sp, #4]
    2594:	e3a05000 	mov	r5, #0
    2598:	e3530000 	cmp	r3, #0
    259c:	ba000018 	blt	2604 <stbtt__v_prefilter+0x350>
    25a0:	e59d3004 	ldr	r3, [sp, #4]
    25a4:	e1a09005 	mov	r9, r5
    25a8:	e59da000 	ldr	sl, [sp]
    25ac:	e2834001 	add	r4, r3, #1
    25b0:	e2092007 	and	r2, r9, #7
    25b4:	e28d3020 	add	r3, sp, #32
    25b8:	e0832002 	add	r2, r3, r2
    25bc:	e5da1000 	ldrb	r1, [sl]
    25c0:	e0893006 	add	r3, r9, r6
    25c4:	e28d0020 	add	r0, sp, #32
    25c8:	e5522008 	ldrb	r2, [r2, #-8]
    25cc:	e2033007 	and	r3, r3, #7
    25d0:	e0803003 	add	r3, r0, r3
    25d4:	e2899001 	add	r9, r9, #1
    25d8:	e0412002 	sub	r2, r1, r2
    25dc:	e0855002 	add	r5, r5, r2
    25e0:	e5431008 	strb	r1, [r3, #-8]
    25e4:	e1a01006 	mov	r1, r6
    25e8:	e1a00005 	mov	r0, r5
    25ec:	ebfffffe 	bl	0 <__aeabi_uidiv>
    25f0:	e1590004 	cmp	r9, r4
    25f4:	e6ca0007 	strb	r0, [sl], r7
    25f8:	1affffec 	bne	25b0 <stbtt__v_prefilter+0x2fc>
    25fc:	e1a04009 	mov	r4, r9
    2600:	eaffff69 	b	23ac <stbtt__v_prefilter+0xf8>
    2604:	e1a04005 	mov	r4, r5
    2608:	eaffff67 	b	23ac <stbtt__v_prefilter+0xf8>
    260c:	e3003000 	movw	r3, #0
    2610:	e3000000 	movw	r0, #0
    2614:	e3403000 	movt	r3, #0
    2618:	e3400000 	movt	r0, #0
    261c:	e59f2004 	ldr	r2, [pc, #4]	; 2628 <stbtt__v_prefilter+0x374>
    2620:	e3001fe6 	movw	r1, #4070	; 0xfe6
    2624:	ebfffffe 	bl	0 <__assert_func>
    2628:	00000044 	.word	0x00000044

0000262c <stbi__build_huffman>:
    262c:	e2411004 	sub	r1, r1, #4
    2630:	e3a03000 	mov	r3, #0
    2634:	e92d47f0 	push	{r4, r5, r6, r7, r8, r9, sl, lr}
    2638:	e3a06001 	mov	r6, #1
    263c:	e5b12004 	ldr	r2, [r1, #4]!
    2640:	e3520000 	cmp	r2, #0
    2644:	da000009 	ble	2670 <stbi__build_huffman+0x44>
    2648:	e2832c05 	add	r2, r3, #1280	; 0x500
    264c:	e6ef5076 	uxtb	r5, r6
    2650:	e0802002 	add	r2, r0, r2
    2654:	e1a04003 	mov	r4, r3
    2658:	e2833001 	add	r3, r3, #1
    265c:	e4c25001 	strb	r5, [r2], #1
    2660:	e591e000 	ldr	lr, [r1]
    2664:	e043c004 	sub	ip, r3, r4
    2668:	e15e000c 	cmp	lr, ip
    266c:	cafffff9 	bgt	2658 <stbi__build_huffman+0x2c>
    2670:	e2866001 	add	r6, r6, #1
    2674:	e3560011 	cmp	r6, #17
    2678:	1affffef 	bne	263c <stbi__build_huffman+0x10>
    267c:	e0803003 	add	r3, r0, r3
    2680:	e3a0c000 	mov	ip, #0
    2684:	e280ed19 	add	lr, r0, #1600	; 0x640
    2688:	e3a02001 	mov	r2, #1
    268c:	e1a0100c 	mov	r1, ip
    2690:	e28ee00c 	add	lr, lr, #12
    2694:	e1a0400c 	mov	r4, ip
    2698:	e1a05002 	mov	r5, r2
    269c:	e5c3c500 	strb	ip, [r3, #1280]	; 0x500
    26a0:	e3006501 	movw	r6, #1281	; 0x501
    26a4:	ea000006 	b	26c4 <stbi__build_huffman+0x98>
    26a8:	e2623010 	rsb	r3, r2, #16
    26ac:	e2822001 	add	r2, r2, #1
    26b0:	e3520011 	cmp	r2, #17
    26b4:	e1a03311 	lsl	r3, r1, r3
    26b8:	e1a01081 	lsl	r1, r1, #1
    26bc:	e50e3048 	str	r3, [lr, #-72]	; 0xffffffb8
    26c0:	0a000018 	beq	2728 <stbi__build_huffman+0xfc>
    26c4:	e0803004 	add	r3, r0, r4
    26c8:	e044c001 	sub	ip, r4, r1
    26cc:	e5aec004 	str	ip, [lr, #4]!
    26d0:	e5d33500 	ldrb	r3, [r3, #1280]	; 0x500
    26d4:	e1530002 	cmp	r3, r2
    26d8:	1afffff2 	bne	26a8 <stbi__build_huffman+0x7c>
    26dc:	e080c084 	add	ip, r0, r4, lsl #1
    26e0:	e0847006 	add	r7, r4, r6
    26e4:	e28ccf7f 	add	ip, ip, #508	; 0x1fc
    26e8:	e0807007 	add	r7, r0, r7
    26ec:	e28cc002 	add	ip, ip, #2
    26f0:	e1a09004 	mov	r9, r4
    26f4:	e1a03001 	mov	r3, r1
    26f8:	e2833001 	add	r3, r3, #1
    26fc:	e2434001 	sub	r4, r3, #1
    2700:	e1ec40b2 	strh	r4, [ip, #2]!
    2704:	e4d78001 	ldrb	r8, [r7], #1
    2708:	e0834009 	add	r4, r3, r9
    270c:	e0444001 	sub	r4, r4, r1
    2710:	e1580002 	cmp	r8, r2
    2714:	0afffff7 	beq	26f8 <stbi__build_huffman+0xcc>
    2718:	e1530215 	cmp	r3, r5, lsl r2
    271c:	ca000025 	bgt	27b8 <stbi__build_huffman+0x18c>
    2720:	e1a01003 	mov	r1, r3
    2724:	eaffffdf 	b	26a8 <stbi__build_huffman+0x7c>
    2728:	e3e03000 	mvn	r3, #0
    272c:	e3a02c02 	mov	r2, #512	; 0x200
    2730:	e5803648 	str	r3, [r0, #1608]	; 0x648
    2734:	e3a010ff 	mov	r1, #255	; 0xff
    2738:	e1a05000 	mov	r5, r0
    273c:	ebfffffe 	bl	0 <memset>
    2740:	e3540000 	cmp	r4, #0
    2744:	0a000019 	beq	27b0 <stbi__build_huffman+0x184>
    2748:	e285ce4f 	add	ip, r5, #1264	; 0x4f0
    274c:	e3a02000 	mov	r2, #0
    2750:	e28cc00f 	add	ip, ip, #15
    2754:	e3a06001 	mov	r6, #1
    2758:	ea000002 	b	2768 <stbi__build_huffman+0x13c>
    275c:	e2822001 	add	r2, r2, #1
    2760:	e1540002 	cmp	r4, r2
    2764:	0a000011 	beq	27b0 <stbi__build_huffman+0x184>
    2768:	e5fc3001 	ldrb	r3, [ip, #1]!
    276c:	e3530009 	cmp	r3, #9
    2770:	cafffff9 	bgt	275c <stbi__build_huffman+0x130>
    2774:	e1a00082 	lsl	r0, r2, #1
    2778:	e2631009 	rsb	r1, r3, #9
    277c:	e2803c02 	add	r3, r0, #512	; 0x200
    2780:	e0850116 	add	r0, r5, r6, lsl r1
    2784:	e6efe072 	uxtb	lr, r2
    2788:	e19530b3 	ldrh	r3, [r5, r3]
    278c:	e1a03113 	lsl	r3, r3, r1
    2790:	e0801003 	add	r1, r0, r3
    2794:	e0853003 	add	r3, r5, r3
    2798:	e4c3e001 	strb	lr, [r3], #1
    279c:	e1510003 	cmp	r1, r3
    27a0:	1afffffc 	bne	2798 <stbi__build_huffman+0x16c>
    27a4:	e2822001 	add	r2, r2, #1
    27a8:	e1540002 	cmp	r4, r2
    27ac:	1affffed 	bne	2768 <stbi__build_huffman+0x13c>
    27b0:	e3a00001 	mov	r0, #1
    27b4:	e8bd87f0 	pop	{r4, r5, r6, r7, r8, r9, sl, pc}
    27b8:	e3003000 	movw	r3, #0
    27bc:	e3403000 	movt	r3, #0
    27c0:	e3002000 	movw	r2, #0
    27c4:	e3a00000 	mov	r0, #0
    27c8:	e3402000 	movt	r2, #0
    27cc:	e5832000 	str	r2, [r3]
    27d0:	e8bd87f0 	pop	{r4, r5, r6, r7, r8, r9, sl, pc}

000027d4 <stbi__zbuild_huffman>:
    27d4:	e92d4ff0 	push	{r4, r5, r6, r7, r8, r9, sl, fp, lr}
    27d8:	e24dd08c 	sub	sp, sp, #140	; 0x8c
    27dc:	e1a06000 	mov	r6, r0
    27e0:	e1a05001 	mov	r5, r1
    27e4:	e1a07002 	mov	r7, r2
    27e8:	e3a01000 	mov	r1, #0
    27ec:	e3a02044 	mov	r2, #68	; 0x44
    27f0:	e28d0044 	add	r0, sp, #68	; 0x44
    27f4:	ebfffffe 	bl	0 <memset>
    27f8:	e2455001 	sub	r5, r5, #1
    27fc:	e3a01000 	mov	r1, #0
    2800:	e1a00006 	mov	r0, r6
    2804:	e3a02b01 	mov	r2, #1024	; 0x400
    2808:	ebfffffe 	bl	0 <memset>
    280c:	e0850007 	add	r0, r5, r7
    2810:	e1a01005 	mov	r1, r5
    2814:	e5f13001 	ldrb	r3, [r1, #1]!
    2818:	e28d2088 	add	r2, sp, #136	; 0x88
    281c:	e1510000 	cmp	r1, r0
    2820:	e0823103 	add	r3, r2, r3, lsl #2
    2824:	e5132044 	ldr	r2, [r3, #-68]	; 0xffffffbc
    2828:	e2822001 	add	r2, r2, #1
    282c:	e5032044 	str	r2, [r3, #-68]	; 0xffffffbc
    2830:	1afffff7 	bne	2814 <stbi__zbuild_huffman+0x40>
    2834:	e28de044 	add	lr, sp, #68	; 0x44
    2838:	e3a03001 	mov	r3, #1
    283c:	e3a01000 	mov	r1, #0
    2840:	e1a00003 	mov	r0, r3
    2844:	e1a0200e 	mov	r2, lr
    2848:	e58d1044 	str	r1, [sp, #68]	; 0x44
    284c:	ea000001 	b	2858 <stbi__zbuild_huffman+0x84>
    2850:	e3530010 	cmp	r3, #16
    2854:	0a00000b 	beq	2888 <stbi__zbuild_huffman+0xb4>
    2858:	e5b21004 	ldr	r1, [r2, #4]!
    285c:	e1510310 	cmp	r1, r0, lsl r3
    2860:	e2833001 	add	r3, r3, #1
    2864:	dafffff9 	ble	2850 <stbi__zbuild_huffman+0x7c>
    2868:	e3003000 	movw	r3, #0
    286c:	e3403000 	movt	r3, #0
    2870:	e3a00000 	mov	r0, #0
    2874:	e3002000 	movw	r2, #0
    2878:	e3402000 	movt	r2, #0
    287c:	e5832000 	str	r2, [r3]
    2880:	e28dd08c 	add	sp, sp, #140	; 0x8c
    2884:	e8bd8ff0 	pop	{r4, r5, r6, r7, r8, r9, sl, fp, pc}
    2888:	e2861e46 	add	r1, r6, #1120	; 0x460
    288c:	e3a03000 	mov	r3, #0
    2890:	e3a02001 	mov	r2, #1
    2894:	e2811004 	add	r1, r1, #4
    2898:	e28d9004 	add	r9, sp, #4
    289c:	e2868b01 	add	r8, r6, #1024	; 0x400
    28a0:	e286ae42 	add	sl, r6, #1056	; 0x420
    28a4:	e1a04003 	mov	r4, r3
    28a8:	e1a0b002 	mov	fp, r2
    28ac:	e5be0004 	ldr	r0, [lr, #4]!
    28b0:	e262c010 	rsb	ip, r2, #16
    28b4:	e1e830b2 	strh	r3, [r8, #2]!
    28b8:	e3500000 	cmp	r0, #0
    28bc:	e5a93004 	str	r3, [r9, #4]!
    28c0:	e1e140b2 	strh	r4, [r1, #2]!
    28c4:	e0803003 	add	r3, r0, r3
    28c8:	0a000001 	beq	28d4 <stbi__zbuild_huffman+0x100>
    28cc:	e153021b 	cmp	r3, fp, lsl r2
    28d0:	ca00003a 	bgt	29c0 <stbi__zbuild_huffman+0x1ec>
    28d4:	e2822001 	add	r2, r2, #1
    28d8:	e1a0cc13 	lsl	ip, r3, ip
    28dc:	e3520010 	cmp	r2, #16
    28e0:	e5aac004 	str	ip, [sl, #4]!
    28e4:	e1a03083 	lsl	r3, r3, #1
    28e8:	e0844000 	add	r4, r4, r0
    28ec:	1affffee 	bne	28ac <stbi__zbuild_huffman+0xd8>
    28f0:	e3a08000 	mov	r8, #0
    28f4:	e3009464 	movw	r9, #1124	; 0x464
    28f8:	e3a03801 	mov	r3, #65536	; 0x10000
    28fc:	e5863460 	str	r3, [r6, #1120]	; 0x460
    2900:	e5f54001 	ldrb	r4, [r5, #1]!
    2904:	e3540000 	cmp	r4, #0
    2908:	0a000014 	beq	2960 <stbi__zbuild_huffman+0x18c>
    290c:	e0863084 	add	r3, r6, r4, lsl #1
    2910:	e1a0a104 	lsl	sl, r4, #2
    2914:	e28d2088 	add	r2, sp, #136	; 0x88
    2918:	e283cb01 	add	ip, r3, #1024	; 0x400
    291c:	e082e00a 	add	lr, r2, sl
    2920:	e19300b9 	ldrh	r0, [r3, r9]
    2924:	e1dc30b0 	ldrh	r3, [ip]
    2928:	e3540009 	cmp	r4, #9
    292c:	e51eb084 	ldr	fp, [lr, #-132]	; 0xffffff7c
    2930:	e04b3003 	sub	r3, fp, r3
    2934:	e0833000 	add	r3, r3, r0
    2938:	e2830e2d 	add	r0, r3, #720	; 0x2d0
    293c:	e0863003 	add	r3, r6, r3
    2940:	e0860080 	add	r0, r6, r0, lsl #1
    2944:	e5c34484 	strb	r4, [r3, #1156]	; 0x484
    2948:	e1c080b4 	strh	r8, [r0, #4]
    294c:	da000009 	ble	2978 <stbi__zbuild_huffman+0x1a4>
    2950:	e28d3088 	add	r3, sp, #136	; 0x88
    2954:	e28bb001 	add	fp, fp, #1
    2958:	e083200a 	add	r2, r3, sl
    295c:	e502b084 	str	fp, [r2, #-132]	; 0xffffff7c
    2960:	e2888001 	add	r8, r8, #1
    2964:	e1570008 	cmp	r7, r8
    2968:	1affffe4 	bne	2900 <stbi__zbuild_huffman+0x12c>
    296c:	e3a00001 	mov	r0, #1
    2970:	e28dd08c 	add	sp, sp, #140	; 0x8c
    2974:	e8bd8ff0 	pop	{r4, r5, r6, r7, r8, r9, sl, fp, pc}
    2978:	e1a0000b 	mov	r0, fp
    297c:	ebfffb34 	bl	1654 <stbi__bitreverse16>
    2980:	e2643010 	rsb	r3, r4, #16
    2984:	e1a00350 	asr	r0, r0, r3
    2988:	e3500c02 	cmp	r0, #512	; 0x200
    298c:	aaffffef 	bge	2950 <stbi__zbuild_huffman+0x17c>
    2990:	e188c484 	orr	ip, r8, r4, lsl #9
    2994:	e3a03001 	mov	r3, #1
    2998:	e1a0e413 	lsl	lr, r3, r4
    299c:	e3a03002 	mov	r3, #2
    29a0:	e1a04413 	lsl	r4, r3, r4
    29a4:	e6ffc07c 	uxth	ip, ip
    29a8:	e0863080 	add	r3, r6, r0, lsl #1
    29ac:	e080000e 	add	r0, r0, lr
    29b0:	e083c0b4 	strh	ip, [r3], r4
    29b4:	e3500c02 	cmp	r0, #512	; 0x200
    29b8:	bafffffb 	blt	29ac <stbi__zbuild_huffman+0x1d8>
    29bc:	eaffffe3 	b	2950 <stbi__zbuild_huffman+0x17c>
    29c0:	e3003000 	movw	r3, #0
    29c4:	e3403000 	movt	r3, #0
    29c8:	e3a00000 	mov	r0, #0
    29cc:	e3002000 	movw	r2, #0
    29d0:	e3402000 	movt	r2, #0
    29d4:	e5832000 	str	r2, [r3]
    29d8:	e28dd08c 	add	sp, sp, #140	; 0x8c
    29dc:	e8bd8ff0 	pop	{r4, r5, r6, r7, r8, r9, sl, fp, pc}

000029e0 <nvg__setPaintColor>:
    29e0:	e92d4070 	push	{r4, r5, r6, lr}
    29e4:	e24dd010 	sub	sp, sp, #16
    29e8:	e1a04000 	mov	r4, r0
    29ec:	e3a02048 	mov	r2, #72	; 0x48
    29f0:	e3a01000 	mov	r1, #0
    29f4:	e2800004 	add	r0, r0, #4
    29f8:	ed8d0a00 	vstr	s0, [sp]
    29fc:	e2845028 	add	r5, r4, #40	; 0x28
    2a00:	e3a065fe 	mov	r6, #1065353216	; 0x3f800000
    2a04:	edcd0a01 	vstr	s1, [sp, #4]
    2a08:	ed8d1a02 	vstr	s2, [sp, #8]
    2a0c:	edcd1a03 	vstr	s3, [sp, #12]
    2a10:	ebfffffe 	bl	0 <memset>
    2a14:	e1a0c00d 	mov	ip, sp
    2a18:	e284e038 	add	lr, r4, #56	; 0x38
    2a1c:	e89c000f 	ldm	ip, {r0, r1, r2, r3}
    2a20:	e5846000 	str	r6, [r4]
    2a24:	e584600c 	str	r6, [r4, #12]
    2a28:	e5846024 	str	r6, [r4, #36]	; 0x24
    2a2c:	e885000f 	stm	r5, {r0, r1, r2, r3}
    2a30:	e88e000f 	stm	lr, {r0, r1, r2, r3}
    2a34:	e28dd010 	add	sp, sp, #16
    2a38:	e8bd8070 	pop	{r4, r5, r6, pc}

00002a3c <fons__deleteAtlas>:
    2a3c:	e92d4010 	push	{r4, lr}
    2a40:	e2504000 	subs	r4, r0, #0
    2a44:	08bd8010 	popeq	{r4, pc}
    2a48:	e5940008 	ldr	r0, [r4, #8]
    2a4c:	e3500000 	cmp	r0, #0
    2a50:	0a000000 	beq	2a58 <fons__deleteAtlas+0x1c>
    2a54:	ebfffffe 	bl	0 <free>
    2a58:	e1a00004 	mov	r0, r4
    2a5c:	e8bd4010 	pop	{r4, lr}
    2a60:	eafffffe 	b	0 <free>

00002a64 <fons__freeFont>:
    2a64:	e92d4010 	push	{r4, lr}
    2a68:	e2504000 	subs	r4, r0, #0
    2a6c:	08bd8010 	popeq	{r4, pc}
    2a70:	e59400d8 	ldr	r0, [r4, #216]	; 0xd8
    2a74:	e3500000 	cmp	r0, #0
    2a78:	0a000000 	beq	2a80 <fons__freeFont+0x1c>
    2a7c:	ebfffffe 	bl	0 <free>
    2a80:	e5d430c8 	ldrb	r3, [r4, #200]	; 0xc8
    2a84:	e3530000 	cmp	r3, #0
    2a88:	0a000003 	beq	2a9c <fons__freeFont+0x38>
    2a8c:	e59400c0 	ldr	r0, [r4, #192]	; 0xc0
    2a90:	e3500000 	cmp	r0, #0
    2a94:	0a000000 	beq	2a9c <fons__freeFont+0x38>
    2a98:	ebfffffe 	bl	0 <free>
    2a9c:	e1a00004 	mov	r0, r4
    2aa0:	e8bd4010 	pop	{r4, lr}
    2aa4:	eafffffe 	b	0 <free>

00002aa8 <stbi__cleanup_jpeg>:
    2aa8:	e5903000 	ldr	r3, [r0]
    2aac:	e5933008 	ldr	r3, [r3, #8]
    2ab0:	e3530000 	cmp	r3, #0
    2ab4:	d12fff1e 	bxle	lr
    2ab8:	e92d41f0 	push	{r4, r5, r6, r7, r8, lr}
    2abc:	e2804c45 	add	r4, r0, #17664	; 0x4500
    2ac0:	e3a05000 	mov	r5, #0
    2ac4:	e28440c8 	add	r4, r4, #200	; 0xc8
    2ac8:	e1a07000 	mov	r7, r0
    2acc:	e1a06005 	mov	r6, r5
    2ad0:	e5940004 	ldr	r0, [r4, #4]
    2ad4:	e2855001 	add	r5, r5, #1
    2ad8:	e3500000 	cmp	r0, #0
    2adc:	0a000002 	beq	2aec <stbi__cleanup_jpeg+0x44>
    2ae0:	ebfffffe 	bl	0 <free>
    2ae4:	e5846004 	str	r6, [r4, #4]
    2ae8:	e5846000 	str	r6, [r4]
    2aec:	e5940008 	ldr	r0, [r4, #8]
    2af0:	e3500000 	cmp	r0, #0
    2af4:	0a000002 	beq	2b04 <stbi__cleanup_jpeg+0x5c>
    2af8:	ebfffffe 	bl	0 <free>
    2afc:	e5846008 	str	r6, [r4, #8]
    2b00:	e5846010 	str	r6, [r4, #16]
    2b04:	e594000c 	ldr	r0, [r4, #12]
    2b08:	e3500000 	cmp	r0, #0
    2b0c:	0a000001 	beq	2b18 <stbi__cleanup_jpeg+0x70>
    2b10:	ebfffffe 	bl	0 <free>
    2b14:	e584600c 	str	r6, [r4, #12]
    2b18:	e5973000 	ldr	r3, [r7]
    2b1c:	e2844048 	add	r4, r4, #72	; 0x48
    2b20:	e5933008 	ldr	r3, [r3, #8]
    2b24:	e1530005 	cmp	r3, r5
    2b28:	caffffe8 	bgt	2ad0 <stbi__cleanup_jpeg+0x28>
    2b2c:	e8bd81f0 	pop	{r4, r5, r6, r7, r8, pc}

00002b30 <nvg__deletePathCache>:
    2b30:	e92d4010 	push	{r4, lr}
    2b34:	e2504000 	subs	r4, r0, #0
    2b38:	08bd8010 	popeq	{r4, pc}
    2b3c:	e5940000 	ldr	r0, [r4]
    2b40:	e3500000 	cmp	r0, #0
    2b44:	0a000000 	beq	2b4c <nvg__deletePathCache+0x1c>
    2b48:	ebfffffe 	bl	0 <free>
    2b4c:	e594000c 	ldr	r0, [r4, #12]
    2b50:	e3500000 	cmp	r0, #0
    2b54:	0a000000 	beq	2b5c <nvg__deletePathCache+0x2c>
    2b58:	ebfffffe 	bl	0 <free>
    2b5c:	e5940018 	ldr	r0, [r4, #24]
    2b60:	e3500000 	cmp	r0, #0
    2b64:	0a000000 	beq	2b6c <nvg__deletePathCache+0x3c>
    2b68:	ebfffffe 	bl	0 <free>
    2b6c:	e1a00004 	mov	r0, r4
    2b70:	e8bd4010 	pop	{r4, lr}
    2b74:	eafffffe 	b	0 <free>

00002b78 <fons__atlasInsertNode>:
    2b78:	e92d47f0 	push	{r4, r5, r6, r7, r8, r9, sl, lr}
    2b7c:	e1a07002 	mov	r7, r2
    2b80:	e590900c 	ldr	r9, [r0, #12]
    2b84:	e1a08003 	mov	r8, r3
    2b88:	e5902010 	ldr	r2, [r0, #16]
    2b8c:	e1a05000 	mov	r5, r0
    2b90:	e1a06001 	mov	r6, r1
    2b94:	e5903008 	ldr	r3, [r0, #8]
    2b98:	e1590002 	cmp	r9, r2
    2b9c:	ba00000d 	blt	2bd8 <fons__atlasInsertNode+0x60>
    2ba0:	e3520000 	cmp	r2, #0
    2ba4:	11a02082 	lslne	r2, r2, #1
    2ba8:	13a01006 	movne	r1, #6
    2bac:	03a02008 	moveq	r2, #8
    2bb0:	10010291 	mulne	r1, r1, r2
    2bb4:	03a01030 	moveq	r1, #48	; 0x30
    2bb8:	e5802010 	str	r2, [r0, #16]
    2bbc:	e1a00003 	mov	r0, r3
    2bc0:	ebfffffe 	bl	0 <realloc>
    2bc4:	e3500000 	cmp	r0, #0
    2bc8:	e5850008 	str	r0, [r5, #8]
    2bcc:	e1a03000 	mov	r3, r0
    2bd0:	08bd87f0 	popeq	{r4, r5, r6, r7, r8, r9, sl, pc}
    2bd4:	e595900c 	ldr	r9, [r5, #12]
    2bd8:	e1560009 	cmp	r6, r9
    2bdc:	aa00000a 	bge	2c0c <fons__atlasInsertNode+0x94>
    2be0:	e3a04006 	mov	r4, #6
    2be4:	e0213994 	mla	r1, r4, r9, r3
    2be8:	e0243694 	mla	r4, r4, r6, r3
    2bec:	e1a0c001 	mov	ip, r1
    2bf0:	e53ce006 	ldr	lr, [ip, #-6]!
    2bf4:	e15c0004 	cmp	ip, r4
    2bf8:	e581e000 	str	lr, [r1]
    2bfc:	e1dce0b4 	ldrh	lr, [ip, #4]
    2c00:	e1c1e0b4 	strh	lr, [r1, #4]
    2c04:	e1a0100c 	mov	r1, ip
    2c08:	1afffff7 	bne	2bec <fons__atlasInsertNode+0x74>
    2c0c:	e3a02006 	mov	r2, #6
    2c10:	e2899001 	add	r9, r9, #1
    2c14:	e0060692 	mul	r6, r2, r6
    2c18:	e3a00001 	mov	r0, #1
    2c1c:	e0832006 	add	r2, r3, r6
    2c20:	e18370b6 	strh	r7, [r3, r6]
    2c24:	e59d3020 	ldr	r3, [sp, #32]
    2c28:	e1c280b2 	strh	r8, [r2, #2]
    2c2c:	e1c230b4 	strh	r3, [r2, #4]
    2c30:	e585900c 	str	r9, [r5, #12]
    2c34:	e8bd87f0 	pop	{r4, r5, r6, r7, r8, r9, sl, pc}

00002c38 <fons__atlasAddRect>:
    2c38:	e92d4ff0 	push	{r4, r5, r6, r7, r8, r9, sl, fp, lr}
    2c3c:	e24dd02c 	sub	sp, sp, #44	; 0x2c
    2c40:	e590600c 	ldr	r6, [r0, #12]
    2c44:	e58d0020 	str	r0, [sp, #32]
    2c48:	e3560000 	cmp	r6, #0
    2c4c:	e58d3024 	str	r3, [sp, #36]	; 0x24
    2c50:	e5908004 	ldr	r8, [r0, #4]
    2c54:	e590b000 	ldr	fp, [r0]
    2c58:	da000073 	ble	2e2c <fons__atlasAddRect+0x1f4>
    2c5c:	e59d3020 	ldr	r3, [sp, #32]
    2c60:	e3a09000 	mov	r9, #0
    2c64:	e58db01c 	str	fp, [sp, #28]
    2c68:	e58d800c 	str	r8, [sp, #12]
    2c6c:	e5937008 	ldr	r7, [r3, #8]
    2c70:	e3e03000 	mvn	r3, #0
    2c74:	e58d3014 	str	r3, [sp, #20]
    2c78:	e2877006 	add	r7, r7, #6
    2c7c:	e58d3018 	str	r3, [sp, #24]
    2c80:	e58d3010 	str	r3, [sp, #16]
    2c84:	e157a0f6 	ldrsh	sl, [r7, #-6]
    2c88:	e15730f4 	ldrsh	r3, [r7, #-4]
    2c8c:	e081000a 	add	r0, r1, sl
    2c90:	e15b0000 	cmp	fp, r0
    2c94:	ba000026 	blt	2d34 <fons__atlasAddRect+0xfc>
    2c98:	e3510000 	cmp	r1, #0
    2c9c:	da000018 	ble	2d04 <fons__atlasAddRect+0xcc>
    2ca0:	e1590006 	cmp	r9, r6
    2ca4:	0a000022 	beq	2d34 <fons__atlasAddRect+0xfc>
    2ca8:	e0820003 	add	r0, r2, r3
    2cac:	e1500008 	cmp	r0, r8
    2cb0:	ca00001f 	bgt	2d34 <fons__atlasAddRect+0xfc>
    2cb4:	e247c006 	sub	ip, r7, #6
    2cb8:	e1a04007 	mov	r4, r7
    2cbc:	e1a00001 	mov	r0, r1
    2cc0:	e1a0e009 	mov	lr, r9
    2cc4:	ea000008 	b	2cec <fons__atlasAddRect+0xb4>
    2cc8:	e15e0006 	cmp	lr, r6
    2ccc:	0a000018 	beq	2d34 <fons__atlasAddRect+0xfc>
    2cd0:	e1d450f2 	ldrsh	r5, [r4, #2]
    2cd4:	e2844006 	add	r4, r4, #6
    2cd8:	e1530005 	cmp	r3, r5
    2cdc:	b1a03005 	movlt	r3, r5
    2ce0:	e0825003 	add	r5, r2, r3
    2ce4:	e1580005 	cmp	r8, r5
    2ce8:	ba000011 	blt	2d34 <fons__atlasAddRect+0xfc>
    2cec:	e1dc50f4 	ldrsh	r5, [ip, #4]
    2cf0:	e28ee001 	add	lr, lr, #1
    2cf4:	e28cc006 	add	ip, ip, #6
    2cf8:	e0400005 	sub	r0, r0, r5
    2cfc:	e3500000 	cmp	r0, #0
    2d00:	cafffff0 	bgt	2cc8 <fons__atlasAddRect+0x90>
    2d04:	e3730001 	cmn	r3, #1
    2d08:	0a000009 	beq	2d34 <fons__atlasAddRect+0xfc>
    2d0c:	e59dc00c 	ldr	ip, [sp, #12]
    2d10:	e0820003 	add	r0, r2, r3
    2d14:	e150000c 	cmp	r0, ip
    2d18:	aa000046 	bge	2e38 <fons__atlasAddRect+0x200>
    2d1c:	e157c0f2 	ldrsh	ip, [r7, #-2]
    2d20:	e58dc01c 	str	ip, [sp, #28]
    2d24:	e58d3014 	str	r3, [sp, #20]
    2d28:	e58da018 	str	sl, [sp, #24]
    2d2c:	e58d000c 	str	r0, [sp, #12]
    2d30:	e58d9010 	str	r9, [sp, #16]
    2d34:	e2899001 	add	r9, r9, #1
    2d38:	e2877006 	add	r7, r7, #6
    2d3c:	e1590006 	cmp	r9, r6
    2d40:	1affffcf 	bne	2c84 <fons__atlasAddRect+0x4c>
    2d44:	e59d6010 	ldr	r6, [sp, #16]
    2d48:	e3760001 	cmn	r6, #1
    2d4c:	0a000036 	beq	2e2c <fons__atlasAddRect+0x1f4>
    2d50:	e59d5020 	ldr	r5, [sp, #32]
    2d54:	e59d3014 	ldr	r3, [sp, #20]
    2d58:	e58d1000 	str	r1, [sp]
    2d5c:	e1a01006 	mov	r1, r6
    2d60:	e0833002 	add	r3, r3, r2
    2d64:	e1a00005 	mov	r0, r5
    2d68:	e59d2018 	ldr	r2, [sp, #24]
    2d6c:	e59d4024 	ldr	r4, [sp, #36]	; 0x24
    2d70:	ebffff80 	bl	2b78 <fons__atlasInsertNode>
    2d74:	e3500000 	cmp	r0, #0
    2d78:	0a00002b 	beq	2e2c <fons__atlasAddRect+0x1f4>
    2d7c:	e595700c 	ldr	r7, [r5, #12]
    2d80:	e2869001 	add	r9, r6, #1
    2d84:	e3a08006 	mov	r8, #6
    2d88:	e0000998 	mul	r0, r8, r9
    2d8c:	e0080798 	mul	r8, r8, r7
    2d90:	e2406006 	sub	r6, r0, #6
    2d94:	e1570009 	cmp	r7, r9
    2d98:	da00002d 	ble	2e54 <fons__atlasAddRect+0x21c>
    2d9c:	e5952008 	ldr	r2, [r5, #8]
    2da0:	e0821006 	add	r1, r2, r6
    2da4:	e082c000 	add	ip, r2, r0
    2da8:	e19230f6 	ldrsh	r3, [r2, r6]
    2dac:	e1d1a0f4 	ldrsh	sl, [r1, #4]
    2db0:	e192e0f0 	ldrsh	lr, [r2, r0]
    2db4:	e083300a 	add	r3, r3, sl
    2db8:	e15e0003 	cmp	lr, r3
    2dbc:	aa000024 	bge	2e54 <fons__atlasAddRect+0x21c>
    2dc0:	e043300e 	sub	r3, r3, lr
    2dc4:	e1dca0b4 	ldrh	sl, [ip, #4]
    2dc8:	e6ff3073 	uxth	r3, r3
    2dcc:	e04aa003 	sub	sl, sl, r3
    2dd0:	e083300e 	add	r3, r3, lr
    2dd4:	e18230b0 	strh	r3, [r2, r0]
    2dd8:	e6bf307a 	sxth	r3, sl
    2ddc:	e1cc30b4 	strh	r3, [ip, #4]
    2de0:	e3530000 	cmp	r3, #0
    2de4:	ca00001a 	bgt	2e54 <fons__atlasAddRect+0x21c>
    2de8:	e2477001 	sub	r7, r7, #1
    2dec:	e1590007 	cmp	r9, r7
    2df0:	aa00000a 	bge	2e20 <fons__atlasAddRect+0x1e8>
    2df4:	e248300c 	sub	r3, r8, #12
    2df8:	e0822003 	add	r2, r2, r3
    2dfc:	e1a03001 	mov	r3, r1
    2e00:	e281c006 	add	ip, r1, #6
    2e04:	e5b3e00c 	ldr	lr, [r3, #12]!
    2e08:	e152000c 	cmp	r2, ip
    2e0c:	e581e006 	str	lr, [r1, #6]
    2e10:	e1a0100c 	mov	r1, ip
    2e14:	e1d330b4 	ldrh	r3, [r3, #4]
    2e18:	e1cc30b4 	strh	r3, [ip, #4]
    2e1c:	1afffff6 	bne	2dfc <fons__atlasAddRect+0x1c4>
    2e20:	e2488006 	sub	r8, r8, #6
    2e24:	e585700c 	str	r7, [r5, #12]
    2e28:	eaffffd9 	b	2d94 <fons__atlasAddRect+0x15c>
    2e2c:	e3a00000 	mov	r0, #0
    2e30:	e28dd02c 	add	sp, sp, #44	; 0x2c
    2e34:	e8bd8ff0 	pop	{r4, r5, r6, r7, r8, r9, sl, fp, pc}
    2e38:	1affffbd 	bne	2d34 <fons__atlasAddRect+0xfc>
    2e3c:	e157c0f2 	ldrsh	ip, [r7, #-2]
    2e40:	e59de01c 	ldr	lr, [sp, #28]
    2e44:	e15c000e 	cmp	ip, lr
    2e48:	aaffffb9 	bge	2d34 <fons__atlasAddRect+0xfc>
    2e4c:	e58dc01c 	str	ip, [sp, #28]
    2e50:	eaffffb3 	b	2d24 <fons__atlasAddRect+0xec>
    2e54:	e2470001 	sub	r0, r7, #1
    2e58:	e3500000 	cmp	r0, #0
    2e5c:	da00001c 	ble	2ed4 <fons__atlasAddRect+0x29c>
    2e60:	e595c008 	ldr	ip, [r5, #8]
    2e64:	e3a01000 	mov	r1, #0
    2e68:	e3a09006 	mov	r9, #6
    2e6c:	e24ca006 	sub	sl, ip, #6
    2e70:	ea000004 	b	2e88 <fons__atlasAddRect+0x250>
    2e74:	e595700c 	ldr	r7, [r5, #12]
    2e78:	e1a0100e 	mov	r1, lr
    2e7c:	e2470001 	sub	r0, r7, #1
    2e80:	e1500001 	cmp	r0, r1
    2e84:	da000012 	ble	2ed4 <fons__atlasAddRect+0x29c>
    2e88:	e0030199 	mul	r3, r9, r1
    2e8c:	e281e001 	add	lr, r1, #1
    2e90:	e2832006 	add	r2, r3, #6
    2e94:	e08c3003 	add	r3, ip, r3
    2e98:	e08c2002 	add	r2, ip, r2
    2e9c:	e1d380f2 	ldrsh	r8, [r3, #2]
    2ea0:	e1d260f2 	ldrsh	r6, [r2, #2]
    2ea4:	e1580006 	cmp	r8, r6
    2ea8:	1afffff1 	bne	2e74 <fons__atlasAddRect+0x23c>
    2eac:	e1d260b4 	ldrh	r6, [r2, #4]
    2eb0:	e3570000 	cmp	r7, #0
    2eb4:	e1d320b4 	ldrh	r2, [r3, #4]
    2eb8:	e0822006 	add	r2, r2, r6
    2ebc:	e1c320b4 	strh	r2, [r3, #4]
    2ec0:	1a00000b 	bne	2ef4 <fons__atlasAddRect+0x2bc>
    2ec4:	e595700c 	ldr	r7, [r5, #12]
    2ec8:	e2470001 	sub	r0, r7, #1
    2ecc:	e1500001 	cmp	r0, r1
    2ed0:	caffffec 	bgt	2e88 <fons__atlasAddRect+0x250>
    2ed4:	e59d3018 	ldr	r3, [sp, #24]
    2ed8:	e3a00001 	mov	r0, #1
    2edc:	e59d2014 	ldr	r2, [sp, #20]
    2ee0:	e5843000 	str	r3, [r4]
    2ee4:	e59d3050 	ldr	r3, [sp, #80]	; 0x50
    2ee8:	e5832000 	str	r2, [r3]
    2eec:	e28dd02c 	add	sp, sp, #44	; 0x2c
    2ef0:	e8bd8ff0 	pop	{r4, r5, r6, r7, r8, r9, sl, fp, pc}
    2ef4:	e150000e 	cmp	r0, lr
    2ef8:	da000009 	ble	2f24 <fons__atlasAddRect+0x2ec>
    2efc:	e027a099 	mla	r7, r9, r0, sl
    2f00:	e1a02003 	mov	r2, r3
    2f04:	e5b2600c 	ldr	r6, [r2, #12]!
    2f08:	e283e006 	add	lr, r3, #6
    2f0c:	e157000e 	cmp	r7, lr
    2f10:	e5836006 	str	r6, [r3, #6]
    2f14:	e1a0300e 	mov	r3, lr
    2f18:	e1d220b4 	ldrh	r2, [r2, #4]
    2f1c:	e1ce20b4 	strh	r2, [lr, #4]
    2f20:	1afffff6 	bne	2f00 <fons__atlasAddRect+0x2c8>
    2f24:	e1a07000 	mov	r7, r0
    2f28:	e585000c 	str	r0, [r5, #12]
    2f2c:	eaffffd2 	b	2e7c <fons__atlasAddRect+0x244>

00002f30 <nvg__addPoint>:
    2f30:	e92d47f0 	push	{r4, r5, r6, r7, r8, r9, sl, lr}
    2f34:	e2805a02 	add	r5, r0, #8192	; 0x2000
    2f38:	e5952250 	ldr	r2, [r5, #592]	; 0x250
    2f3c:	e5920010 	ldr	r0, [r2, #16]
    2f40:	e3500000 	cmp	r0, #0
    2f44:	d8bd87f0 	pople	{r4, r5, r6, r7, r8, r9, sl, pc}
    2f48:	e3a03028 	mov	r3, #40	; 0x28
    2f4c:	e592400c 	ldr	r4, [r2, #12]
    2f50:	e0030093 	mul	r3, r3, r0
    2f54:	e2433028 	sub	r3, r3, #40	; 0x28
    2f58:	e0944003 	adds	r4, r4, r3
    2f5c:	08bd87f0 	popeq	{r4, r5, r6, r7, r8, r9, sl, pc}
    2f60:	e5940004 	ldr	r0, [r4, #4]
    2f64:	e5923004 	ldr	r3, [r2, #4]
    2f68:	e3500000 	cmp	r0, #0
    2f6c:	e5920000 	ldr	r0, [r2]
    2f70:	da00000e 	ble	2fb0 <nvg__addPoint+0x80>
    2f74:	e3530000 	cmp	r3, #0
    2f78:	da00000c 	ble	2fb0 <nvg__addPoint+0x80>
    2f7c:	e243c37e 	sub	ip, r3, #-134217727	; 0xf8000001
    2f80:	ed957a96 	vldr	s14, [r5, #600]	; 0x258
    2f84:	e080c28c 	add	ip, r0, ip, lsl #5
    2f88:	eddc7a01 	vldr	s15, [ip, #4]
    2f8c:	eddc6a00 	vldr	s13, [ip]
    2f90:	ee707ae7 	vsub.f32	s15, s1, s15
    2f94:	ee677aa7 	vmul.f32	s15, s15, s15
    2f98:	ee706a66 	vsub.f32	s13, s0, s13
    2f9c:	ee467aa6 	vmla.f32	s15, s13, s13
    2fa0:	ee277a07 	vmul.f32	s14, s14, s14
    2fa4:	eef47ac7 	vcmpe.f32	s15, s14
    2fa8:	eef1fa10 	vmrs	APSR_nzcv, fpscr
    2fac:	4a000023 	bmi	3040 <nvg__addPoint+0x110>
    2fb0:	e5922008 	ldr	r2, [r2, #8]
    2fb4:	e1a08001 	mov	r8, r1
    2fb8:	ee106a90 	vmov	r6, s1
    2fbc:	e1520003 	cmp	r2, r3
    2fc0:	ee107a10 	vmov	r7, s0
    2fc4:	ca00000a 	bgt	2ff4 <nvg__addPoint+0xc4>
    2fc8:	e0822fa2 	add	r2, r2, r2, lsr #31
    2fcc:	e2833001 	add	r3, r3, #1
    2fd0:	e08390c2 	add	r9, r3, r2, asr #1
    2fd4:	e1a01289 	lsl	r1, r9, #5
    2fd8:	ebfffffe 	bl	0 <realloc>
    2fdc:	e3500000 	cmp	r0, #0
    2fe0:	08bd87f0 	popeq	{r4, r5, r6, r7, r8, r9, sl, pc}
    2fe4:	e5952250 	ldr	r2, [r5, #592]	; 0x250
    2fe8:	e5923004 	ldr	r3, [r2, #4]
    2fec:	e5820000 	str	r0, [r2]
    2ff0:	e5829008 	str	r9, [r2, #8]
    2ff4:	e0800283 	add	r0, r0, r3, lsl #5
    2ff8:	e3a03000 	mov	r3, #0
    2ffc:	e580301c 	str	r3, [r0, #28]
    3000:	e5803008 	str	r3, [r0, #8]
    3004:	e580300c 	str	r3, [r0, #12]
    3008:	e5803010 	str	r3, [r0, #16]
    300c:	e5803014 	str	r3, [r0, #20]
    3010:	e5803018 	str	r3, [r0, #24]
    3014:	e5c0801c 	strb	r8, [r0, #28]
    3018:	e5951250 	ldr	r1, [r5, #592]	; 0x250
    301c:	e5943004 	ldr	r3, [r4, #4]
    3020:	e5807000 	str	r7, [r0]
    3024:	e5912004 	ldr	r2, [r1, #4]
    3028:	e2833001 	add	r3, r3, #1
    302c:	e5806004 	str	r6, [r0, #4]
    3030:	e2822001 	add	r2, r2, #1
    3034:	e5812004 	str	r2, [r1, #4]
    3038:	e5843004 	str	r3, [r4, #4]
    303c:	e8bd87f0 	pop	{r4, r5, r6, r7, r8, r9, sl, pc}
    3040:	e5dc801c 	ldrb	r8, [ip, #28]
    3044:	e1881001 	orr	r1, r8, r1
    3048:	e5cc101c 	strb	r1, [ip, #28]
    304c:	e8bd87f0 	pop	{r4, r5, r6, r7, r8, r9, sl, pc}

00003050 <nvg__tesselateBezier>:
    3050:	e351000b 	cmp	r1, #11
    3054:	012fff1e 	bxeq	lr
    3058:	e92d41f0 	push	{r4, r5, r6, r7, r8, lr}
    305c:	e2806a02 	add	r6, r0, #8192	; 0x2000
    3060:	ed2d8b0a 	vpush	{d8-d12}
    3064:	e1a04001 	mov	r4, r1
    3068:	e1a05000 	mov	r5, r0
    306c:	e1a07002 	mov	r7, r2
    3070:	eeb69a00 	vmov.f32	s18, #96	; 0x3f000000  0.5
    3074:	eef08a40 	vmov.f32	s17, s0
    3078:	eeb08a60 	vmov.f32	s16, s1
    307c:	eef09a41 	vmov.f32	s19, s2
    3080:	eeb0aa61 	vmov.f32	s20, s3
    3084:	eeb0ca42 	vmov.f32	s24, s4
    3088:	eef0ba62 	vmov.f32	s23, s5
    308c:	eef0aa43 	vmov.f32	s21, s6
    3090:	eeb0ba63 	vmov.f32	s22, s7
    3094:	e2844001 	add	r4, r4, #1
    3098:	e3a02000 	mov	r2, #0
    309c:	e1a00005 	mov	r0, r5
    30a0:	e1a01004 	mov	r1, r4
    30a4:	ee3b5a48 	vsub.f32	s10, s22, s16
    30a8:	ee7a4ae8 	vsub.f32	s9, s21, s17
    30ac:	ee3a4a4b 	vsub.f32	s8, s20, s22
    30b0:	ee3b6acb 	vsub.f32	s12, s23, s22
    30b4:	ee655a05 	vmul.f32	s11, s10, s10
    30b8:	ee244a24 	vmul.f32	s8, s8, s9
    30bc:	ee666a24 	vmul.f32	s13, s12, s9
    30c0:	ee396aea 	vsub.f32	s12, s19, s21
    30c4:	ee445aa4 	vmla.f32	s11, s9, s9
    30c8:	ee7c4a6a 	vsub.f32	s9, s24, s21
    30cc:	ee164a05 	vnmls.f32	s8, s12, s10
    30d0:	ee546a85 	vnmls.f32	s13, s9, s10
    30d4:	ed965a95 	vldr	s10, [r6, #596]	; 0x254
    30d8:	ee387aa9 	vadd.f32	s14, s17, s19
    30dc:	ee787a0a 	vadd.f32	s15, s16, s20
    30e0:	ee799a8c 	vadd.f32	s19, s19, s24
    30e4:	ee3aaa2b 	vadd.f32	s20, s20, s23
    30e8:	eeb54ac0 	vcmpe.f32	s8, #0.0
    30ec:	ee277a09 	vmul.f32	s14, s14, s18
    30f0:	eef1fa10 	vmrs	APSR_nzcv, fpscr
    30f4:	ee677a89 	vmul.f32	s15, s15, s18
    30f8:	eef56ac0 	vcmpe.f32	s13, #0.0
    30fc:	ee699a89 	vmul.f32	s19, s19, s18
    3100:	ee2aaa09 	vmul.f32	s20, s20, s18
    3104:	eeb06a44 	vmov.f32	s12, s8
    3108:	beb16a44 	vneglt.f32	s12, s8
    310c:	eef1fa10 	vmrs	APSR_nzcv, fpscr
    3110:	bef16a66 	vneglt.f32	s13, s13
    3114:	ee766a86 	vadd.f32	s13, s13, s12
    3118:	eeb01a47 	vmov.f32	s2, s14
    311c:	eef01a67 	vmov.f32	s3, s15
    3120:	ee377a29 	vadd.f32	s14, s14, s19
    3124:	ee777a8a 	vadd.f32	s15, s15, s20
    3128:	ee655a85 	vmul.f32	s11, s11, s10
    312c:	ee666aa6 	vmul.f32	s13, s13, s13
    3130:	ee277a09 	vmul.f32	s14, s14, s18
    3134:	ee677a89 	vmul.f32	s15, s15, s18
    3138:	ee3aca8c 	vadd.f32	s24, s21, s24
    313c:	ee7bba2b 	vadd.f32	s23, s22, s23
    3140:	eef46ae5 	vcmpe.f32	s13, s11
    3144:	eef00a48 	vmov.f32	s1, s16
    3148:	eef1fa10 	vmrs	APSR_nzcv, fpscr
    314c:	eeb00a68 	vmov.f32	s0, s17
    3150:	eeb02a47 	vmov.f32	s4, s14
    3154:	eef02a67 	vmov.f32	s5, s15
    3158:	ee2cca09 	vmul.f32	s24, s24, s18
    315c:	ee6bba89 	vmul.f32	s23, s23, s18
    3160:	4a00000e 	bmi	31a0 <nvg__tesselateBezier+0x150>
    3164:	ee799a8c 	vadd.f32	s19, s19, s24
    3168:	ee3aaa2b 	vadd.f32	s20, s20, s23
    316c:	ee699a89 	vmul.f32	s19, s19, s18
    3170:	ee2aaa09 	vmul.f32	s20, s20, s18
    3174:	ee377a29 	vadd.f32	s14, s14, s19
    3178:	ee777a8a 	vadd.f32	s15, s15, s20
    317c:	ee678a09 	vmul.f32	s17, s14, s18
    3180:	ee278a89 	vmul.f32	s16, s15, s18
    3184:	eeb03a68 	vmov.f32	s6, s17
    3188:	eef03a48 	vmov.f32	s7, s16
    318c:	ebffffaf 	bl	3050 <nvg__tesselateBezier>
    3190:	e354000b 	cmp	r4, #11
    3194:	1affffbe 	bne	3094 <nvg__tesselateBezier+0x44>
    3198:	ecbd8b0a 	vpop	{d8-d12}
    319c:	e8bd81f0 	pop	{r4, r5, r6, r7, r8, pc}
    31a0:	eef00a4b 	vmov.f32	s1, s22
    31a4:	e1a01007 	mov	r1, r7
    31a8:	eeb00a6a 	vmov.f32	s0, s21
    31ac:	ecbd8b0a 	vpop	{d8-d12}
    31b0:	e8bd41f0 	pop	{r4, r5, r6, r7, r8, lr}
    31b4:	eaffff5d 	b	2f30 <nvg__addPoint>

000031b8 <nvg__appendCommands>:
    31b8:	e92d47f0 	push	{r4, r5, r6, r7, r8, r9, sl, lr}
    31bc:	e2803a02 	add	r3, r0, #8192	; 0x2000
    31c0:	e5908040 	ldr	r8, [r0, #64]	; 0x40
    31c4:	e1a05002 	mov	r5, r2
    31c8:	e590203c 	ldr	r2, [r0, #60]	; 0x3c
    31cc:	e1a04001 	mov	r4, r1
    31d0:	e0881005 	add	r1, r8, r5
    31d4:	e593724c 	ldr	r7, [r3, #588]	; 0x24c
    31d8:	e1510002 	cmp	r1, r2
    31dc:	e1a06000 	mov	r6, r0
    31e0:	e2477001 	sub	r7, r7, #1
    31e4:	e5900038 	ldr	r0, [r0, #56]	; 0x38
    31e8:	ca000071 	bgt	33b4 <nvg__appendCommands+0x1fc>
    31ec:	edd47a00 	vldr	s15, [r4]
    31f0:	eefd7ae7 	vcvt.s32.f32	s15, s15
    31f4:	ee172a90 	vmov	r2, s15
    31f8:	e2422003 	sub	r2, r2, #3
    31fc:	e3520001 	cmp	r2, #1
    3200:	9a000005 	bls	321c <nvg__appendCommands+0x64>
    3204:	e245310b 	sub	r3, r5, #-1073741822	; 0xc0000002
    3208:	e0843103 	add	r3, r4, r3, lsl #2
    320c:	e5932000 	ldr	r2, [r3]
    3210:	e5862044 	str	r2, [r6, #68]	; 0x44
    3214:	e5933004 	ldr	r3, [r3, #4]
    3218:	e5863048 	str	r3, [r6, #72]	; 0x48
    321c:	e3550000 	cmp	r5, #0
    3220:	da000027 	ble	32c4 <nvg__appendCommands+0x10c>
    3224:	e3a03e11 	mov	r3, #272	; 0x110
    3228:	e3a0c000 	mov	ip, #0
    322c:	e0236793 	mla	r3, r3, r7, r6
    3230:	e2833f43 	add	r3, r3, #268	; 0x10c
    3234:	e1a0210c 	lsl	r2, ip, #2
    3238:	e0841002 	add	r1, r4, r2
    323c:	edd17a00 	vldr	s15, [r1]
    3240:	eefd7ae7 	vcvt.s32.f32	s15, s15
    3244:	ee171a90 	vmov	r1, s15
    3248:	e3510004 	cmp	r1, #4
    324c:	979ff101 	ldrls	pc, [pc, r1, lsl #2]
    3250:	ea000023 	b	32e4 <nvg__appendCommands+0x12c>
    3254:	00003268 	.word	0x00003268
    3258:	00003268 	.word	0x00003268
    325c:	000032f4 	.word	0x000032f4
    3260:	000032e4 	.word	0x000032e4
    3264:	000032ec 	.word	0x000032ec
    3268:	e2821008 	add	r1, r2, #8
    326c:	ed937a02 	vldr	s14, [r3, #8]
    3270:	e0841001 	add	r1, r4, r1
    3274:	e2822004 	add	r2, r2, #4
    3278:	e0842002 	add	r2, r4, r2
    327c:	e28cc003 	add	ip, ip, #3
    3280:	edd17a00 	vldr	s15, [r1]
    3284:	ee277a87 	vmul.f32	s14, s15, s14
    3288:	edd26a00 	vldr	s13, [r2]
    328c:	edd35a00 	vldr	s11, [r3]
    3290:	ed936a04 	vldr	s12, [r3, #16]
    3294:	ee067aa5 	vmla.f32	s14, s13, s11
    3298:	ee377a06 	vadd.f32	s14, s14, s12
    329c:	ed827a00 	vstr	s14, [r2]
    32a0:	ed937a03 	vldr	s14, [r3, #12]
    32a4:	ed936a01 	vldr	s12, [r3, #4]
    32a8:	ee677a87 	vmul.f32	s15, s15, s14
    32ac:	ed937a05 	vldr	s14, [r3, #20]
    32b0:	ee467a86 	vmla.f32	s15, s13, s12
    32b4:	ee777a87 	vadd.f32	s15, s15, s14
    32b8:	edc17a00 	vstr	s15, [r1]
    32bc:	e15c0005 	cmp	ip, r5
    32c0:	baffffdb 	blt	3234 <nvg__appendCommands+0x7c>
    32c4:	e1a02105 	lsl	r2, r5, #2
    32c8:	e1a01004 	mov	r1, r4
    32cc:	e0800108 	add	r0, r0, r8, lsl #2
    32d0:	ebfffffe 	bl	0 <memcpy>
    32d4:	e5963040 	ldr	r3, [r6, #64]	; 0x40
    32d8:	e0835005 	add	r5, r3, r5
    32dc:	e5865040 	str	r5, [r6, #64]	; 0x40
    32e0:	e8bd87f0 	pop	{r4, r5, r6, r7, r8, r9, sl, pc}
    32e4:	e28cc001 	add	ip, ip, #1
    32e8:	eafffff3 	b	32bc <nvg__appendCommands+0x104>
    32ec:	e28cc002 	add	ip, ip, #2
    32f0:	eafffff1 	b	32bc <nvg__appendCommands+0x104>
    32f4:	e2829008 	add	r9, r2, #8
    32f8:	ed937a02 	vldr	s14, [r3, #8]
    32fc:	e0849009 	add	r9, r4, r9
    3300:	e282a004 	add	sl, r2, #4
    3304:	e084a00a 	add	sl, r4, sl
    3308:	e282e010 	add	lr, r2, #16
    330c:	edd97a00 	vldr	s15, [r9]
    3310:	e084e00e 	add	lr, r4, lr
    3314:	e282700c 	add	r7, r2, #12
    3318:	e2821018 	add	r1, r2, #24
    331c:	e0847007 	add	r7, r4, r7
    3320:	e0841001 	add	r1, r4, r1
    3324:	edda6a00 	vldr	s13, [sl]
    3328:	e2822014 	add	r2, r2, #20
    332c:	e28cc007 	add	ip, ip, #7
    3330:	e0842002 	add	r2, r4, r2
    3334:	ee277a87 	vmul.f32	s14, s15, s14
    3338:	edd35a00 	vldr	s11, [r3]
    333c:	ed936a04 	vldr	s12, [r3, #16]
    3340:	ee067aa5 	vmla.f32	s14, s13, s11
    3344:	ee377a06 	vadd.f32	s14, s14, s12
    3348:	ed8a7a00 	vstr	s14, [sl]
    334c:	ed937a03 	vldr	s14, [r3, #12]
    3350:	ed936a01 	vldr	s12, [r3, #4]
    3354:	ee677a87 	vmul.f32	s15, s15, s14
    3358:	ed937a05 	vldr	s14, [r3, #20]
    335c:	ee467a86 	vmla.f32	s15, s13, s12
    3360:	ee777a87 	vadd.f32	s15, s15, s14
    3364:	edc97a00 	vstr	s15, [r9]
    3368:	edde7a00 	vldr	s15, [lr]
    336c:	ed937a02 	vldr	s14, [r3, #8]
    3370:	edd76a00 	vldr	s13, [r7]
    3374:	ee277a87 	vmul.f32	s14, s15, s14
    3378:	edd35a00 	vldr	s11, [r3]
    337c:	ed936a04 	vldr	s12, [r3, #16]
    3380:	ee067aa5 	vmla.f32	s14, s13, s11
    3384:	ee377a06 	vadd.f32	s14, s14, s12
    3388:	ed877a00 	vstr	s14, [r7]
    338c:	ed937a03 	vldr	s14, [r3, #12]
    3390:	ed936a01 	vldr	s12, [r3, #4]
    3394:	ee677a87 	vmul.f32	s15, s15, s14
    3398:	ed937a05 	vldr	s14, [r3, #20]
    339c:	ee467a86 	vmla.f32	s15, s13, s12
    33a0:	ee777a87 	vadd.f32	s15, s15, s14
    33a4:	edce7a00 	vstr	s15, [lr]
    33a8:	edd17a00 	vldr	s15, [r1]
    33ac:	ed937a02 	vldr	s14, [r3, #8]
    33b0:	eaffffb3 	b	3284 <nvg__appendCommands+0xcc>
    33b4:	e0822fa2 	add	r2, r2, r2, lsr #31
    33b8:	e08190c2 	add	r9, r1, r2, asr #1
    33bc:	e1a01109 	lsl	r1, r9, #2
    33c0:	ebfffffe 	bl	0 <realloc>
    33c4:	e3500000 	cmp	r0, #0
    33c8:	08bd87f0 	popeq	{r4, r5, r6, r7, r8, r9, sl, pc}
    33cc:	e5968040 	ldr	r8, [r6, #64]	; 0x40
    33d0:	e5860038 	str	r0, [r6, #56]	; 0x38
    33d4:	e586903c 	str	r9, [r6, #60]	; 0x3c
    33d8:	eaffff83 	b	31ec <nvg__appendCommands+0x34>

000033dc <stbi__stdio_skip>:
    33dc:	e3a02001 	mov	r2, #1
    33e0:	eafffffe 	b	0 <fseek>

000033e4 <stbi__stdio_read>:
    33e4:	e1a0c001 	mov	ip, r1
    33e8:	e1a03000 	mov	r3, r0
    33ec:	e3a01001 	mov	r1, #1
    33f0:	e1a0000c 	mov	r0, ip
    33f4:	eafffffe 	b	0 <fread>

000033f8 <stbi__hdr_convert>:
    33f8:	e5d13003 	ldrb	r3, [r1, #3]
    33fc:	e3530000 	cmp	r3, #0
    3400:	1a000014 	bne	3458 <stbi__hdr_convert+0x60>
    3404:	e2422001 	sub	r2, r2, #1
    3408:	e3520003 	cmp	r2, #3
    340c:	979ff102 	ldrls	pc, [pc, r2, lsl #2]
    3410:	ea000003 	b	3424 <stbi__hdr_convert+0x2c>
    3414:	0000344c 	.word	0x0000344c
    3418:	00003444 	.word	0x00003444
    341c:	00003430 	.word	0x00003430
    3420:	00003428 	.word	0x00003428
    3424:	e12fff1e 	bx	lr
    3428:	e3a035fe 	mov	r3, #1065353216	; 0x3f800000
    342c:	e580300c 	str	r3, [r0, #12]
    3430:	e3a03000 	mov	r3, #0
    3434:	e5803008 	str	r3, [r0, #8]
    3438:	e5803004 	str	r3, [r0, #4]
    343c:	e5803000 	str	r3, [r0]
    3440:	e12fff1e 	bx	lr
    3444:	e3a035fe 	mov	r3, #1065353216	; 0x3f800000
    3448:	e5803004 	str	r3, [r0, #4]
    344c:	e3a03000 	mov	r3, #0
    3450:	e5803000 	str	r3, [r0]
    3454:	e12fff1e 	bx	lr
    3458:	e92d4070 	push	{r4, r5, r6, lr}
    345c:	eeb70b00 	vmov.f64	d0, #112	; 0x3f800000  1.0
    3460:	e1a05000 	mov	r5, r0
    3464:	e2430088 	sub	r0, r3, #136	; 0x88
    3468:	e1a04002 	mov	r4, r2
    346c:	e1a06001 	mov	r6, r1
    3470:	ebfffffe 	bl	0 <ldexp>
    3474:	e3540002 	cmp	r4, #2
    3478:	e5d63000 	ldrb	r3, [r6]
    347c:	eeb77bc0 	vcvt.f32.f64	s14, d0
    3480:	ca00000c 	bgt	34b8 <stbi__hdr_convert+0xc0>
    3484:	e5d61001 	ldrb	r1, [r6, #1]
    3488:	e5d62002 	ldrb	r2, [r6, #2]
    348c:	e0833001 	add	r3, r3, r1
    3490:	e0833002 	add	r3, r3, r2
    3494:	ee003a10 	vmov	s0, r3
    3498:	eef87ac0 	vcvt.f32.s32	s15, s0
    349c:	ee270a87 	vmul.f32	s0, s15, s14
    34a0:	eeb07a08 	vmov.f32	s14, #8	; 0x40400000  3.0
    34a4:	eec07a07 	vdiv.f32	s15, s0, s14
    34a8:	edc57a00 	vstr	s15, [r5]
    34ac:	03a035fe 	moveq	r3, #1065353216	; 0x3f800000
    34b0:	05853004 	streq	r3, [r5, #4]
    34b4:	e8bd8070 	pop	{r4, r5, r6, pc}
    34b8:	ee073a90 	vmov	s15, r3
    34bc:	e3540004 	cmp	r4, #4
    34c0:	eef87ae7 	vcvt.f32.s32	s15, s15
    34c4:	ee677a87 	vmul.f32	s15, s15, s14
    34c8:	edc57a00 	vstr	s15, [r5]
    34cc:	e5d63001 	ldrb	r3, [r6, #1]
    34d0:	ee073a90 	vmov	s15, r3
    34d4:	eef87ae7 	vcvt.f32.s32	s15, s15
    34d8:	ee677a87 	vmul.f32	s15, s15, s14
    34dc:	edc57a01 	vstr	s15, [r5, #4]
    34e0:	e5d63002 	ldrb	r3, [r6, #2]
    34e4:	ee003a10 	vmov	s0, r3
    34e8:	eef87ac0 	vcvt.f32.s32	s15, s0
    34ec:	ee270a87 	vmul.f32	s0, s15, s14
    34f0:	ed850a02 	vstr	s0, [r5, #8]
    34f4:	03a035fe 	moveq	r3, #1065353216	; 0x3f800000
    34f8:	0585300c 	streq	r3, [r5, #12]
    34fc:	e8bd8070 	pop	{r4, r5, r6, pc}

00003500 <nvg__normalize>:
    3500:	ed910a00 	vldr	s0, [r1]
    3504:	e52de004 	push	{lr}		; (str lr, [sp, #-4]!)
    3508:	edd07a00 	vldr	s15, [r0]
    350c:	ee200a00 	vmul.f32	s0, s0, s0
    3510:	ed2d8b02 	vpush	{d8}
    3514:	e24dd00c 	sub	sp, sp, #12
    3518:	ee070aa7 	vmla.f32	s0, s15, s15
    351c:	eeb50a40 	vcmp.f32	s0, #0.0
    3520:	eeb18ac0 	vsqrt.f32	s16, s0
    3524:	eef1fa10 	vmrs	APSR_nzcv, fpscr
    3528:	4a00000f 	bmi	356c <nvg__normalize+0x6c>
    352c:	eddf7a12 	vldr	s15, [pc, #72]	; 357c <nvg__normalize+0x7c>
    3530:	eeb48ae7 	vcmpe.f32	s16, s15
    3534:	eef1fa10 	vmrs	APSR_nzcv, fpscr
    3538:	da000007 	ble	355c <nvg__normalize+0x5c>
    353c:	eef77a00 	vmov.f32	s15, #112	; 0x3f800000  1.0
    3540:	ed907a00 	vldr	s14, [r0]
    3544:	eec76a88 	vdiv.f32	s13, s15, s16
    3548:	ee277a26 	vmul.f32	s14, s14, s13
    354c:	ed807a00 	vstr	s14, [r0]
    3550:	edd17a00 	vldr	s15, [r1]
    3554:	ee677aa6 	vmul.f32	s15, s15, s13
    3558:	edc17a00 	vstr	s15, [r1]
    355c:	eeb00a48 	vmov.f32	s0, s16
    3560:	e28dd00c 	add	sp, sp, #12
    3564:	ecbd8b02 	vpop	{d8}
    3568:	e49df004 	pop	{pc}		; (ldr pc, [sp], #4)
    356c:	e1cd00f0 	strd	r0, [sp]
    3570:	ebfffffe 	bl	0 <sqrtf>
    3574:	e1cd00d0 	ldrd	r0, [sp]
    3578:	eaffffeb 	b	352c <nvg__normalize+0x2c>
    357c:	358637bd 	.word	0x358637bd

00003580 <nvg__getAverageScale>:
    3580:	ed900a02 	vldr	s0, [r0, #8]
    3584:	e52de004 	push	{lr}		; (str lr, [sp, #-4]!)
    3588:	edd07a00 	vldr	s15, [r0]
    358c:	ee200a00 	vmul.f32	s0, s0, s0
    3590:	ed2d8b02 	vpush	{d8}
    3594:	e24dd00c 	sub	sp, sp, #12
    3598:	ee070aa7 	vmla.f32	s0, s15, s15
    359c:	eeb50a40 	vcmp.f32	s0, #0.0
    35a0:	eeb18ac0 	vsqrt.f32	s16, s0
    35a4:	eef1fa10 	vmrs	APSR_nzcv, fpscr
    35a8:	4a00000d 	bmi	35e4 <nvg__getAverageScale+0x64>
    35ac:	ed900a03 	vldr	s0, [r0, #12]
    35b0:	edd07a01 	vldr	s15, [r0, #4]
    35b4:	ee200a00 	vmul.f32	s0, s0, s0
    35b8:	ee070aa7 	vmla.f32	s0, s15, s15
    35bc:	eeb50a40 	vcmp.f32	s0, #0.0
    35c0:	eef18ac0 	vsqrt.f32	s17, s0
    35c4:	eef1fa10 	vmrs	APSR_nzcv, fpscr
    35c8:	4a000009 	bmi	35f4 <nvg__getAverageScale+0x74>
    35cc:	ee388a28 	vadd.f32	s16, s16, s17
    35d0:	eeb60a00 	vmov.f32	s0, #96	; 0x3f000000  0.5
    35d4:	ee280a00 	vmul.f32	s0, s16, s0
    35d8:	e28dd00c 	add	sp, sp, #12
    35dc:	ecbd8b02 	vpop	{d8}
    35e0:	e49df004 	pop	{pc}		; (ldr pc, [sp], #4)
    35e4:	e58d0004 	str	r0, [sp, #4]
    35e8:	ebfffffe 	bl	0 <sqrtf>
    35ec:	e59d0004 	ldr	r0, [sp, #4]
    35f0:	eaffffed 	b	35ac <nvg__getAverageScale+0x2c>
    35f4:	ebfffffe 	bl	0 <sqrtf>
    35f8:	eafffff3 	b	35cc <nvg__getAverageScale+0x4c>

000035fc <stbtt__close_shape>:
    35fc:	e3a0c00e 	mov	ip, #14
    3600:	e3530000 	cmp	r3, #0
    3604:	e00c019c 	mul	ip, ip, r1
    3608:	e92d40f0 	push	{r4, r5, r6, r7, lr}
    360c:	e281e001 	add	lr, r1, #1
    3610:	e080300c 	add	r3, r0, ip
    3614:	e1dd51f4 	ldrsh	r5, [sp, #20]
    3618:	e1dd41f8 	ldrsh	r4, [sp, #24]
    361c:	0a00001e 	beq	369c <stbtt__close_shape+0xa0>
    3620:	e3520000 	cmp	r2, #0
    3624:	0a000012 	beq	3674 <stbtt__close_shape+0x78>
    3628:	e59d2024 	ldr	r2, [sp, #36]	; 0x24
    362c:	e3a07003 	mov	r7, #3
    3630:	e59de01c 	ldr	lr, [sp, #28]
    3634:	e5c3700c 	strb	r7, [r3, #12]
    3638:	e082600e 	add	r6, r2, lr
    363c:	e59de020 	ldr	lr, [sp, #32]
    3640:	e59d2028 	ldr	r2, [sp, #40]	; 0x28
    3644:	e082200e 	add	r2, r2, lr
    3648:	e281e002 	add	lr, r1, #2
    364c:	e1a010c6 	asr	r1, r6, #1
    3650:	e18010bc 	strh	r1, [r0, ip]
    3654:	e59d1024 	ldr	r1, [sp, #36]	; 0x24
    3658:	e28c600e 	add	r6, ip, #14
    365c:	e1a020c2 	asr	r2, r2, #1
    3660:	e1c320b2 	strh	r2, [r3, #2]
    3664:	e1c310b4 	strh	r1, [r3, #4]
    3668:	e59d1028 	ldr	r1, [sp, #40]	; 0x28
    366c:	e1c310b6 	strh	r1, [r3, #6]
    3670:	e0803006 	add	r3, r0, r6
    3674:	e59d101c 	ldr	r1, [sp, #28]
    3678:	e3a02003 	mov	r2, #3
    367c:	e1c350b0 	strh	r5, [r3]
    3680:	e1a0000e 	mov	r0, lr
    3684:	e1c340b2 	strh	r4, [r3, #2]
    3688:	e1c310b4 	strh	r1, [r3, #4]
    368c:	e59d1020 	ldr	r1, [sp, #32]
    3690:	e5c3200c 	strb	r2, [r3, #12]
    3694:	e1c310b6 	strh	r1, [r3, #6]
    3698:	e8bd80f0 	pop	{r4, r5, r6, r7, pc}
    369c:	e3520000 	cmp	r2, #0
    36a0:	1a000007 	bne	36c4 <stbtt__close_shape+0xc8>
    36a4:	e3a01002 	mov	r1, #2
    36a8:	e5c3100c 	strb	r1, [r3, #12]
    36ac:	e18050bc 	strh	r5, [r0, ip]
    36b0:	e1a0000e 	mov	r0, lr
    36b4:	e1c340b2 	strh	r4, [r3, #2]
    36b8:	e1c320b4 	strh	r2, [r3, #4]
    36bc:	e1c320b6 	strh	r2, [r3, #6]
    36c0:	e8bd80f0 	pop	{r4, r5, r6, r7, pc}
    36c4:	e3a02003 	mov	r2, #3
    36c8:	e5c3200c 	strb	r2, [r3, #12]
    36cc:	e59d2024 	ldr	r2, [sp, #36]	; 0x24
    36d0:	e18050bc 	strh	r5, [r0, ip]
    36d4:	e1a0000e 	mov	r0, lr
    36d8:	e1c340b2 	strh	r4, [r3, #2]
    36dc:	e1c320b4 	strh	r2, [r3, #4]
    36e0:	e59d2028 	ldr	r2, [sp, #40]	; 0x28
    36e4:	e1c320b6 	strh	r2, [r3, #6]
    36e8:	e8bd80f0 	pop	{r4, r5, r6, r7, pc}

000036ec <fons__getVertAlign.isra.8>:
    36ec:	e3100001 	tst	r0, #1
    36f0:	e203c008 	and	ip, r3, #8
    36f4:	e1dd00f0 	ldrsh	r0, [sp]
    36f8:	0a00000e 	beq	3738 <fons__getVertAlign.isra.8+0x4c>
    36fc:	e35c0000 	cmp	ip, #0
    3700:	1a000022 	bne	3790 <fons__getVertAlign.isra.8+0xa4>
    3704:	e3130010 	tst	r3, #16
    3708:	1a000027 	bne	37ac <fons__getVertAlign.isra.8+0xc0>
    370c:	e3130040 	tst	r3, #64	; 0x40
    3710:	1a000036 	bne	37f0 <fons__getVertAlign.isra.8+0x104>
    3714:	e3130020 	tst	r3, #32
    3718:	0a000034 	beq	37f0 <fons__getVertAlign.isra.8+0x104>
    371c:	ee070a90 	vmov	s15, r0
    3720:	ed927a00 	vldr	s14, [r2]
    3724:	eef87ae7 	vcvt.f32.s32	s15, s15
    3728:	ee677a87 	vmul.f32	s15, s15, s14
    372c:	eeb27a04 	vmov.f32	s14, #36	; 0x41200000  10.0
    3730:	ee870a87 	vdiv.f32	s0, s15, s14
    3734:	e12fff1e 	bx	lr
    3738:	e35c0000 	cmp	ip, #0
    373c:	1a00000c 	bne	3774 <fons__getVertAlign.isra.8+0x88>
    3740:	e3130010 	tst	r3, #16
    3744:	1a000023 	bne	37d8 <fons__getVertAlign.isra.8+0xec>
    3748:	e3130040 	tst	r3, #64	; 0x40
    374c:	1a000027 	bne	37f0 <fons__getVertAlign.isra.8+0x104>
    3750:	e3130020 	tst	r3, #32
    3754:	0a000025 	beq	37f0 <fons__getVertAlign.isra.8+0x104>
    3758:	ee070a90 	vmov	s15, r0
    375c:	ed927a00 	vldr	s14, [r2]
    3760:	eef87ae7 	vcvt.f32.s32	s15, s15
    3764:	ee677a67 	vnmul.f32	s15, s14, s15
    3768:	eeb27a04 	vmov.f32	s14, #36	; 0x41200000  10.0
    376c:	ee870a87 	vdiv.f32	s0, s15, s14
    3770:	e12fff1e 	bx	lr
    3774:	ee070a90 	vmov	s15, r0
    3778:	ed917a00 	vldr	s14, [r1]
    377c:	eef87ae7 	vcvt.f32.s32	s15, s15
    3780:	ee677a67 	vnmul.f32	s15, s14, s15
    3784:	eeb27a04 	vmov.f32	s14, #36	; 0x41200000  10.0
    3788:	ee870a87 	vdiv.f32	s0, s15, s14
    378c:	e12fff1e 	bx	lr
    3790:	ee070a90 	vmov	s15, r0
    3794:	ed917a00 	vldr	s14, [r1]
    3798:	eef87ae7 	vcvt.f32.s32	s15, s15
    379c:	ee677a87 	vmul.f32	s15, s15, s14
    37a0:	eeb27a04 	vmov.f32	s14, #36	; 0x41200000  10.0
    37a4:	ee870a87 	vdiv.f32	s0, s15, s14
    37a8:	e12fff1e 	bx	lr
    37ac:	edd17a00 	vldr	s15, [r1]
    37b0:	edd26a00 	vldr	s13, [r2]
    37b4:	eeb67a00 	vmov.f32	s14, #96	; 0x3f000000  0.5
    37b8:	ee777aa6 	vadd.f32	s15, s15, s13
    37bc:	ee277a87 	vmul.f32	s14, s15, s14
    37c0:	ee070a90 	vmov	s15, r0
    37c4:	eef87ae7 	vcvt.f32.s32	s15, s15
    37c8:	ee677a27 	vmul.f32	s15, s14, s15
    37cc:	eeb27a04 	vmov.f32	s14, #36	; 0x41200000  10.0
    37d0:	ee870a87 	vdiv.f32	s0, s15, s14
    37d4:	e12fff1e 	bx	lr
    37d8:	edd17a00 	vldr	s15, [r1]
    37dc:	edd26a00 	vldr	s13, [r2]
    37e0:	eeb67a00 	vmov.f32	s14, #96	; 0x3f000000  0.5
    37e4:	ee777aa6 	vadd.f32	s15, s15, s13
    37e8:	ee277ac7 	vnmul.f32	s14, s15, s14
    37ec:	eafffff3 	b	37c0 <fons__getVertAlign.isra.8+0xd4>
    37f0:	ed9f0a00 	vldr	s0, [pc]	; 37f8 <fons__getVertAlign.isra.8+0x10c>
    37f4:	e12fff1e 	bx	lr
    37f8:	00000000 	.word	0x00000000

000037fc <stbi__get8>:
    37fc:	e59030a8 	ldr	r3, [r0, #168]	; 0xa8
    3800:	e59020ac 	ldr	r2, [r0, #172]	; 0xac
    3804:	e1530002 	cmp	r3, r2
    3808:	3a000015 	bcc	3864 <stbi__get8+0x68>
    380c:	e5903020 	ldr	r3, [r0, #32]
    3810:	e3530000 	cmp	r3, #0
    3814:	0a000016 	beq	3874 <stbi__get8+0x78>
    3818:	e92d4070 	push	{r4, r5, r6, lr}
    381c:	e2805028 	add	r5, r0, #40	; 0x28
    3820:	e1a04000 	mov	r4, r0
    3824:	e5903010 	ldr	r3, [r0, #16]
    3828:	e5902024 	ldr	r2, [r0, #36]	; 0x24
    382c:	e1a01005 	mov	r1, r5
    3830:	e590001c 	ldr	r0, [r0, #28]
    3834:	e12fff33 	blx	r3
    3838:	e3500000 	cmp	r0, #0
    383c:	05840020 	streq	r0, [r4, #32]
    3840:	02843029 	addeq	r3, r4, #41	; 0x29
    3844:	10855000 	addne	r5, r5, r0
    3848:	05c40028 	strbeq	r0, [r4, #40]	; 0x28
    384c:	12843029 	addne	r3, r4, #41	; 0x29
    3850:	058430ac 	streq	r3, [r4, #172]	; 0xac
    3854:	158450ac 	strne	r5, [r4, #172]	; 0xac
    3858:	e58430a8 	str	r3, [r4, #168]	; 0xa8
    385c:	e5d40028 	ldrb	r0, [r4, #40]	; 0x28
    3860:	e8bd8070 	pop	{r4, r5, r6, pc}
    3864:	e2832001 	add	r2, r3, #1
    3868:	e58020a8 	str	r2, [r0, #168]	; 0xa8
    386c:	e5d30000 	ldrb	r0, [r3]
    3870:	e12fff1e 	bx	lr
    3874:	e1a00003 	mov	r0, r3
    3878:	e12fff1e 	bx	lr

0000387c <stbi__get16be>:
    387c:	e92d4070 	push	{r4, r5, r6, lr}
    3880:	e1a05000 	mov	r5, r0
    3884:	ebffffdc 	bl	37fc <stbi__get8>
    3888:	e1a04000 	mov	r4, r0
    388c:	e1a00005 	mov	r0, r5
    3890:	ebffffd9 	bl	37fc <stbi__get8>
    3894:	e0800404 	add	r0, r0, r4, lsl #8
    3898:	e8bd8070 	pop	{r4, r5, r6, pc}

0000389c <stbi__get32be>:
    389c:	e92d4070 	push	{r4, r5, r6, lr}
    38a0:	e1a05000 	mov	r5, r0
    38a4:	ebfffff4 	bl	387c <stbi__get16be>
    38a8:	e1a04000 	mov	r4, r0
    38ac:	e1a00005 	mov	r0, r5
    38b0:	ebfffff1 	bl	387c <stbi__get16be>
    38b4:	e0800804 	add	r0, r0, r4, lsl #16
    38b8:	e8bd8070 	pop	{r4, r5, r6, pc}

000038bc <stbi__get16le>:
    38bc:	e92d4070 	push	{r4, r5, r6, lr}
    38c0:	e1a05000 	mov	r5, r0
    38c4:	ebffffcc 	bl	37fc <stbi__get8>
    38c8:	e1a04000 	mov	r4, r0
    38cc:	e1a00005 	mov	r0, r5
    38d0:	ebffffc9 	bl	37fc <stbi__get8>
    38d4:	e0840400 	add	r0, r4, r0, lsl #8
    38d8:	e8bd8070 	pop	{r4, r5, r6, pc}

000038dc <stbi__get32le>:
    38dc:	e92d4070 	push	{r4, r5, r6, lr}
    38e0:	e1a05000 	mov	r5, r0
    38e4:	ebfffff4 	bl	38bc <stbi__get16le>
    38e8:	e1a04000 	mov	r4, r0
    38ec:	e1a00005 	mov	r0, r5
    38f0:	ebfffff1 	bl	38bc <stbi__get16le>
    38f4:	e0840800 	add	r0, r4, r0, lsl #16
    38f8:	e8bd8070 	pop	{r4, r5, r6, pc}

000038fc <stbi__grow_buffer_unsafe>:
    38fc:	e92d4070 	push	{r4, r5, r6, lr}
    3900:	e1a06000 	mov	r6, r0
    3904:	e2804901 	add	r4, r0, #16384	; 0x4000
    3908:	ea000008 	b	3930 <stbi__grow_buffer_unsafe+0x34>
    390c:	e59436c0 	ldr	r3, [r4, #1728]	; 0x6c0
    3910:	e59426bc 	ldr	r2, [r4, #1724]	; 0x6bc
    3914:	e2831008 	add	r1, r3, #8
    3918:	e2633018 	rsb	r3, r3, #24
    391c:	e3510018 	cmp	r1, #24
    3920:	e1823315 	orr	r3, r2, r5, lsl r3
    3924:	e58416c0 	str	r1, [r4, #1728]	; 0x6c0
    3928:	e58436bc 	str	r3, [r4, #1724]	; 0x6bc
    392c:	c8bd8070 	popgt	{r4, r5, r6, pc}
    3930:	e59436c8 	ldr	r3, [r4, #1736]	; 0x6c8
    3934:	e3a05000 	mov	r5, #0
    3938:	e1530005 	cmp	r3, r5
    393c:	1afffff2 	bne	390c <stbi__grow_buffer_unsafe+0x10>
    3940:	e5960000 	ldr	r0, [r6]
    3944:	ebffffac 	bl	37fc <stbi__get8>
    3948:	e35000ff 	cmp	r0, #255	; 0xff
    394c:	e1a05000 	mov	r5, r0
    3950:	1affffed 	bne	390c <stbi__grow_buffer_unsafe+0x10>
    3954:	e5960000 	ldr	r0, [r6]
    3958:	ebffffa7 	bl	37fc <stbi__get8>
    395c:	e3500000 	cmp	r0, #0
    3960:	0affffe9 	beq	390c <stbi__grow_buffer_unsafe+0x10>
    3964:	e3a03001 	mov	r3, #1
    3968:	e5c406c4 	strb	r0, [r4, #1732]	; 0x6c4
    396c:	e58436c8 	str	r3, [r4, #1736]	; 0x6c8
    3970:	e8bd8070 	pop	{r4, r5, r6, pc}

00003974 <stbi__jpeg_huff_decode>:
    3974:	e92d4070 	push	{r4, r5, r6, lr}
    3978:	e2804901 	add	r4, r0, #16384	; 0x4000
    397c:	e1a05001 	mov	r5, r1
    3980:	e59466c0 	ldr	r6, [r4, #1728]	; 0x6c0
    3984:	e356000f 	cmp	r6, #15
    3988:	da000035 	ble	3a64 <stbi__jpeg_huff_decode+0xf0>
    398c:	e59406bc 	ldr	r0, [r4, #1724]	; 0x6bc
    3990:	e7d51ba0 	ldrb	r1, [r5, r0, lsr #23]
    3994:	e35100ff 	cmp	r1, #255	; 0xff
    3998:	0a000009 	beq	39c4 <stbi__jpeg_huff_decode+0x50>
    399c:	e0851001 	add	r1, r5, r1
    39a0:	e5d12500 	ldrb	r2, [r1, #1280]	; 0x500
    39a4:	e1520006 	cmp	r2, r6
    39a8:	ca000032 	bgt	3a78 <stbi__jpeg_huff_decode+0x104>
    39ac:	e1a00210 	lsl	r0, r0, r2
    39b0:	e0466002 	sub	r6, r6, r2
    39b4:	e58406bc 	str	r0, [r4, #1724]	; 0x6bc
    39b8:	e58466c0 	str	r6, [r4, #1728]	; 0x6c0
    39bc:	e5d10400 	ldrb	r0, [r1, #1024]	; 0x400
    39c0:	e8bd8070 	pop	{r4, r5, r6, pc}
    39c4:	e595362c 	ldr	r3, [r5, #1580]	; 0x62c
    39c8:	e1a01820 	lsr	r1, r0, #16
    39cc:	e1510003 	cmp	r1, r3
    39d0:	3a000026 	bcc	3a70 <stbi__jpeg_huff_decode+0xfc>
    39d4:	e2852e63 	add	r2, r5, #1584	; 0x630
    39d8:	e3a0300a 	mov	r3, #10
    39dc:	e492c004 	ldr	ip, [r2], #4
    39e0:	e2833001 	add	r3, r3, #1
    39e4:	e15c0001 	cmp	ip, r1
    39e8:	9afffffb 	bls	39dc <stbi__jpeg_huff_decode+0x68>
    39ec:	e3530011 	cmp	r3, #17
    39f0:	0a000022 	beq	3a80 <stbi__jpeg_huff_decode+0x10c>
    39f4:	e1530006 	cmp	r3, r6
    39f8:	ca00001e 	bgt	3a78 <stbi__jpeg_huff_decode+0x104>
    39fc:	e3002000 	movw	r2, #0
    3a00:	e3402000 	movt	r2, #0
    3a04:	e082e103 	add	lr, r2, r3, lsl #2
    3a08:	e0851103 	add	r1, r5, r3, lsl #2
    3a0c:	e263c020 	rsb	ip, r3, #32
    3a10:	e59ee058 	ldr	lr, [lr, #88]	; 0x58
    3a14:	e591164c 	ldr	r1, [r1, #1612]	; 0x64c
    3a18:	e00ecc30 	and	ip, lr, r0, lsr ip
    3a1c:	e08cc001 	add	ip, ip, r1
    3a20:	e085e00c 	add	lr, r5, ip
    3a24:	e28ccc01 	add	ip, ip, #256	; 0x100
    3a28:	e5de1500 	ldrb	r1, [lr, #1280]	; 0x500
    3a2c:	e1a0c08c 	lsl	ip, ip, #1
    3a30:	e195c0bc 	ldrh	ip, [r5, ip]
    3a34:	e2615020 	rsb	r5, r1, #32
    3a38:	e0821101 	add	r1, r2, r1, lsl #2
    3a3c:	e5911058 	ldr	r1, [r1, #88]	; 0x58
    3a40:	e0011530 	and	r1, r1, r0, lsr r5
    3a44:	e151000c 	cmp	r1, ip
    3a48:	1a000010 	bne	3a90 <stbi__jpeg_huff_decode+0x11c>
    3a4c:	e0466003 	sub	r6, r6, r3
    3a50:	e1a03310 	lsl	r3, r0, r3
    3a54:	e58466c0 	str	r6, [r4, #1728]	; 0x6c0
    3a58:	e58436bc 	str	r3, [r4, #1724]	; 0x6bc
    3a5c:	e5de0400 	ldrb	r0, [lr, #1024]	; 0x400
    3a60:	e8bd8070 	pop	{r4, r5, r6, pc}
    3a64:	ebffffa4 	bl	38fc <stbi__grow_buffer_unsafe>
    3a68:	e59466c0 	ldr	r6, [r4, #1728]	; 0x6c0
    3a6c:	eaffffc6 	b	398c <stbi__jpeg_huff_decode+0x18>
    3a70:	e3a0300a 	mov	r3, #10
    3a74:	eaffffde 	b	39f4 <stbi__jpeg_huff_decode+0x80>
    3a78:	e3e00000 	mvn	r0, #0
    3a7c:	e8bd8070 	pop	{r4, r5, r6, pc}
    3a80:	e2466010 	sub	r6, r6, #16
    3a84:	e3e00000 	mvn	r0, #0
    3a88:	e58466c0 	str	r6, [r4, #1728]	; 0x6c0
    3a8c:	e8bd8070 	pop	{r4, r5, r6, pc}
    3a90:	e3003000 	movw	r3, #0
    3a94:	e3000000 	movw	r0, #0
    3a98:	e282209c 	add	r2, r2, #156	; 0x9c
    3a9c:	e3403000 	movt	r3, #0
    3aa0:	e3400000 	movt	r0, #0
    3aa4:	e3001671 	movw	r1, #1649	; 0x671
    3aa8:	ebfffffe 	bl	0 <__assert_func>

00003aac <stbi__readval>:
    3aac:	e92d41f0 	push	{r4, r5, r6, r7, r8, lr}
    3ab0:	e1a06000 	mov	r6, r0
    3ab4:	e1a07001 	mov	r7, r1
    3ab8:	e1a08002 	mov	r8, r2
    3abc:	e3a04000 	mov	r4, #0
    3ac0:	e3a05080 	mov	r5, #128	; 0x80
    3ac4:	e1170005 	tst	r7, r5
    3ac8:	e1a050c5 	asr	r5, r5, #1
    3acc:	0a000010 	beq	3b14 <stbi__readval+0x68>
    3ad0:	e5963010 	ldr	r3, [r6, #16]
    3ad4:	e3530000 	cmp	r3, #0
    3ad8:	0a000007 	beq	3afc <stbi__readval+0x50>
    3adc:	e5963018 	ldr	r3, [r6, #24]
    3ae0:	e596001c 	ldr	r0, [r6, #28]
    3ae4:	e12fff33 	blx	r3
    3ae8:	e3500000 	cmp	r0, #0
    3aec:	0a000005 	beq	3b08 <stbi__readval+0x5c>
    3af0:	e5963020 	ldr	r3, [r6, #32]
    3af4:	e3530000 	cmp	r3, #0
    3af8:	0a00000a 	beq	3b28 <stbi__readval+0x7c>
    3afc:	e1c62ad8 	ldrd	r2, [r6, #168]	; 0xa8
    3b00:	e1520003 	cmp	r2, r3
    3b04:	2a000007 	bcs	3b28 <stbi__readval+0x7c>
    3b08:	e1a00006 	mov	r0, r6
    3b0c:	ebffff3a 	bl	37fc <stbi__get8>
    3b10:	e7c80004 	strb	r0, [r8, r4]
    3b14:	e2844001 	add	r4, r4, #1
    3b18:	e3540004 	cmp	r4, #4
    3b1c:	1affffe8 	bne	3ac4 <stbi__readval+0x18>
    3b20:	e1a00008 	mov	r0, r8
    3b24:	e8bd81f0 	pop	{r4, r5, r6, r7, r8, pc}
    3b28:	e3003000 	movw	r3, #0
    3b2c:	e3403000 	movt	r3, #0
    3b30:	e3002000 	movw	r2, #0
    3b34:	e3a08000 	mov	r8, #0
    3b38:	e3402000 	movt	r2, #0
    3b3c:	e5832000 	str	r2, [r3]
    3b40:	eafffff6 	b	3b20 <stbi__readval+0x74>

00003b44 <stbi__gif_parse_colortable>:
    3b44:	e92d41f0 	push	{r4, r5, r6, r7, r8, lr}
    3b48:	e2528000 	subs	r8, r2, #0
    3b4c:	d8bd81f0 	pople	{r4, r5, r6, r7, r8, pc}
    3b50:	e1a07003 	mov	r7, r3
    3b54:	e1a06000 	mov	r6, r0
    3b58:	e1a04001 	mov	r4, r1
    3b5c:	e3a05000 	mov	r5, #0
    3b60:	e1a00006 	mov	r0, r6
    3b64:	e2844004 	add	r4, r4, #4
    3b68:	ebffff23 	bl	37fc <stbi__get8>
    3b6c:	e5440002 	strb	r0, [r4, #-2]
    3b70:	e1a00006 	mov	r0, r6
    3b74:	ebffff20 	bl	37fc <stbi__get8>
    3b78:	e5440003 	strb	r0, [r4, #-3]
    3b7c:	e1a00006 	mov	r0, r6
    3b80:	ebffff1d 	bl	37fc <stbi__get8>
    3b84:	e0571005 	subs	r1, r7, r5
    3b88:	e2855001 	add	r5, r5, #1
    3b8c:	13e01000 	mvnne	r1, #0
    3b90:	e1580005 	cmp	r8, r5
    3b94:	e5441001 	strb	r1, [r4, #-1]
    3b98:	e5440004 	strb	r0, [r4, #-4]
    3b9c:	1affffef 	bne	3b60 <stbi__gif_parse_colortable+0x1c>
    3ba0:	e8bd81f0 	pop	{r4, r5, r6, r7, r8, pc}

00003ba4 <stbi__hdr_test>:
    3ba4:	e92d4070 	push	{r4, r5, r6, lr}
    3ba8:	e3005000 	movw	r5, #0
    3bac:	e1a06000 	mov	r6, r0
    3bb0:	e3405000 	movt	r5, #0
    3bb4:	e3a04023 	mov	r4, #35	; 0x23
    3bb8:	ea000002 	b	3bc8 <stbi__hdr_test+0x24>
    3bbc:	e5f54001 	ldrb	r4, [r5, #1]!
    3bc0:	e3540000 	cmp	r4, #0
    3bc4:	0a000007 	beq	3be8 <stbi__hdr_test+0x44>
    3bc8:	e1a00006 	mov	r0, r6
    3bcc:	ebffff0a 	bl	37fc <stbi__get8>
    3bd0:	e1500004 	cmp	r0, r4
    3bd4:	0afffff8 	beq	3bbc <stbi__hdr_test+0x18>
    3bd8:	e3a00000 	mov	r0, #0
    3bdc:	e1c62bd0 	ldrd	r2, [r6, #176]	; 0xb0
    3be0:	e1c62af8 	strd	r2, [r6, #168]	; 0xa8
    3be4:	e8bd8070 	pop	{r4, r5, r6, pc}
    3be8:	e3a00001 	mov	r0, #1
    3bec:	eafffffa 	b	3bdc <stbi__hdr_test+0x38>

00003bf0 <stbi__hdr_gettoken>:
    3bf0:	e92d47f0 	push	{r4, r5, r6, r7, r8, r9, sl, lr}
    3bf4:	e1a09001 	mov	r9, r1
    3bf8:	e1a04000 	mov	r4, r0
    3bfc:	e1a06001 	mov	r6, r1
    3c00:	ebfffefd 	bl	37fc <stbi__get8>
    3c04:	e3a05000 	mov	r5, #0
    3c08:	e30083ff 	movw	r8, #1023	; 0x3ff
    3c0c:	e1a07000 	mov	r7, r0
    3c10:	ea000004 	b	3c28 <stbi__hdr_gettoken+0x38>
    3c14:	e1550008 	cmp	r5, r8
    3c18:	e4c67001 	strb	r7, [r6], #1
    3c1c:	0a000018 	beq	3c84 <stbi__hdr_gettoken+0x94>
    3c20:	ebfffef5 	bl	37fc <stbi__get8>
    3c24:	e1a07000 	mov	r7, r0
    3c28:	e5943010 	ldr	r3, [r4, #16]
    3c2c:	e3530000 	cmp	r3, #0
    3c30:	0a000007 	beq	3c54 <stbi__hdr_gettoken+0x64>
    3c34:	e5943018 	ldr	r3, [r4, #24]
    3c38:	e594001c 	ldr	r0, [r4, #28]
    3c3c:	e12fff33 	blx	r3
    3c40:	e3500000 	cmp	r0, #0
    3c44:	0a000005 	beq	3c60 <stbi__hdr_gettoken+0x70>
    3c48:	e5943020 	ldr	r3, [r4, #32]
    3c4c:	e3530000 	cmp	r3, #0
    3c50:	0a000020 	beq	3cd8 <stbi__hdr_gettoken+0xe8>
    3c54:	e1c42ad8 	ldrd	r2, [r4, #168]	; 0xa8
    3c58:	e1520003 	cmp	r2, r3
    3c5c:	2a00001d 	bcs	3cd8 <stbi__hdr_gettoken+0xe8>
    3c60:	e357000a 	cmp	r7, #10
    3c64:	e2855001 	add	r5, r5, #1
    3c68:	e1a00004 	mov	r0, r4
    3c6c:	e1a03006 	mov	r3, r6
    3c70:	1affffe7 	bne	3c14 <stbi__hdr_gettoken+0x24>
    3c74:	e3a02000 	mov	r2, #0
    3c78:	e1a00009 	mov	r0, r9
    3c7c:	e5c32000 	strb	r2, [r3]
    3c80:	e8bd87f0 	pop	{r4, r5, r6, r7, r8, r9, sl, pc}
    3c84:	e5943010 	ldr	r3, [r4, #16]
    3c88:	e3530000 	cmp	r3, #0
    3c8c:	0a000007 	beq	3cb0 <stbi__hdr_gettoken+0xc0>
    3c90:	e5943018 	ldr	r3, [r4, #24]
    3c94:	e594001c 	ldr	r0, [r4, #28]
    3c98:	e12fff33 	blx	r3
    3c9c:	e3500000 	cmp	r0, #0
    3ca0:	0a000005 	beq	3cbc <stbi__hdr_gettoken+0xcc>
    3ca4:	e5943020 	ldr	r3, [r4, #32]
    3ca8:	e3530000 	cmp	r3, #0
    3cac:	0a000006 	beq	3ccc <stbi__hdr_gettoken+0xdc>
    3cb0:	e1c42ad8 	ldrd	r2, [r4, #168]	; 0xa8
    3cb4:	e1520003 	cmp	r2, r3
    3cb8:	2a000003 	bcs	3ccc <stbi__hdr_gettoken+0xdc>
    3cbc:	e1a00004 	mov	r0, r4
    3cc0:	ebfffecd 	bl	37fc <stbi__get8>
    3cc4:	e350000a 	cmp	r0, #10
    3cc8:	1affffed 	bne	3c84 <stbi__hdr_gettoken+0x94>
    3ccc:	e2893fff 	add	r3, r9, #1020	; 0x3fc
    3cd0:	e2833003 	add	r3, r3, #3
    3cd4:	eaffffe6 	b	3c74 <stbi__hdr_gettoken+0x84>
    3cd8:	e0893005 	add	r3, r9, r5
    3cdc:	eaffffe4 	b	3c74 <stbi__hdr_gettoken+0x84>

00003ce0 <stbi__hdr_info>:
    3ce0:	e92d47f0 	push	{r4, r5, r6, r7, r8, r9, sl, lr}
    3ce4:	e24ddb01 	sub	sp, sp, #1024	; 0x400
    3ce8:	e24dd008 	sub	sp, sp, #8
    3cec:	e1a0a001 	mov	sl, r1
    3cf0:	e1a08002 	mov	r8, r2
    3cf4:	e1a09003 	mov	r9, r3
    3cf8:	e1a05000 	mov	r5, r0
    3cfc:	ebffffa8 	bl	3ba4 <stbi__hdr_test>
    3d00:	e2504000 	subs	r4, r0, #0
    3d04:	0a000010 	beq	3d4c <stbi__hdr_info+0x6c>
    3d08:	e3007000 	movw	r7, #0
    3d0c:	e3a04000 	mov	r4, #0
    3d10:	e3407000 	movt	r7, #0
    3d14:	ea000002 	b	3d24 <stbi__hdr_info+0x44>
    3d18:	ebfffffe 	bl	0 <strcmp>
    3d1c:	e3500000 	cmp	r0, #0
    3d20:	03a04001 	moveq	r4, #1
    3d24:	e28d1008 	add	r1, sp, #8
    3d28:	e1a00005 	mov	r0, r5
    3d2c:	ebffffaf 	bl	3bf0 <stbi__hdr_gettoken>
    3d30:	e1a01007 	mov	r1, r7
    3d34:	e58d0004 	str	r0, [sp, #4]
    3d38:	e5d06000 	ldrb	r6, [r0]
    3d3c:	e3560000 	cmp	r6, #0
    3d40:	1afffff4 	bne	3d18 <stbi__hdr_info+0x38>
    3d44:	e3540000 	cmp	r4, #0
    3d48:	1a000005 	bne	3d64 <stbi__hdr_info+0x84>
    3d4c:	e1c52bd0 	ldrd	r2, [r5, #176]	; 0xb0
    3d50:	e1c52af8 	strd	r2, [r5, #168]	; 0xa8
    3d54:	e1a00004 	mov	r0, r4
    3d58:	e28ddb01 	add	sp, sp, #1024	; 0x400
    3d5c:	e28dd008 	add	sp, sp, #8
    3d60:	e8bd87f0 	pop	{r4, r5, r6, r7, r8, r9, sl, pc}
    3d64:	e28d1008 	add	r1, sp, #8
    3d68:	e1a00005 	mov	r0, r5
    3d6c:	ebffff9f 	bl	3bf0 <stbi__hdr_gettoken>
    3d70:	e3001000 	movw	r1, #0
    3d74:	e3a02003 	mov	r2, #3
    3d78:	e3401000 	movt	r1, #0
    3d7c:	e1a07000 	mov	r7, r0
    3d80:	e58d0004 	str	r0, [sp, #4]
    3d84:	ebfffffe 	bl	0 <strncmp>
    3d88:	e3500000 	cmp	r0, #0
    3d8c:	0a000007 	beq	3db0 <stbi__hdr_info+0xd0>
    3d90:	e59520b0 	ldr	r2, [r5, #176]	; 0xb0
    3d94:	e3a04000 	mov	r4, #0
    3d98:	e59530b4 	ldr	r3, [r5, #180]	; 0xb4
    3d9c:	e1a00004 	mov	r0, r4
    3da0:	e1c52af8 	strd	r2, [r5, #168]	; 0xa8
    3da4:	e28ddb01 	add	sp, sp, #1024	; 0x400
    3da8:	e28dd008 	add	sp, sp, #8
    3dac:	e8bd87f0 	pop	{r4, r5, r6, r7, r8, r9, sl, pc}
    3db0:	e2870003 	add	r0, r7, #3
    3db4:	e28d1004 	add	r1, sp, #4
    3db8:	e3a0200a 	mov	r2, #10
    3dbc:	e58d0004 	str	r0, [sp, #4]
    3dc0:	ebfffffe 	bl	0 <strtol>
    3dc4:	e59d6004 	ldr	r6, [sp, #4]
    3dc8:	e5880000 	str	r0, [r8]
    3dcc:	e5d63000 	ldrb	r3, [r6]
    3dd0:	e3530020 	cmp	r3, #32
    3dd4:	1a000004 	bne	3dec <stbi__hdr_info+0x10c>
    3dd8:	e2866001 	add	r6, r6, #1
    3ddc:	e58d6004 	str	r6, [sp, #4]
    3de0:	e5d63000 	ldrb	r3, [r6]
    3de4:	e3530020 	cmp	r3, #32
    3de8:	0afffffa 	beq	3dd8 <stbi__hdr_info+0xf8>
    3dec:	e3001000 	movw	r1, #0
    3df0:	e3a02003 	mov	r2, #3
    3df4:	e3401000 	movt	r1, #0
    3df8:	e1a00006 	mov	r0, r6
    3dfc:	ebfffffe 	bl	0 <strncmp>
    3e00:	e2501000 	subs	r1, r0, #0
    3e04:	1affffe1 	bne	3d90 <stbi__hdr_info+0xb0>
    3e08:	e2860003 	add	r0, r6, #3
    3e0c:	e3a0200a 	mov	r2, #10
    3e10:	e58d0004 	str	r0, [sp, #4]
    3e14:	ebfffffe 	bl	0 <strtol>
    3e18:	e3a03003 	mov	r3, #3
    3e1c:	e58a0000 	str	r0, [sl]
    3e20:	e5893000 	str	r3, [r9]
    3e24:	eaffffca 	b	3d54 <stbi__hdr_info+0x74>

00003e28 <stbi__pnm_skip_whitespace>:
    3e28:	e92d4070 	push	{r4, r5, r6, lr}
    3e2c:	e1a04000 	mov	r4, r0
    3e30:	e1a05001 	mov	r5, r1
    3e34:	e5943010 	ldr	r3, [r4, #16]
    3e38:	e3530000 	cmp	r3, #0
    3e3c:	0a00003c 	beq	3f34 <stbi__pnm_skip_whitespace+0x10c>
    3e40:	e5943018 	ldr	r3, [r4, #24]
    3e44:	e594001c 	ldr	r0, [r4, #28]
    3e48:	e12fff33 	blx	r3
    3e4c:	e3500000 	cmp	r0, #0
    3e50:	0a000005 	beq	3e6c <stbi__pnm_skip_whitespace+0x44>
    3e54:	e5943020 	ldr	r3, [r4, #32]
    3e58:	e3530000 	cmp	r3, #0
    3e5c:	0a000007 	beq	3e80 <stbi__pnm_skip_whitespace+0x58>
    3e60:	e1c42ad8 	ldrd	r2, [r4, #168]	; 0xa8
    3e64:	e1520003 	cmp	r2, r3
    3e68:	2a000035 	bcs	3f44 <stbi__pnm_skip_whitespace+0x11c>
    3e6c:	e5d53000 	ldrb	r3, [r5]
    3e70:	e2432009 	sub	r2, r3, #9
    3e74:	e3530020 	cmp	r3, #32
    3e78:	13520004 	cmpne	r2, #4
    3e7c:	9a000026 	bls	3f1c <stbi__pnm_skip_whitespace+0xf4>
    3e80:	e5943010 	ldr	r3, [r4, #16]
    3e84:	e3530000 	cmp	r3, #0
    3e88:	0a000007 	beq	3eac <stbi__pnm_skip_whitespace+0x84>
    3e8c:	e5943018 	ldr	r3, [r4, #24]
    3e90:	e594001c 	ldr	r0, [r4, #28]
    3e94:	e12fff33 	blx	r3
    3e98:	e3500000 	cmp	r0, #0
    3e9c:	0a000005 	beq	3eb8 <stbi__pnm_skip_whitespace+0x90>
    3ea0:	e5943020 	ldr	r3, [r4, #32]
    3ea4:	e3530000 	cmp	r3, #0
    3ea8:	08bd8070 	popeq	{r4, r5, r6, pc}
    3eac:	e1c42ad8 	ldrd	r2, [r4, #168]	; 0xa8
    3eb0:	e1520003 	cmp	r2, r3
    3eb4:	28bd8070 	popcs	{r4, r5, r6, pc}
    3eb8:	e5d53000 	ldrb	r3, [r5]
    3ebc:	e3530023 	cmp	r3, #35	; 0x23
    3ec0:	18bd8070 	popne	{r4, r5, r6, pc}
    3ec4:	e5943010 	ldr	r3, [r4, #16]
    3ec8:	e3530000 	cmp	r3, #0
    3ecc:	0a000007 	beq	3ef0 <stbi__pnm_skip_whitespace+0xc8>
    3ed0:	e5943018 	ldr	r3, [r4, #24]
    3ed4:	e594001c 	ldr	r0, [r4, #28]
    3ed8:	e12fff33 	blx	r3
    3edc:	e3500000 	cmp	r0, #0
    3ee0:	0a000005 	beq	3efc <stbi__pnm_skip_whitespace+0xd4>
    3ee4:	e5943020 	ldr	r3, [r4, #32]
    3ee8:	e3530000 	cmp	r3, #0
    3eec:	0affffd0 	beq	3e34 <stbi__pnm_skip_whitespace+0xc>
    3ef0:	e1c42ad8 	ldrd	r2, [r4, #168]	; 0xa8
    3ef4:	e1520003 	cmp	r2, r3
    3ef8:	2affffcd 	bcs	3e34 <stbi__pnm_skip_whitespace+0xc>
    3efc:	e5d53000 	ldrb	r3, [r5]
    3f00:	e1a00004 	mov	r0, r4
    3f04:	e353000d 	cmp	r3, #13
    3f08:	1353000a 	cmpne	r3, #10
    3f0c:	0affffc8 	beq	3e34 <stbi__pnm_skip_whitespace+0xc>
    3f10:	ebfffe39 	bl	37fc <stbi__get8>
    3f14:	e5c50000 	strb	r0, [r5]
    3f18:	eaffffe9 	b	3ec4 <stbi__pnm_skip_whitespace+0x9c>
    3f1c:	e1a00004 	mov	r0, r4
    3f20:	ebfffe35 	bl	37fc <stbi__get8>
    3f24:	e5c50000 	strb	r0, [r5]
    3f28:	e5943010 	ldr	r3, [r4, #16]
    3f2c:	e3530000 	cmp	r3, #0
    3f30:	1affffc2 	bne	3e40 <stbi__pnm_skip_whitespace+0x18>
    3f34:	e1c42ad8 	ldrd	r2, [r4, #168]	; 0xa8
    3f38:	e1520003 	cmp	r2, r3
    3f3c:	3affffca 	bcc	3e6c <stbi__pnm_skip_whitespace+0x44>
    3f40:	e8bd8070 	pop	{r4, r5, r6, pc}
    3f44:	e5943010 	ldr	r3, [r4, #16]
    3f48:	e3530000 	cmp	r3, #0
    3f4c:	1affffce 	bne	3e8c <stbi__pnm_skip_whitespace+0x64>
    3f50:	e8bd8070 	pop	{r4, r5, r6, pc}

00003f54 <stbi__pnm_getinteger>:
    3f54:	e92d41f0 	push	{r4, r5, r6, r7, r8, lr}
    3f58:	e1a04000 	mov	r4, r0
    3f5c:	e1a06001 	mov	r6, r1
    3f60:	e3a05000 	mov	r5, #0
    3f64:	e3a0700a 	mov	r7, #10
    3f68:	ea000002 	b	3f78 <stbi__pnm_getinteger+0x24>
    3f6c:	e0253597 	mla	r5, r7, r5, r3
    3f70:	ebfffe21 	bl	37fc <stbi__get8>
    3f74:	e5c60000 	strb	r0, [r6]
    3f78:	e5943010 	ldr	r3, [r4, #16]
    3f7c:	e3530000 	cmp	r3, #0
    3f80:	0a000007 	beq	3fa4 <stbi__pnm_getinteger+0x50>
    3f84:	e5943018 	ldr	r3, [r4, #24]
    3f88:	e594001c 	ldr	r0, [r4, #28]
    3f8c:	e12fff33 	blx	r3
    3f90:	e3500000 	cmp	r0, #0
    3f94:	0a000005 	beq	3fb0 <stbi__pnm_getinteger+0x5c>
    3f98:	e5943020 	ldr	r3, [r4, #32]
    3f9c:	e3530000 	cmp	r3, #0
    3fa0:	0a000008 	beq	3fc8 <stbi__pnm_getinteger+0x74>
    3fa4:	e1c42ad8 	ldrd	r2, [r4, #168]	; 0xa8
    3fa8:	e1520003 	cmp	r2, r3
    3fac:	2a000005 	bcs	3fc8 <stbi__pnm_getinteger+0x74>
    3fb0:	e5d63000 	ldrb	r3, [r6]
    3fb4:	e1a00004 	mov	r0, r4
    3fb8:	e2433030 	sub	r3, r3, #48	; 0x30
    3fbc:	e6ef2073 	uxtb	r2, r3
    3fc0:	e3520009 	cmp	r2, #9
    3fc4:	9affffe8 	bls	3f6c <stbi__pnm_getinteger+0x18>
    3fc8:	e1a00005 	mov	r0, r5
    3fcc:	e8bd81f0 	pop	{r4, r5, r6, r7, r8, pc}

00003fd0 <stbi__pnm_info>:
    3fd0:	e92d41f0 	push	{r4, r5, r6, r7, r8, lr}
    3fd4:	e1a07001 	mov	r7, r1
    3fd8:	e1a06002 	mov	r6, r2
    3fdc:	e59010b0 	ldr	r1, [r0, #176]	; 0xb0
    3fe0:	e59020b4 	ldr	r2, [r0, #180]	; 0xb4
    3fe4:	e24dd008 	sub	sp, sp, #8
    3fe8:	e1a04000 	mov	r4, r0
    3fec:	e1a08003 	mov	r8, r3
    3ff0:	e58010a8 	str	r1, [r0, #168]	; 0xa8
    3ff4:	e58020ac 	str	r2, [r0, #172]	; 0xac
    3ff8:	ebfffdff 	bl	37fc <stbi__get8>
    3ffc:	e1a05000 	mov	r5, r0
    4000:	e1a00004 	mov	r0, r4
    4004:	ebfffdfc 	bl	37fc <stbi__get8>
    4008:	e3550050 	cmp	r5, #80	; 0x50
    400c:	0a000005 	beq	4028 <stbi__pnm_info+0x58>
    4010:	e59420b0 	ldr	r2, [r4, #176]	; 0xb0
    4014:	e3a00000 	mov	r0, #0
    4018:	e59430b4 	ldr	r3, [r4, #180]	; 0xb4
    401c:	e1c42af8 	strd	r2, [r4, #168]	; 0xa8
    4020:	e28dd008 	add	sp, sp, #8
    4024:	e8bd81f0 	pop	{r4, r5, r6, r7, r8, pc}
    4028:	e2403035 	sub	r3, r0, #53	; 0x35
    402c:	e6ef3073 	uxtb	r3, r3
    4030:	e3530001 	cmp	r3, #1
    4034:	8afffff5 	bhi	4010 <stbi__pnm_info+0x40>
    4038:	e3500036 	cmp	r0, #54	; 0x36
    403c:	e1a00004 	mov	r0, r4
    4040:	e28d5008 	add	r5, sp, #8
    4044:	03a03003 	moveq	r3, #3
    4048:	13a03001 	movne	r3, #1
    404c:	e5883000 	str	r3, [r8]
    4050:	ebfffde9 	bl	37fc <stbi__get8>
    4054:	e5650001 	strb	r0, [r5, #-1]!
    4058:	e1a00004 	mov	r0, r4
    405c:	e1a01005 	mov	r1, r5
    4060:	ebffff70 	bl	3e28 <stbi__pnm_skip_whitespace>
    4064:	e1a01005 	mov	r1, r5
    4068:	e1a00004 	mov	r0, r4
    406c:	ebffffb8 	bl	3f54 <stbi__pnm_getinteger>
    4070:	e1a01005 	mov	r1, r5
    4074:	e5870000 	str	r0, [r7]
    4078:	e1a00004 	mov	r0, r4
    407c:	ebffff69 	bl	3e28 <stbi__pnm_skip_whitespace>
    4080:	e1a01005 	mov	r1, r5
    4084:	e1a00004 	mov	r0, r4
    4088:	ebffffb1 	bl	3f54 <stbi__pnm_getinteger>
    408c:	e1a01005 	mov	r1, r5
    4090:	e5860000 	str	r0, [r6]
    4094:	e1a00004 	mov	r0, r4
    4098:	ebffff62 	bl	3e28 <stbi__pnm_skip_whitespace>
    409c:	e1a01005 	mov	r1, r5
    40a0:	e1a00004 	mov	r0, r4
    40a4:	ebffffaa 	bl	3f54 <stbi__pnm_getinteger>
    40a8:	e35000ff 	cmp	r0, #255	; 0xff
    40ac:	c3003000 	movwgt	r3, #0
    40b0:	c3403000 	movtgt	r3, #0
    40b4:	c3002000 	movwgt	r2, #0
    40b8:	c3a00000 	movgt	r0, #0
    40bc:	c3402000 	movtgt	r2, #0
    40c0:	d3a00001 	movle	r0, #1
    40c4:	c5832000 	strgt	r2, [r3]
    40c8:	e28dd008 	add	sp, sp, #8
    40cc:	e8bd81f0 	pop	{r4, r5, r6, r7, r8, pc}

000040d0 <stbi__hdr_load>:
    40d0:	e92d4ff0 	push	{r4, r5, r6, r7, r8, r9, sl, fp, lr}
    40d4:	e24dde42 	sub	sp, sp, #1056	; 0x420
    40d8:	e24dd00c 	sub	sp, sp, #12
    40dc:	e1a07001 	mov	r7, r1
    40e0:	e28d1028 	add	r1, sp, #40	; 0x28
    40e4:	e1a04003 	mov	r4, r3
    40e8:	e1a05002 	mov	r5, r2
    40ec:	e1a06000 	mov	r6, r0
    40f0:	ebfffebe 	bl	3bf0 <stbi__hdr_gettoken>
    40f4:	e3001000 	movw	r1, #0
    40f8:	e3401000 	movt	r1, #0
    40fc:	ebfffffe 	bl	0 <strcmp>
    4100:	e2503000 	subs	r3, r0, #0
    4104:	1a000103 	bne	4518 <stbi__hdr_load+0x448>
    4108:	e3008000 	movw	r8, #0
    410c:	e1a09003 	mov	r9, r3
    4110:	e3408000 	movt	r8, #0
    4114:	ea000002 	b	4124 <stbi__hdr_load+0x54>
    4118:	ebfffffe 	bl	0 <strcmp>
    411c:	e3500000 	cmp	r0, #0
    4120:	03a09001 	moveq	r9, #1
    4124:	e28d1028 	add	r1, sp, #40	; 0x28
    4128:	e1a00006 	mov	r0, r6
    412c:	ebfffeaf 	bl	3bf0 <stbi__hdr_gettoken>
    4130:	e1a01008 	mov	r1, r8
    4134:	e58d0020 	str	r0, [sp, #32]
    4138:	e5d03000 	ldrb	r3, [r0]
    413c:	e3530000 	cmp	r3, #0
    4140:	1afffff4 	bne	4118 <stbi__hdr_load+0x48>
    4144:	e3590000 	cmp	r9, #0
    4148:	e58d901c 	str	r9, [sp, #28]
    414c:	0a0000d3 	beq	44a0 <stbi__hdr_load+0x3d0>
    4150:	e28d1028 	add	r1, sp, #40	; 0x28
    4154:	e1a00006 	mov	r0, r6
    4158:	ebfffea4 	bl	3bf0 <stbi__hdr_gettoken>
    415c:	e3001000 	movw	r1, #0
    4160:	e3a02003 	mov	r2, #3
    4164:	e3401000 	movt	r1, #0
    4168:	e1a08000 	mov	r8, r0
    416c:	e58d0020 	str	r0, [sp, #32]
    4170:	ebfffffe 	bl	0 <strncmp>
    4174:	e3500000 	cmp	r0, #0
    4178:	1a0000bd 	bne	4474 <stbi__hdr_load+0x3a4>
    417c:	e2880003 	add	r0, r8, #3
    4180:	e3a0200a 	mov	r2, #10
    4184:	e28d1020 	add	r1, sp, #32
    4188:	e58d0020 	str	r0, [sp, #32]
    418c:	ebfffffe 	bl	0 <strtol>
    4190:	e59d8020 	ldr	r8, [sp, #32]
    4194:	e58d0004 	str	r0, [sp, #4]
    4198:	e5d83000 	ldrb	r3, [r8]
    419c:	e3530020 	cmp	r3, #32
    41a0:	1a000004 	bne	41b8 <stbi__hdr_load+0xe8>
    41a4:	e2888001 	add	r8, r8, #1
    41a8:	e58d8020 	str	r8, [sp, #32]
    41ac:	e5d83000 	ldrb	r3, [r8]
    41b0:	e3530020 	cmp	r3, #32
    41b4:	0afffffa 	beq	41a4 <stbi__hdr_load+0xd4>
    41b8:	e3001000 	movw	r1, #0
    41bc:	e3a02003 	mov	r2, #3
    41c0:	e3401000 	movt	r1, #0
    41c4:	e1a00008 	mov	r0, r8
    41c8:	ebfffffe 	bl	0 <strncmp>
    41cc:	e2501000 	subs	r1, r0, #0
    41d0:	1a0000a7 	bne	4474 <stbi__hdr_load+0x3a4>
    41d4:	e3a0200a 	mov	r2, #10
    41d8:	e2880003 	add	r0, r8, #3
    41dc:	e58d0020 	str	r0, [sp, #32]
    41e0:	ebfffffe 	bl	0 <strtol>
    41e4:	e59d3004 	ldr	r3, [sp, #4]
    41e8:	e3540000 	cmp	r4, #0
    41ec:	e5870000 	str	r0, [r7]
    41f0:	e1a09000 	mov	r9, r0
    41f4:	e5853000 	str	r3, [r5]
    41f8:	13a03003 	movne	r3, #3
    41fc:	15843000 	strne	r3, [r4]
    4200:	e59d4004 	ldr	r4, [sp, #4]
    4204:	e59d3450 	ldr	r3, [sp, #1104]	; 0x450
    4208:	e0000490 	mul	r0, r0, r4
    420c:	e3530000 	cmp	r3, #0
    4210:	03a03003 	moveq	r3, #3
    4214:	e58d3450 	str	r3, [sp, #1104]	; 0x450
    4218:	e0000093 	mul	r0, r3, r0
    421c:	e1a00100 	lsl	r0, r0, #2
    4220:	ebfffffe 	bl	0 <malloc>
    4224:	e2492008 	sub	r2, r9, #8
    4228:	e3073ff7 	movw	r3, #32759	; 0x7ff7
    422c:	e1520003 	cmp	r2, r3
    4230:	e58d000c 	str	r0, [sp, #12]
    4234:	8a00005d 	bhi	43b0 <stbi__hdr_load+0x2e0>
    4238:	e3540000 	cmp	r4, #0
    423c:	d3a0a000 	movle	sl, #0
    4240:	da000054 	ble	4398 <stbi__hdr_load+0x2c8>
    4244:	e59d3450 	ldr	r3, [sp, #1104]	; 0x450
    4248:	e1a02109 	lsl	r2, r9, #2
    424c:	e58d2010 	str	r2, [sp, #16]
    4250:	e3a0a000 	mov	sl, #0
    4254:	e59d2450 	ldr	r2, [sp, #1104]	; 0x450
    4258:	e0030399 	mul	r3, r9, r3
    425c:	e58da008 	str	sl, [sp, #8]
    4260:	e1a02102 	lsl	r2, r2, #2
    4264:	e58d2018 	str	r2, [sp, #24]
    4268:	e59d200c 	ldr	r2, [sp, #12]
    426c:	e1a03103 	lsl	r3, r3, #2
    4270:	e58d2000 	str	r2, [sp]
    4274:	e58d3014 	str	r3, [sp, #20]
    4278:	e1a00006 	mov	r0, r6
    427c:	ebfffd5e 	bl	37fc <stbi__get8>
    4280:	e1a07000 	mov	r7, r0
    4284:	e1a00006 	mov	r0, r6
    4288:	ebfffd5b 	bl	37fc <stbi__get8>
    428c:	e1a05000 	mov	r5, r0
    4290:	e1a00006 	mov	r0, r6
    4294:	ebfffd58 	bl	37fc <stbi__get8>
    4298:	e3550002 	cmp	r5, #2
    429c:	03570002 	cmpeq	r7, #2
    42a0:	13a04001 	movne	r4, #1
    42a4:	03a04000 	moveq	r4, #0
    42a8:	e1a03000 	mov	r3, r0
    42ac:	1a000087 	bne	44d0 <stbi__hdr_load+0x400>
    42b0:	e3100080 	tst	r0, #128	; 0x80
    42b4:	1a000083 	bne	44c8 <stbi__hdr_load+0x3f8>
    42b8:	e1a00006 	mov	r0, r6
    42bc:	e1a05403 	lsl	r5, r3, #8
    42c0:	ebfffd4d 	bl	37fc <stbi__get8>
    42c4:	e1800005 	orr	r0, r0, r5
    42c8:	e1590000 	cmp	r9, r0
    42cc:	1a00009c 	bne	4544 <stbi__hdr_load+0x474>
    42d0:	e35a0000 	cmp	sl, #0
    42d4:	0a000062 	beq	4464 <stbi__hdr_load+0x394>
    42d8:	e3a08000 	mov	r8, #0
    42dc:	e3a07000 	mov	r7, #0
    42e0:	e1a00006 	mov	r0, r6
    42e4:	ebfffd44 	bl	37fc <stbi__get8>
    42e8:	e3500080 	cmp	r0, #128	; 0x80
    42ec:	e1a05000 	mov	r5, r0
    42f0:	8a00004e 	bhi	4430 <stbi__hdr_load+0x360>
    42f4:	e3500000 	cmp	r0, #0
    42f8:	0a000009 	beq	4324 <stbi__hdr_load+0x254>
    42fc:	e088b107 	add	fp, r8, r7, lsl #2
    4300:	e3a04000 	mov	r4, #0
    4304:	e08ab00b 	add	fp, sl, fp
    4308:	e1a00006 	mov	r0, r6
    430c:	ebfffd3a 	bl	37fc <stbi__get8>
    4310:	e7cb0104 	strb	r0, [fp, r4, lsl #2]
    4314:	e2844001 	add	r4, r4, #1
    4318:	e1540005 	cmp	r4, r5
    431c:	1afffff9 	bne	4308 <stbi__hdr_load+0x238>
    4320:	e0847007 	add	r7, r4, r7
    4324:	e1570009 	cmp	r7, r9
    4328:	baffffec 	blt	42e0 <stbi__hdr_load+0x210>
    432c:	e2888001 	add	r8, r8, #1
    4330:	e3580004 	cmp	r8, #4
    4334:	1affffe8 	bne	42dc <stbi__hdr_load+0x20c>
    4338:	e59d3010 	ldr	r3, [sp, #16]
    433c:	e1a0400a 	mov	r4, sl
    4340:	e59d7000 	ldr	r7, [sp]
    4344:	e59d8018 	ldr	r8, [sp, #24]
    4348:	e083500a 	add	r5, r3, sl
    434c:	e59db450 	ldr	fp, [sp, #1104]	; 0x450
    4350:	e1a01004 	mov	r1, r4
    4354:	e1a00007 	mov	r0, r7
    4358:	e1a0200b 	mov	r2, fp
    435c:	e2844004 	add	r4, r4, #4
    4360:	ebfffc24 	bl	33f8 <stbi__hdr_convert>
    4364:	e1550004 	cmp	r5, r4
    4368:	e0877008 	add	r7, r7, r8
    436c:	1afffff7 	bne	4350 <stbi__hdr_load+0x280>
    4370:	e59d2000 	ldr	r2, [sp]
    4374:	e59d1014 	ldr	r1, [sp, #20]
    4378:	e59d3008 	ldr	r3, [sp, #8]
    437c:	e0822001 	add	r2, r2, r1
    4380:	e58d2000 	str	r2, [sp]
    4384:	e59d2004 	ldr	r2, [sp, #4]
    4388:	e2833001 	add	r3, r3, #1
    438c:	e58d3008 	str	r3, [sp, #8]
    4390:	e1520003 	cmp	r2, r3
    4394:	1affffb7 	bne	4278 <stbi__hdr_load+0x1a8>
    4398:	e1a0000a 	mov	r0, sl
    439c:	ebfffffe 	bl	0 <free>
    43a0:	e59d000c 	ldr	r0, [sp, #12]
    43a4:	e28dde42 	add	sp, sp, #1056	; 0x420
    43a8:	e28dd00c 	add	sp, sp, #12
    43ac:	e8bd8ff0 	pop	{r4, r5, r6, r7, r8, r9, sl, fp, pc}
    43b0:	e3a03000 	mov	r3, #0
    43b4:	e58d301c 	str	r3, [sp, #28]
    43b8:	e59d301c 	ldr	r3, [sp, #28]
    43bc:	e59d2004 	ldr	r2, [sp, #4]
    43c0:	e1530002 	cmp	r3, r2
    43c4:	aafffff5 	bge	43a0 <stbi__hdr_load+0x2d0>
    43c8:	e1a08003 	mov	r8, r3
    43cc:	e3a07000 	mov	r7, #0
    43d0:	e2833001 	add	r3, r3, #1
    43d4:	e58d301c 	str	r3, [sp, #28]
    43d8:	ea000011 	b	4424 <stbi__hdr_load+0x354>
    43dc:	e59d3450 	ldr	r3, [sp, #1104]	; 0x450
    43e0:	e28d4024 	add	r4, sp, #36	; 0x24
    43e4:	e0050899 	mul	r5, r9, r8
    43e8:	e0030397 	mul	r3, r7, r3
    43ec:	e2877001 	add	r7, r7, #1
    43f0:	e1a0b003 	mov	fp, r3
    43f4:	e59d3450 	ldr	r3, [sp, #1104]	; 0x450
    43f8:	e0050593 	mul	r5, r3, r5
    43fc:	e3a02004 	mov	r2, #4
    4400:	e1a01004 	mov	r1, r4
    4404:	e1a00006 	mov	r0, r6
    4408:	ebfff6ad 	bl	1ec4 <stbi__getn>
    440c:	e08b0005 	add	r0, fp, r5
    4410:	e59d300c 	ldr	r3, [sp, #12]
    4414:	e1a01004 	mov	r1, r4
    4418:	e59d2450 	ldr	r2, [sp, #1104]	; 0x450
    441c:	e0830100 	add	r0, r3, r0, lsl #2
    4420:	ebfffbf4 	bl	33f8 <stbi__hdr_convert>
    4424:	e1570009 	cmp	r7, r9
    4428:	baffffeb 	blt	43dc <stbi__hdr_load+0x30c>
    442c:	eaffffe1 	b	43b8 <stbi__hdr_load+0x2e8>
    4430:	e1a00006 	mov	r0, r6
    4434:	e2455080 	sub	r5, r5, #128	; 0x80
    4438:	ebfffcef 	bl	37fc <stbi__get8>
    443c:	e0882107 	add	r2, r8, r7, lsl #2
    4440:	e08a2002 	add	r2, sl, r2
    4444:	e6ef5075 	uxtb	r5, r5
    4448:	e3a03000 	mov	r3, #0
    444c:	e7c20103 	strb	r0, [r2, r3, lsl #2]
    4450:	e2833001 	add	r3, r3, #1
    4454:	e1550003 	cmp	r5, r3
    4458:	1afffffb 	bne	444c <stbi__hdr_load+0x37c>
    445c:	e0857007 	add	r7, r5, r7
    4460:	eaffffaf 	b	4324 <stbi__hdr_load+0x254>
    4464:	e59d0010 	ldr	r0, [sp, #16]
    4468:	ebfffffe 	bl	0 <malloc>
    446c:	e1a0a000 	mov	sl, r0
    4470:	eaffff98 	b	42d8 <stbi__hdr_load+0x208>
    4474:	e3003000 	movw	r3, #0
    4478:	e3403000 	movt	r3, #0
    447c:	e3a01000 	mov	r1, #0
    4480:	e58d100c 	str	r1, [sp, #12]
    4484:	e59d000c 	ldr	r0, [sp, #12]
    4488:	e3002000 	movw	r2, #0
    448c:	e3402000 	movt	r2, #0
    4490:	e5832000 	str	r2, [r3]
    4494:	e28dde42 	add	sp, sp, #1056	; 0x420
    4498:	e28dd00c 	add	sp, sp, #12
    449c:	e8bd8ff0 	pop	{r4, r5, r6, r7, r8, r9, sl, fp, pc}
    44a0:	e3003000 	movw	r3, #0
    44a4:	e3403000 	movt	r3, #0
    44a8:	e58d900c 	str	r9, [sp, #12]
    44ac:	e3002000 	movw	r2, #0
    44b0:	e59d000c 	ldr	r0, [sp, #12]
    44b4:	e3402000 	movt	r2, #0
    44b8:	e5832000 	str	r2, [r3]
    44bc:	e28dde42 	add	sp, sp, #1056	; 0x420
    44c0:	e28dd00c 	add	sp, sp, #12
    44c4:	e8bd8ff0 	pop	{r4, r5, r6, r7, r8, r9, sl, fp, pc}
    44c8:	e3a05002 	mov	r5, #2
    44cc:	e1a07005 	mov	r7, r5
    44d0:	e1a00006 	mov	r0, r6
    44d4:	e5cd7024 	strb	r7, [sp, #36]	; 0x24
    44d8:	e5cd5025 	strb	r5, [sp, #37]	; 0x25
    44dc:	e28d4024 	add	r4, sp, #36	; 0x24
    44e0:	e5cd3026 	strb	r3, [sp, #38]	; 0x26
    44e4:	ebfffcc4 	bl	37fc <stbi__get8>
    44e8:	e59d2450 	ldr	r2, [sp, #1104]	; 0x450
    44ec:	e1a01004 	mov	r1, r4
    44f0:	e3a08000 	mov	r8, #0
    44f4:	e3a07002 	mov	r7, #2
    44f8:	e1a05008 	mov	r5, r8
    44fc:	e1a0b002 	mov	fp, r2
    4500:	e5cd0027 	strb	r0, [sp, #39]	; 0x27
    4504:	e59d000c 	ldr	r0, [sp, #12]
    4508:	ebfffbba 	bl	33f8 <stbi__hdr_convert>
    450c:	e1a0000a 	mov	r0, sl
    4510:	ebfffffe 	bl	0 <free>
    4514:	eaffffb8 	b	43fc <stbi__hdr_load+0x32c>
    4518:	e3003000 	movw	r3, #0
    451c:	e3403000 	movt	r3, #0
    4520:	e3a01000 	mov	r1, #0
    4524:	e58d100c 	str	r1, [sp, #12]
    4528:	e59d000c 	ldr	r0, [sp, #12]
    452c:	e3002000 	movw	r2, #0
    4530:	e3402000 	movt	r2, #0
    4534:	e5832000 	str	r2, [r3]
    4538:	e28dde42 	add	sp, sp, #1056	; 0x420
    453c:	e28dd00c 	add	sp, sp, #12
    4540:	e8bd8ff0 	pop	{r4, r5, r6, r7, r8, r9, sl, fp, pc}
    4544:	e59d000c 	ldr	r0, [sp, #12]
    4548:	e58d400c 	str	r4, [sp, #12]
    454c:	ebfffffe 	bl	0 <free>
    4550:	e1a0000a 	mov	r0, sl
    4554:	ebfffffe 	bl	0 <free>
    4558:	e3003000 	movw	r3, #0
    455c:	e3403000 	movt	r3, #0
    4560:	e3002000 	movw	r2, #0
    4564:	e3402000 	movt	r2, #0
    4568:	e5832000 	str	r2, [r3]
    456c:	eaffff8b 	b	43a0 <stbi__hdr_load+0x2d0>

00004570 <stbi__skip.part.11>:
    4570:	e5902010 	ldr	r2, [r0, #16]
    4574:	e59030a8 	ldr	r3, [r0, #168]	; 0xa8
    4578:	e3520000 	cmp	r2, #0
    457c:	0a000008 	beq	45a4 <stbi__skip.part.11+0x34>
    4580:	e590c0ac 	ldr	ip, [r0, #172]	; 0xac
    4584:	e04c2003 	sub	r2, ip, r3
    4588:	e1520001 	cmp	r2, r1
    458c:	aa000004 	bge	45a4 <stbi__skip.part.11+0x34>
    4590:	e580c0a8 	str	ip, [r0, #168]	; 0xa8
    4594:	e0411002 	sub	r1, r1, r2
    4598:	e5903014 	ldr	r3, [r0, #20]
    459c:	e590001c 	ldr	r0, [r0, #28]
    45a0:	e12fff13 	bx	r3
    45a4:	e0833001 	add	r3, r3, r1
    45a8:	e58030a8 	str	r3, [r0, #168]	; 0xa8
    45ac:	e12fff1e 	bx	lr

000045b0 <stbi__process_marker>:
    45b0:	e35100db 	cmp	r1, #219	; 0xdb
    45b4:	e92d4ff0 	push	{r4, r5, r6, r7, r8, r9, sl, fp, lr}
    45b8:	e1a04000 	mov	r4, r0
    45bc:	e24dd04c 	sub	sp, sp, #76	; 0x4c
    45c0:	0a00009c 	beq	4838 <stbi__process_marker+0x288>
    45c4:	da000019 	ble	4630 <stbi__process_marker+0x80>
    45c8:	e35100dd 	cmp	r1, #221	; 0xdd
    45cc:	0a00000a 	beq	45fc <stbi__process_marker+0x4c>
    45d0:	e35100ff 	cmp	r1, #255	; 0xff
    45d4:	1a000088 	bne	47fc <stbi__process_marker+0x24c>
    45d8:	e3003000 	movw	r3, #0
    45dc:	e3403000 	movt	r3, #0
    45e0:	e3a05000 	mov	r5, #0
    45e4:	e3002000 	movw	r2, #0
    45e8:	e3402000 	movt	r2, #0
    45ec:	e5832000 	str	r2, [r3]
    45f0:	e1a00005 	mov	r0, r5
    45f4:	e28dd04c 	add	sp, sp, #76	; 0x4c
    45f8:	e8bd8ff0 	pop	{r4, r5, r6, r7, r8, r9, sl, fp, pc}
    45fc:	e5900000 	ldr	r0, [r0]
    4600:	ebfffc9d 	bl	387c <stbi__get16be>
    4604:	e3500004 	cmp	r0, #4
    4608:	0a0000be 	beq	4908 <stbi__process_marker+0x358>
    460c:	e3003000 	movw	r3, #0
    4610:	e3403000 	movt	r3, #0
    4614:	e3a05000 	mov	r5, #0
    4618:	e3002000 	movw	r2, #0
    461c:	e1a00005 	mov	r0, r5
    4620:	e3402000 	movt	r2, #0
    4624:	e5832000 	str	r2, [r3]
    4628:	e28dd04c 	add	sp, sp, #76	; 0x4c
    462c:	e8bd8ff0 	pop	{r4, r5, r6, r7, r8, r9, sl, fp, pc}
    4630:	e35100c4 	cmp	r1, #196	; 0xc4
    4634:	1a000070 	bne	47fc <stbi__process_marker+0x24c>
    4638:	e5900000 	ldr	r0, [r0]
    463c:	ebfffc8e 	bl	387c <stbi__get16be>
    4640:	e2406002 	sub	r6, r0, #2
    4644:	e3560000 	cmp	r6, #0
    4648:	da000031 	ble	4714 <stbi__process_marker+0x164>
    464c:	e28db044 	add	fp, sp, #68	; 0x44
    4650:	e5940000 	ldr	r0, [r4]
    4654:	ebfffc68 	bl	37fc <stbi__get8>
    4658:	e200900f 	and	r9, r0, #15
    465c:	e1a08240 	asr	r8, r0, #4
    4660:	e3590003 	cmp	r9, #3
    4664:	93a05000 	movls	r5, #0
    4668:	83a05001 	movhi	r5, #1
    466c:	e3580001 	cmp	r8, #1
    4670:	c3855001 	orrgt	r5, r5, #1
    4674:	e3550000 	cmp	r5, #0
    4678:	1a00008c 	bne	48b0 <stbi__process_marker+0x300>
    467c:	e28d7004 	add	r7, sp, #4
    4680:	e5940000 	ldr	r0, [r4]
    4684:	ebfffc5c 	bl	37fc <stbi__get8>
    4688:	e5a70004 	str	r0, [r7, #4]!
    468c:	e15b0007 	cmp	fp, r7
    4690:	e0855000 	add	r5, r5, r0
    4694:	1afffff9 	bne	4680 <stbi__process_marker+0xd0>
    4698:	e3580000 	cmp	r8, #0
    469c:	e3a07e69 	mov	r7, #1680	; 0x690
    46a0:	e2463011 	sub	r3, r6, #17
    46a4:	e58d3004 	str	r3, [sp, #4]
    46a8:	e0070997 	mul	r7, r7, r9
    46ac:	1a00001b 	bne	4720 <stbi__process_marker+0x170>
    46b0:	e2840004 	add	r0, r4, #4
    46b4:	e28d1008 	add	r1, sp, #8
    46b8:	e0800007 	add	r0, r0, r7
    46bc:	ebfff7da 	bl	262c <stbi__build_huffman>
    46c0:	e3500000 	cmp	r0, #0
    46c4:	0a00007e 	beq	48c4 <stbi__process_marker+0x314>
    46c8:	e2873b01 	add	r3, r7, #1024	; 0x400
    46cc:	e3550000 	cmp	r5, #0
    46d0:	e2833004 	add	r3, r3, #4
    46d4:	e084a003 	add	sl, r4, r3
    46d8:	0a000009 	beq	4704 <stbi__process_marker+0x154>
    46dc:	e24aa001 	sub	sl, sl, #1
    46e0:	e3a06000 	mov	r6, #0
    46e4:	e5940000 	ldr	r0, [r4]
    46e8:	e2866001 	add	r6, r6, #1
    46ec:	ebfffc42 	bl	37fc <stbi__get8>
    46f0:	e1560005 	cmp	r6, r5
    46f4:	e5ea0001 	strb	r0, [sl, #1]!
    46f8:	bafffff9 	blt	46e4 <stbi__process_marker+0x134>
    46fc:	e3580000 	cmp	r8, #0
    4700:	1a000014 	bne	4758 <stbi__process_marker+0x1a8>
    4704:	e59d3004 	ldr	r3, [sp, #4]
    4708:	e0436005 	sub	r6, r3, r5
    470c:	e3560000 	cmp	r6, #0
    4710:	caffffce 	bgt	4650 <stbi__process_marker+0xa0>
    4714:	e16f5f16 	clz	r5, r6
    4718:	e1a052a5 	lsr	r5, r5, #5
    471c:	eaffffb3 	b	45f0 <stbi__process_marker+0x40>
    4720:	e2846d69 	add	r6, r4, #6720	; 0x1a40
    4724:	e28d1008 	add	r1, sp, #8
    4728:	e2866004 	add	r6, r6, #4
    472c:	e0866007 	add	r6, r6, r7
    4730:	e1a00006 	mov	r0, r6
    4734:	ebfff7bc 	bl	262c <stbi__build_huffman>
    4738:	e3500000 	cmp	r0, #0
    473c:	0a000060 	beq	48c4 <stbi__process_marker+0x314>
    4740:	e3550000 	cmp	r5, #0
    4744:	0a000006 	beq	4764 <stbi__process_marker+0x1b4>
    4748:	e287ad79 	add	sl, r7, #7744	; 0x1e40
    474c:	e28aa004 	add	sl, sl, #4
    4750:	e084a00a 	add	sl, r4, sl
    4754:	eaffffe0 	b	46dc <stbi__process_marker+0x12c>
    4758:	e2846d69 	add	r6, r4, #6720	; 0x1a40
    475c:	e2866004 	add	r6, r6, #4
    4760:	e0866007 	add	r6, r6, r7
    4764:	e084e509 	add	lr, r4, r9, lsl #10
    4768:	e2869c02 	add	r9, r6, #512	; 0x200
    476c:	e28eedd6 	add	lr, lr, #13696	; 0x3580
    4770:	e1a0c006 	mov	ip, r6
    4774:	e28ee002 	add	lr, lr, #2
    4778:	e3a08000 	mov	r8, #0
    477c:	e04c1006 	sub	r1, ip, r6
    4780:	e4dc3001 	ldrb	r3, [ip], #1
    4784:	e1ee80b2 	strh	r8, [lr, #2]!
    4788:	e35300ff 	cmp	r3, #255	; 0xff
    478c:	e0860003 	add	r0, r6, r3
    4790:	0a000016 	beq	47f0 <stbi__process_marker+0x240>
    4794:	e5d02400 	ldrb	r2, [r0, #1024]	; 0x400
    4798:	e212a00f 	ands	sl, r2, #15
    479c:	0a000013 	beq	47f0 <stbi__process_marker+0x240>
    47a0:	e5d00500 	ldrb	r0, [r0, #1280]	; 0x500
    47a4:	e26a3009 	rsb	r3, sl, #9
    47a8:	e24a7001 	sub	r7, sl, #1
    47ac:	e1a01011 	lsl	r1, r1, r0
    47b0:	e08a0000 	add	r0, sl, r0
    47b4:	e7e81051 	ubfx	r1, r1, #0, #9
    47b8:	e3500009 	cmp	r0, #9
    47bc:	e1a03351 	asr	r3, r1, r3
    47c0:	ca00000a 	bgt	47f0 <stbi__process_marker+0x240>
    47c4:	e3e01000 	mvn	r1, #0
    47c8:	e20220f0 	and	r2, r2, #240	; 0xf0
    47cc:	e0831a11 	add	r1, r3, r1, lsl sl
    47d0:	e3a0a001 	mov	sl, #1
    47d4:	e153071a 	cmp	r3, sl, lsl r7
    47d8:	e0822000 	add	r2, r2, r0
    47dc:	b081300a 	addlt	r3, r1, sl
    47e0:	e2831080 	add	r1, r3, #128	; 0x80
    47e4:	e35100ff 	cmp	r1, #255	; 0xff
    47e8:	e0822403 	add	r2, r2, r3, lsl #8
    47ec:	91ce20b0 	strhls	r2, [lr]
    47f0:	e159000c 	cmp	r9, ip
    47f4:	1affffe0 	bne	477c <stbi__process_marker+0x1cc>
    47f8:	eaffffc1 	b	4704 <stbi__process_marker+0x154>
    47fc:	e24130e0 	sub	r3, r1, #224	; 0xe0
    4800:	e35100fe 	cmp	r1, #254	; 0xfe
    4804:	1353000f 	cmpne	r3, #15
    4808:	93a05001 	movls	r5, #1
    480c:	83a05000 	movhi	r5, #0
    4810:	8affff76 	bhi	45f0 <stbi__process_marker+0x40>
    4814:	e5944000 	ldr	r4, [r4]
    4818:	e1a00004 	mov	r0, r4
    481c:	ebfffc16 	bl	387c <stbi__get16be>
    4820:	e2501002 	subs	r1, r0, #2
    4824:	4a00003d 	bmi	4920 <stbi__process_marker+0x370>
    4828:	e1a00004 	mov	r0, r4
    482c:	e3a05001 	mov	r5, #1
    4830:	ebffff4e 	bl	4570 <stbi__skip.part.11>
    4834:	eaffff6d 	b	45f0 <stbi__process_marker+0x40>
    4838:	e5900000 	ldr	r0, [r0]
    483c:	ebfffc0e 	bl	387c <stbi__get16be>
    4840:	e2409002 	sub	r9, r0, #2
    4844:	e3590000 	cmp	r9, #0
    4848:	da000015 	ble	48a4 <stbi__process_marker+0x2f4>
    484c:	e3038484 	movw	r8, #13444	; 0x3484
    4850:	e5940000 	ldr	r0, [r4]
    4854:	ebfffbe8 	bl	37fc <stbi__get8>
    4858:	e1b05240 	asrs	r5, r0, #4
    485c:	e200000f 	and	r0, r0, #15
    4860:	1a00001b 	bne	48d4 <stbi__process_marker+0x324>
    4864:	e3500003 	cmp	r0, #3
    4868:	8a000020 	bhi	48f0 <stbi__process_marker+0x340>
    486c:	e59f60bc 	ldr	r6, [pc, #188]	; 4930 <stbi__process_marker+0x380>
    4870:	e0847300 	add	r7, r4, r0, lsl #6
    4874:	e286a03f 	add	sl, r6, #63	; 0x3f
    4878:	ea000000 	b	4880 <stbi__process_marker+0x2d0>
    487c:	e5f65001 	ldrb	r5, [r6, #1]!
    4880:	e5940000 	ldr	r0, [r4]
    4884:	e0875005 	add	r5, r7, r5
    4888:	ebfffbdb 	bl	37fc <stbi__get8>
    488c:	e156000a 	cmp	r6, sl
    4890:	e7c50008 	strb	r0, [r5, r8]
    4894:	1afffff8 	bne	487c <stbi__process_marker+0x2cc>
    4898:	e2499041 	sub	r9, r9, #65	; 0x41
    489c:	e3590000 	cmp	r9, #0
    48a0:	caffffea 	bgt	4850 <stbi__process_marker+0x2a0>
    48a4:	e16f5f19 	clz	r5, r9
    48a8:	e1a052a5 	lsr	r5, r5, #5
    48ac:	eaffff4f 	b	45f0 <stbi__process_marker+0x40>
    48b0:	e3003000 	movw	r3, #0
    48b4:	e3403000 	movt	r3, #0
    48b8:	e3002000 	movw	r2, #0
    48bc:	e3402000 	movt	r2, #0
    48c0:	e5832000 	str	r2, [r3]
    48c4:	e3a05000 	mov	r5, #0
    48c8:	e1a00005 	mov	r0, r5
    48cc:	e28dd04c 	add	sp, sp, #76	; 0x4c
    48d0:	e8bd8ff0 	pop	{r4, r5, r6, r7, r8, r9, sl, fp, pc}
    48d4:	e3003000 	movw	r3, #0
    48d8:	e3403000 	movt	r3, #0
    48dc:	e3002000 	movw	r2, #0
    48e0:	e3a05000 	mov	r5, #0
    48e4:	e3402000 	movt	r2, #0
    48e8:	e5832000 	str	r2, [r3]
    48ec:	eaffff3f 	b	45f0 <stbi__process_marker+0x40>
    48f0:	e3003000 	movw	r3, #0
    48f4:	e3403000 	movt	r3, #0
    48f8:	e3002000 	movw	r2, #0
    48fc:	e3402000 	movt	r2, #0
    4900:	e5832000 	str	r2, [r3]
    4904:	eaffff39 	b	45f0 <stbi__process_marker+0x40>
    4908:	e5940000 	ldr	r0, [r4]
    490c:	e2844901 	add	r4, r4, #16384	; 0x4000
    4910:	ebfffbd9 	bl	387c <stbi__get16be>
    4914:	e3a05001 	mov	r5, #1
    4918:	e58406f8 	str	r0, [r4, #1784]	; 0x6f8
    491c:	eaffff33 	b	45f0 <stbi__process_marker+0x40>
    4920:	e59430ac 	ldr	r3, [r4, #172]	; 0xac
    4924:	e3a05001 	mov	r5, #1
    4928:	e58430a8 	str	r3, [r4, #168]	; 0xa8
    492c:	eaffff2f 	b	45f0 <stbi__process_marker+0x40>
    4930:	000000b4 	.word	0x000000b4

00004934 <stbi__get_marker.isra.12>:
    4934:	e92d4070 	push	{r4, r5, r6, lr}
    4938:	e5d14000 	ldrb	r4, [r1]
    493c:	e35400ff 	cmp	r4, #255	; 0xff
    4940:	0a000003 	beq	4954 <stbi__get_marker.isra.12+0x20>
    4944:	e3e03000 	mvn	r3, #0
    4948:	e5c13000 	strb	r3, [r1]
    494c:	e1a00004 	mov	r0, r4
    4950:	e8bd8070 	pop	{r4, r5, r6, pc}
    4954:	e1a05000 	mov	r5, r0
    4958:	e5900000 	ldr	r0, [r0]
    495c:	ebfffba6 	bl	37fc <stbi__get8>
    4960:	e35000ff 	cmp	r0, #255	; 0xff
    4964:	1afffff8 	bne	494c <stbi__get_marker.isra.12+0x18>
    4968:	e5950000 	ldr	r0, [r5]
    496c:	ebfffba2 	bl	37fc <stbi__get8>
    4970:	e35000ff 	cmp	r0, #255	; 0xff
    4974:	e1a04000 	mov	r4, r0
    4978:	0afffffa 	beq	4968 <stbi__get_marker.isra.12+0x34>
    497c:	eafffff2 	b	494c <stbi__get_marker.isra.12+0x18>

00004980 <stbi__decode_jpeg_header>:
    4980:	e92d4ff0 	push	{r4, r5, r6, r7, r8, r9, sl, fp, lr}
    4984:	e2807c46 	add	r7, r0, #17920	; 0x4600
    4988:	e2805901 	add	r5, r0, #16384	; 0x4000
    498c:	e28770c4 	add	r7, r7, #196	; 0xc4
    4990:	e3e03000 	mvn	r3, #0
    4994:	e24dd01c 	sub	sp, sp, #28
    4998:	e1a09001 	mov	r9, r1
    499c:	e5c536c4 	strb	r3, [r5, #1732]	; 0x6c4
    49a0:	e1a01007 	mov	r1, r7
    49a4:	e1a04000 	mov	r4, r0
    49a8:	ebffffe1 	bl	4934 <stbi__get_marker.isra.12>
    49ac:	e35000d8 	cmp	r0, #216	; 0xd8
    49b0:	0a000007 	beq	49d4 <stbi__decode_jpeg_header+0x54>
    49b4:	e3003000 	movw	r3, #0
    49b8:	e3403000 	movt	r3, #0
    49bc:	e3a00000 	mov	r0, #0
    49c0:	e3002000 	movw	r2, #0
    49c4:	e3402000 	movt	r2, #0
    49c8:	e5832000 	str	r2, [r3]
    49cc:	e28dd01c 	add	sp, sp, #28
    49d0:	e8bd8ff0 	pop	{r4, r5, r6, r7, r8, r9, sl, fp, pc}
    49d4:	e3590001 	cmp	r9, #1
    49d8:	0a000026 	beq	4a78 <stbi__decode_jpeg_header+0xf8>
    49dc:	e1a01007 	mov	r1, r7
    49e0:	e1a00004 	mov	r0, r4
    49e4:	ebffffd2 	bl	4934 <stbi__get_marker.isra.12>
    49e8:	e24030c0 	sub	r3, r0, #192	; 0xc0
    49ec:	e3530002 	cmp	r3, #2
    49f0:	9a000023 	bls	4a84 <stbi__decode_jpeg_header+0x104>
    49f4:	e1a01000 	mov	r1, r0
    49f8:	e1a00004 	mov	r0, r4
    49fc:	ebfffeeb 	bl	45b0 <stbi__process_marker>
    4a00:	e3500000 	cmp	r0, #0
    4a04:	0afffff0 	beq	49cc <stbi__decode_jpeg_header+0x4c>
    4a08:	e1a01007 	mov	r1, r7
    4a0c:	e1a00004 	mov	r0, r4
    4a10:	ebffffc7 	bl	4934 <stbi__get_marker.isra.12>
    4a14:	e35000ff 	cmp	r0, #255	; 0xff
    4a18:	1afffff2 	bne	49e8 <stbi__decode_jpeg_header+0x68>
    4a1c:	e5946000 	ldr	r6, [r4]
    4a20:	e5963010 	ldr	r3, [r6, #16]
    4a24:	e3530000 	cmp	r3, #0
    4a28:	0a000007 	beq	4a4c <stbi__decode_jpeg_header+0xcc>
    4a2c:	e5963018 	ldr	r3, [r6, #24]
    4a30:	e596001c 	ldr	r0, [r6, #28]
    4a34:	e12fff33 	blx	r3
    4a38:	e3500000 	cmp	r0, #0
    4a3c:	0afffff1 	beq	4a08 <stbi__decode_jpeg_header+0x88>
    4a40:	e5963020 	ldr	r3, [r6, #32]
    4a44:	e3530000 	cmp	r3, #0
    4a48:	0a000002 	beq	4a58 <stbi__decode_jpeg_header+0xd8>
    4a4c:	e1c62ad8 	ldrd	r2, [r6, #168]	; 0xa8
    4a50:	e1520003 	cmp	r2, r3
    4a54:	3affffeb 	bcc	4a08 <stbi__decode_jpeg_header+0x88>
    4a58:	e3003000 	movw	r3, #0
    4a5c:	e3403000 	movt	r3, #0
    4a60:	e3a00000 	mov	r0, #0
    4a64:	e3002000 	movw	r2, #0
    4a68:	e3402000 	movt	r2, #0
    4a6c:	e5832000 	str	r2, [r3]
    4a70:	e28dd01c 	add	sp, sp, #28
    4a74:	e8bd8ff0 	pop	{r4, r5, r6, r7, r8, r9, sl, fp, pc}
    4a78:	e3a00001 	mov	r0, #1
    4a7c:	e28dd01c 	add	sp, sp, #28
    4a80:	e8bd8ff0 	pop	{r4, r5, r6, r7, r8, r9, sl, fp, pc}
    4a84:	e5946000 	ldr	r6, [r4]
    4a88:	e24000c2 	sub	r0, r0, #194	; 0xc2
    4a8c:	e16f0f10 	clz	r0, r0
    4a90:	e1a002a0 	lsr	r0, r0, #5
    4a94:	e58506cc 	str	r0, [r5, #1740]	; 0x6cc
    4a98:	e1a00006 	mov	r0, r6
    4a9c:	ebfffb76 	bl	387c <stbi__get16be>
    4aa0:	e350000a 	cmp	r0, #10
    4aa4:	e1a07000 	mov	r7, r0
    4aa8:	ca000006 	bgt	4ac8 <stbi__decode_jpeg_header+0x148>
    4aac:	e3003000 	movw	r3, #0
    4ab0:	e3403000 	movt	r3, #0
    4ab4:	e3002000 	movw	r2, #0
    4ab8:	e3a00000 	mov	r0, #0
    4abc:	e3402000 	movt	r2, #0
    4ac0:	e5832000 	str	r2, [r3]
    4ac4:	eaffffc0 	b	49cc <stbi__decode_jpeg_header+0x4c>
    4ac8:	e1a00006 	mov	r0, r6
    4acc:	ebfffb4a 	bl	37fc <stbi__get8>
    4ad0:	e3500008 	cmp	r0, #8
    4ad4:	0a000006 	beq	4af4 <stbi__decode_jpeg_header+0x174>
    4ad8:	e3003000 	movw	r3, #0
    4adc:	e3403000 	movt	r3, #0
    4ae0:	e3002000 	movw	r2, #0
    4ae4:	e3a00000 	mov	r0, #0
    4ae8:	e3402000 	movt	r2, #0
    4aec:	e5832000 	str	r2, [r3]
    4af0:	eaffffb5 	b	49cc <stbi__decode_jpeg_header+0x4c>
    4af4:	e1a00006 	mov	r0, r6
    4af8:	ebfffb5f 	bl	387c <stbi__get16be>
    4afc:	e3500000 	cmp	r0, #0
    4b00:	e5860004 	str	r0, [r6, #4]
    4b04:	1a000005 	bne	4b20 <stbi__decode_jpeg_header+0x1a0>
    4b08:	e3003000 	movw	r3, #0
    4b0c:	e3403000 	movt	r3, #0
    4b10:	e3002000 	movw	r2, #0
    4b14:	e3402000 	movt	r2, #0
    4b18:	e5832000 	str	r2, [r3]
    4b1c:	eaffffaa 	b	49cc <stbi__decode_jpeg_header+0x4c>
    4b20:	e1a00006 	mov	r0, r6
    4b24:	ebfffb54 	bl	387c <stbi__get16be>
    4b28:	e3500000 	cmp	r0, #0
    4b2c:	e5860000 	str	r0, [r6]
    4b30:	1a000005 	bne	4b4c <stbi__decode_jpeg_header+0x1cc>
    4b34:	e3003000 	movw	r3, #0
    4b38:	e3403000 	movt	r3, #0
    4b3c:	e3002000 	movw	r2, #0
    4b40:	e3402000 	movt	r2, #0
    4b44:	e5832000 	str	r2, [r3]
    4b48:	eaffff9f 	b	49cc <stbi__decode_jpeg_header+0x4c>
    4b4c:	e1a00006 	mov	r0, r6
    4b50:	ebfffb29 	bl	37fc <stbi__get8>
    4b54:	e20030fd 	and	r3, r0, #253	; 0xfd
    4b58:	e3530001 	cmp	r3, #1
    4b5c:	1a000058 	bne	4cc4 <stbi__decode_jpeg_header+0x344>
    4b60:	e2841c46 	add	r1, r4, #17920	; 0x4600
    4b64:	e3a02048 	mov	r2, #72	; 0x48
    4b68:	e2811010 	add	r1, r1, #16
    4b6c:	e2843c45 	add	r3, r4, #17664	; 0x4500
    4b70:	e5860008 	str	r0, [r6, #8]
    4b74:	e28330c8 	add	r3, r3, #200	; 0xc8
    4b78:	e1021082 	smlabb	r2, r2, r0, r1
    4b7c:	e3a01000 	mov	r1, #0
    4b80:	ea000001 	b	4b8c <stbi__decode_jpeg_header+0x20c>
    4b84:	e5031048 	str	r1, [r3, #-72]	; 0xffffffb8
    4b88:	e503103c 	str	r1, [r3, #-60]	; 0xffffffc4
    4b8c:	e2833048 	add	r3, r3, #72	; 0x48
    4b90:	e1520003 	cmp	r2, r3
    4b94:	1afffffa 	bne	4b84 <stbi__decode_jpeg_header+0x204>
    4b98:	e3a03003 	mov	r3, #3
    4b9c:	e3a02008 	mov	r2, #8
    4ba0:	e1002083 	smlabb	r0, r3, r0, r2
    4ba4:	e1570000 	cmp	r7, r0
    4ba8:	1affffbf 	bne	4aac <stbi__decode_jpeg_header+0x12c>
    4bac:	e2847c45 	add	r7, r4, #17664	; 0x4500
    4bb0:	e3a0a000 	mov	sl, #0
    4bb4:	e287709c 	add	r7, r7, #156	; 0x9c
    4bb8:	ea00001e 	b	4c38 <stbi__decode_jpeg_header+0x2b8>
    4bbc:	ebfffb0e 	bl	37fc <stbi__get8>
    4bc0:	e1a03000 	mov	r3, r0
    4bc4:	e153000a 	cmp	r3, sl
    4bc8:	11530008 	cmpne	r3, r8
    4bcc:	e1a00006 	mov	r0, r6
    4bd0:	e5873000 	str	r3, [r7]
    4bd4:	13a0b001 	movne	fp, #1
    4bd8:	03a0b000 	moveq	fp, #0
    4bdc:	e1a0a008 	mov	sl, r8
    4be0:	1a000053 	bne	4d34 <stbi__decode_jpeg_header+0x3b4>
    4be4:	ebfffb04 	bl	37fc <stbi__get8>
    4be8:	e1a02240 	asr	r2, r0, #4
    4bec:	e200300f 	and	r3, r0, #15
    4bf0:	e3520004 	cmp	r2, #4
    4bf4:	e2431001 	sub	r1, r3, #1
    4bf8:	e1a00006 	mov	r0, r6
    4bfc:	e5872004 	str	r2, [r7, #4]
    4c00:	d3a08000 	movle	r8, #0
    4c04:	c3a08001 	movgt	r8, #1
    4c08:	e3520000 	cmp	r2, #0
    4c0c:	03a08001 	moveq	r8, #1
    4c10:	e3580000 	cmp	r8, #0
    4c14:	1a00003f 	bne	4d18 <stbi__decode_jpeg_header+0x398>
    4c18:	e3510003 	cmp	r1, #3
    4c1c:	e5873008 	str	r3, [r7, #8]
    4c20:	8a000035 	bhi	4cfc <stbi__decode_jpeg_header+0x37c>
    4c24:	ebfffaf4 	bl	37fc <stbi__get8>
    4c28:	e2877048 	add	r7, r7, #72	; 0x48
    4c2c:	e3500003 	cmp	r0, #3
    4c30:	e507003c 	str	r0, [r7, #-60]	; 0xffffffc4
    4c34:	ca000029 	bgt	4ce0 <stbi__decode_jpeg_header+0x360>
    4c38:	e5963008 	ldr	r3, [r6, #8]
    4c3c:	e28a8001 	add	r8, sl, #1
    4c40:	e1a00006 	mov	r0, r6
    4c44:	e15a0003 	cmp	sl, r3
    4c48:	baffffdb 	blt	4bbc <stbi__decode_jpeg_header+0x23c>
    4c4c:	e3590000 	cmp	r9, #0
    4c50:	e58d3004 	str	r3, [sp, #4]
    4c54:	1affff87 	bne	4a78 <stbi__decode_jpeg_header+0xf8>
    4c58:	e596b000 	ldr	fp, [r6]
    4c5c:	e3a00101 	mov	r0, #1073741824	; 0x40000000
    4c60:	e5968004 	ldr	r8, [r6, #4]
    4c64:	e1a0100b 	mov	r1, fp
    4c68:	ebfffffe 	bl	0 <__aeabi_uidiv>
    4c6c:	e59d3004 	ldr	r3, [sp, #4]
    4c70:	e1a01003 	mov	r1, r3
    4c74:	ebfffffe 	bl	0 <__aeabi_uidiv>
    4c78:	e1500008 	cmp	r0, r8
    4c7c:	3a00009b 	bcc	4ef0 <stbi__decode_jpeg_header+0x570>
    4c80:	e2847c45 	add	r7, r4, #17664	; 0x4500
    4c84:	e59d3004 	ldr	r3, [sp, #4]
    4c88:	e28770a0 	add	r7, r7, #160	; 0xa0
    4c8c:	e3a0a001 	mov	sl, #1
    4c90:	e1a0200a 	mov	r2, sl
    4c94:	e1a01007 	mov	r1, r7
    4c98:	e1530009 	cmp	r3, r9
    4c9c:	e2811048 	add	r1, r1, #72	; 0x48
    4ca0:	e2899001 	add	r9, r9, #1
    4ca4:	da000029 	ble	4d50 <stbi__decode_jpeg_header+0x3d0>
    4ca8:	e511c048 	ldr	ip, [r1, #-72]	; 0xffffffb8
    4cac:	e5110044 	ldr	r0, [r1, #-68]	; 0xffffffbc
    4cb0:	e152000c 	cmp	r2, ip
    4cb4:	b1a0200c 	movlt	r2, ip
    4cb8:	e15a0000 	cmp	sl, r0
    4cbc:	b1a0a000 	movlt	sl, r0
    4cc0:	eafffff4 	b	4c98 <stbi__decode_jpeg_header+0x318>
    4cc4:	e3003000 	movw	r3, #0
    4cc8:	e3403000 	movt	r3, #0
    4ccc:	e3002000 	movw	r2, #0
    4cd0:	e3a00000 	mov	r0, #0
    4cd4:	e3402000 	movt	r2, #0
    4cd8:	e5832000 	str	r2, [r3]
    4cdc:	eaffff3a 	b	49cc <stbi__decode_jpeg_header+0x4c>
    4ce0:	e3003000 	movw	r3, #0
    4ce4:	e3403000 	movt	r3, #0
    4ce8:	e3002000 	movw	r2, #0
    4cec:	e1a00008 	mov	r0, r8
    4cf0:	e3402000 	movt	r2, #0
    4cf4:	e5832000 	str	r2, [r3]
    4cf8:	eaffff33 	b	49cc <stbi__decode_jpeg_header+0x4c>
    4cfc:	e3003000 	movw	r3, #0
    4d00:	e3403000 	movt	r3, #0
    4d04:	e3002000 	movw	r2, #0
    4d08:	e1a00008 	mov	r0, r8
    4d0c:	e3402000 	movt	r2, #0
    4d10:	e5832000 	str	r2, [r3]
    4d14:	eaffff2c 	b	49cc <stbi__decode_jpeg_header+0x4c>
    4d18:	e3003000 	movw	r3, #0
    4d1c:	e3403000 	movt	r3, #0
    4d20:	e3002000 	movw	r2, #0
    4d24:	e1a0000b 	mov	r0, fp
    4d28:	e3402000 	movt	r2, #0
    4d2c:	e5832000 	str	r2, [r3]
    4d30:	eaffff25 	b	49cc <stbi__decode_jpeg_header+0x4c>
    4d34:	e3003000 	movw	r3, #0
    4d38:	e3403000 	movt	r3, #0
    4d3c:	e3002000 	movw	r2, #0
    4d40:	e3a00000 	mov	r0, #0
    4d44:	e3402000 	movt	r2, #0
    4d48:	e5832000 	str	r2, [r3]
    4d4c:	eaffff1e 	b	49cc <stbi__decode_jpeg_header+0x4c>
    4d50:	e1a0c182 	lsl	ip, r2, #3
    4d54:	e24b0001 	sub	r0, fp, #1
    4d58:	e5852584 	str	r2, [r5, #1412]	; 0x584
    4d5c:	e1a0b18a 	lsl	fp, sl, #3
    4d60:	e1a0100c 	mov	r1, ip
    4d64:	e080000c 	add	r0, r0, ip
    4d68:	e585c594 	str	ip, [r5, #1428]	; 0x594
    4d6c:	e2488001 	sub	r8, r8, #1
    4d70:	e585b598 	str	fp, [r5, #1432]	; 0x598
    4d74:	e3a09000 	mov	r9, #0
    4d78:	e585a588 	str	sl, [r5, #1416]	; 0x588
    4d7c:	e58d3014 	str	r3, [sp, #20]
    4d80:	e58d2004 	str	r2, [sp, #4]
    4d84:	ebfffffe 	bl	0 <__aeabi_uidiv>
    4d88:	e59d2004 	ldr	r2, [sp, #4]
    4d8c:	e1a0100b 	mov	r1, fp
    4d90:	e1a0b009 	mov	fp, r9
    4d94:	e2423001 	sub	r3, r2, #1
    4d98:	e58d3004 	str	r3, [sp, #4]
    4d9c:	e58d2010 	str	r2, [sp, #16]
    4da0:	e24a3001 	sub	r3, sl, #1
    4da4:	e58d3008 	str	r3, [sp, #8]
    4da8:	e585058c 	str	r0, [r5, #1420]	; 0x58c
    4dac:	e0880001 	add	r0, r8, r1
    4db0:	ebfffffe 	bl	0 <__aeabi_uidiv>
    4db4:	e59d2010 	ldr	r2, [sp, #16]
    4db8:	e59d3014 	ldr	r3, [sp, #20]
    4dbc:	e58d400c 	str	r4, [sp, #12]
    4dc0:	e1a04002 	mov	r4, r2
    4dc4:	e5850590 	str	r0, [r5, #1424]	; 0x590
    4dc8:	e1590003 	cmp	r9, r3
    4dcc:	e1a01004 	mov	r1, r4
    4dd0:	aaffff28 	bge	4a78 <stbi__decode_jpeg_header+0xf8>
    4dd4:	e5960000 	ldr	r0, [r6]
    4dd8:	e59d3004 	ldr	r3, [sp, #4]
    4ddc:	e5978000 	ldr	r8, [r7]
    4de0:	e0203890 	mla	r0, r0, r8, r3
    4de4:	ebfffffe 	bl	0 <__aeabi_uidiv>
    4de8:	e596c004 	ldr	ip, [r6, #4]
    4dec:	e5973004 	ldr	r3, [r7, #4]
    4df0:	e1a0100a 	mov	r1, sl
    4df4:	e59d2008 	ldr	r2, [sp, #8]
    4df8:	e58d3010 	str	r3, [sp, #16]
    4dfc:	e5870018 	str	r0, [r7, #24]
    4e00:	e020239c 	mla	r0, ip, r3, r2
    4e04:	ebfffffe 	bl	0 <__aeabi_uidiv>
    4e08:	e59d3010 	ldr	r3, [sp, #16]
    4e0c:	e587001c 	str	r0, [r7, #28]
    4e10:	e595158c 	ldr	r1, [r5, #1420]	; 0x58c
    4e14:	e0080891 	mul	r8, r1, r8
    4e18:	e1a08188 	lsl	r8, r8, #3
    4e1c:	e5878020 	str	r8, [r7, #32]
    4e20:	e5951590 	ldr	r1, [r5, #1424]	; 0x590
    4e24:	e0030391 	mul	r3, r1, r3
    4e28:	e1a03183 	lsl	r3, r3, #3
    4e2c:	e5873024 	str	r3, [r7, #36]	; 0x24
    4e30:	e58d3010 	str	r3, [sp, #16]
    4e34:	e0000893 	mul	r0, r3, r8
    4e38:	e280000f 	add	r0, r0, #15
    4e3c:	ebfffffe 	bl	0 <malloc>
    4e40:	e59d3010 	ldr	r3, [sp, #16]
    4e44:	e3500000 	cmp	r0, #0
    4e48:	e280c00f 	add	ip, r0, #15
    4e4c:	e587002c 	str	r0, [r7, #44]	; 0x2c
    4e50:	e3ccc00f 	bic	ip, ip, #15
    4e54:	0a000016 	beq	4eb4 <stbi__decode_jpeg_header+0x534>
    4e58:	e59516cc 	ldr	r1, [r5, #1740]	; 0x6cc
    4e5c:	e587c028 	str	ip, [r7, #40]	; 0x28
    4e60:	e3510000 	cmp	r1, #0
    4e64:	e587b034 	str	fp, [r7, #52]	; 0x34
    4e68:	05871038 	streq	r1, [r7, #56]	; 0x38
    4e6c:	05871030 	streq	r1, [r7, #48]	; 0x30
    4e70:	0a00000b 	beq	4ea4 <stbi__decode_jpeg_header+0x524>
    4e74:	e1a031c3 	asr	r3, r3, #3
    4e78:	e1a081c8 	asr	r8, r8, #3
    4e7c:	e587803c 	str	r8, [r7, #60]	; 0x3c
    4e80:	e0080893 	mul	r8, r3, r8
    4e84:	e5873040 	str	r3, [r7, #64]	; 0x40
    4e88:	e1a00388 	lsl	r0, r8, #7
    4e8c:	e280000f 	add	r0, r0, #15
    4e90:	ebfffffe 	bl	0 <malloc>
    4e94:	e280300f 	add	r3, r0, #15
    4e98:	e5870030 	str	r0, [r7, #48]	; 0x30
    4e9c:	e3c3300f 	bic	r3, r3, #15
    4ea0:	e5873038 	str	r3, [r7, #56]	; 0x38
    4ea4:	e5963008 	ldr	r3, [r6, #8]
    4ea8:	e2899001 	add	r9, r9, #1
    4eac:	e2877048 	add	r7, r7, #72	; 0x48
    4eb0:	eaffffc4 	b	4dc8 <stbi__decode_jpeg_header+0x448>
    4eb4:	e59d400c 	ldr	r4, [sp, #12]
    4eb8:	e3a03048 	mov	r3, #72	; 0x48
    4ebc:	e1a05000 	mov	r5, r0
    4ec0:	e2846c45 	add	r6, r4, #17664	; 0x4500
    4ec4:	e0244993 	mla	r4, r3, r9, r4
    4ec8:	e286603c 	add	r6, r6, #60	; 0x3c
    4ecc:	e2844c45 	add	r4, r4, #17664	; 0x4500
    4ed0:	e2844084 	add	r4, r4, #132	; 0x84
    4ed4:	e2444048 	sub	r4, r4, #72	; 0x48
    4ed8:	e1560004 	cmp	r6, r4
    4edc:	0a00000a 	beq	4f0c <stbi__decode_jpeg_header+0x58c>
    4ee0:	e5940048 	ldr	r0, [r4, #72]	; 0x48
    4ee4:	ebfffffe 	bl	0 <free>
    4ee8:	e5845048 	str	r5, [r4, #72]	; 0x48
    4eec:	eafffff8 	b	4ed4 <stbi__decode_jpeg_header+0x554>
    4ef0:	e3003000 	movw	r3, #0
    4ef4:	e3403000 	movt	r3, #0
    4ef8:	e3002000 	movw	r2, #0
    4efc:	e1a00009 	mov	r0, r9
    4f00:	e3402000 	movt	r2, #0
    4f04:	e5832000 	str	r2, [r3]
    4f08:	eafffeaf 	b	49cc <stbi__decode_jpeg_header+0x4c>
    4f0c:	e3003000 	movw	r3, #0
    4f10:	e3403000 	movt	r3, #0
    4f14:	e3002000 	movw	r2, #0
    4f18:	e3a00000 	mov	r0, #0
    4f1c:	e3402000 	movt	r2, #0
    4f20:	e5832000 	str	r2, [r3]
    4f24:	eafffea8 	b	49cc <stbi__decode_jpeg_header+0x4c>

00004f28 <stbi__jpeg_test>:
    4f28:	e92d4010 	push	{r4, lr}
    4f2c:	e24ddc47 	sub	sp, sp, #18176	; 0x4700
    4f30:	e24dd010 	sub	sp, sp, #16
    4f34:	e1a04000 	mov	r4, r0
    4f38:	e28d3c37 	add	r3, sp, #14080	; 0x3700
    4f3c:	e3a01001 	mov	r1, #1
    4f40:	e2833010 	add	r3, r3, #16
    4f44:	e28d0004 	add	r0, sp, #4
    4f48:	e58d4004 	str	r4, [sp, #4]
    4f4c:	e3002000 	movw	r2, #0
    4f50:	e3402000 	movt	r2, #0
    4f54:	e5832ff4 	str	r2, [r3, #4084]	; 0xff4
    4f58:	e3002000 	movw	r2, #0
    4f5c:	e3402000 	movt	r2, #0
    4f60:	e5832ff8 	str	r2, [r3, #4088]	; 0xff8
    4f64:	e3002000 	movw	r2, #0
    4f68:	e3402000 	movt	r2, #0
    4f6c:	e5832ffc 	str	r2, [r3, #4092]	; 0xffc
    4f70:	ebfffe82 	bl	4980 <stbi__decode_jpeg_header>
    4f74:	e1c42bd0 	ldrd	r2, [r4, #176]	; 0xb0
    4f78:	e1c42af8 	strd	r2, [r4, #168]	; 0xa8
    4f7c:	e28ddc47 	add	sp, sp, #18176	; 0x4700
    4f80:	e28dd010 	add	sp, sp, #16
    4f84:	e8bd8010 	pop	{r4, pc}

00004f88 <stbi__jpeg_info>:
    4f88:	e92d4070 	push	{r4, r5, r6, lr}
    4f8c:	e24ddc47 	sub	sp, sp, #18176	; 0x4700
    4f90:	e24dd010 	sub	sp, sp, #16
    4f94:	e1a06001 	mov	r6, r1
    4f98:	e3a01002 	mov	r1, #2
    4f9c:	e1a05002 	mov	r5, r2
    4fa0:	e58d0004 	str	r0, [sp, #4]
    4fa4:	e28d0004 	add	r0, sp, #4
    4fa8:	e1a04003 	mov	r4, r3
    4fac:	ebfffe73 	bl	4980 <stbi__decode_jpeg_header>
    4fb0:	e3500000 	cmp	r0, #0
    4fb4:	0a000010 	beq	4ffc <stbi__jpeg_info+0x74>
    4fb8:	e3560000 	cmp	r6, #0
    4fbc:	159d3004 	ldrne	r3, [sp, #4]
    4fc0:	15933000 	ldrne	r3, [r3]
    4fc4:	15863000 	strne	r3, [r6]
    4fc8:	e3550000 	cmp	r5, #0
    4fcc:	159d3004 	ldrne	r3, [sp, #4]
    4fd0:	15933004 	ldrne	r3, [r3, #4]
    4fd4:	15853000 	strne	r3, [r5]
    4fd8:	e3540000 	cmp	r4, #0
    4fdc:	159d3004 	ldrne	r3, [sp, #4]
    4fe0:	13a00001 	movne	r0, #1
    4fe4:	03a00001 	moveq	r0, #1
    4fe8:	15933008 	ldrne	r3, [r3, #8]
    4fec:	15843000 	strne	r3, [r4]
    4ff0:	e28ddc47 	add	sp, sp, #18176	; 0x4700
    4ff4:	e28dd010 	add	sp, sp, #16
    4ff8:	e8bd8070 	pop	{r4, r5, r6, pc}
    4ffc:	e59d3004 	ldr	r3, [sp, #4]
    5000:	e59310b0 	ldr	r1, [r3, #176]	; 0xb0
    5004:	e59320b4 	ldr	r2, [r3, #180]	; 0xb4
    5008:	e58310a8 	str	r1, [r3, #168]	; 0xa8
    500c:	e58320ac 	str	r2, [r3, #172]	; 0xac
    5010:	e28ddc47 	add	sp, sp, #18176	; 0x4700
    5014:	e28dd010 	add	sp, sp, #16
    5018:	e8bd8070 	pop	{r4, r5, r6, pc}

0000501c <stbi__resample_row_h_2>:
    501c:	e3530001 	cmp	r3, #1
    5020:	e5d12000 	ldrb	r2, [r1]
    5024:	0a00002b 	beq	50d8 <stbi__resample_row_h_2+0xbc>
    5028:	e5c02000 	strb	r2, [r0]
    502c:	e3530002 	cmp	r3, #2
    5030:	e5d12000 	ldrb	r2, [r1]
    5034:	e5d1c001 	ldrb	ip, [r1, #1]
    5038:	e92d41f0 	push	{r4, r5, r6, r7, r8, lr}
    503c:	e3a05003 	mov	r5, #3
    5040:	e102c285 	smlabb	r2, r5, r2, ip
    5044:	e2822002 	add	r2, r2, #2
    5048:	e1a02142 	asr	r2, r2, #2
    504c:	e5c02001 	strb	r2, [r0, #1]
    5050:	da000023 	ble	50e4 <stbi__resample_row_h_2+0xc8>
    5054:	e2436002 	sub	r6, r3, #2
    5058:	e1a0e001 	mov	lr, r1
    505c:	e0866001 	add	r6, r6, r1
    5060:	e1a04000 	mov	r4, r0
    5064:	e3a07002 	mov	r7, #2
    5068:	e1a0c00e 	mov	ip, lr
    506c:	e5fe2001 	ldrb	r2, [lr, #1]!
    5070:	e5dcc000 	ldrb	ip, [ip]
    5074:	e2844002 	add	r4, r4, #2
    5078:	e156000e 	cmp	r6, lr
    507c:	e1087285 	smlabb	r8, r5, r2, r7
    5080:	e08cc008 	add	ip, ip, r8
    5084:	e1a0c14c 	asr	ip, ip, #2
    5088:	e5c4c000 	strb	ip, [r4]
    508c:	e5de2001 	ldrb	r2, [lr, #1]
    5090:	e0822008 	add	r2, r2, r8
    5094:	e1a02142 	asr	r2, r2, #2
    5098:	e5c42001 	strb	r2, [r4, #1]
    509c:	1afffff1 	bne	5068 <stbi__resample_row_h_2+0x4c>
    50a0:	e243c001 	sub	ip, r3, #1
    50a4:	e1a0e08c 	lsl	lr, ip, #1
    50a8:	e28e5001 	add	r5, lr, #1
    50ac:	e0813003 	add	r3, r1, r3
    50b0:	e7d1400c 	ldrb	r4, [r1, ip]
    50b4:	e3a02003 	mov	r2, #3
    50b8:	e5533002 	ldrb	r3, [r3, #-2]
    50bc:	e1034382 	smlabb	r3, r2, r3, r4
    50c0:	e2833002 	add	r3, r3, #2
    50c4:	e1a03143 	asr	r3, r3, #2
    50c8:	e7c0300e 	strb	r3, [r0, lr]
    50cc:	e7d1300c 	ldrb	r3, [r1, ip]
    50d0:	e7c03005 	strb	r3, [r0, r5]
    50d4:	e8bd81f0 	pop	{r4, r5, r6, r7, r8, pc}
    50d8:	e5c02001 	strb	r2, [r0, #1]
    50dc:	e5c02000 	strb	r2, [r0]
    50e0:	e12fff1e 	bx	lr
    50e4:	e243c001 	sub	ip, r3, #1
    50e8:	e3a0e002 	mov	lr, #2
    50ec:	eaffffee 	b	50ac <stbi__resample_row_h_2+0x90>

000050f0 <stbi__resample_row_hv_2>:
    50f0:	e92d41f0 	push	{r4, r5, r6, r7, r8, lr}
    50f4:	e3a05003 	mov	r5, #3
    50f8:	e5d2c000 	ldrb	ip, [r2]
    50fc:	e3530001 	cmp	r3, #1
    5100:	e5d18000 	ldrb	r8, [r1]
    5104:	e108c885 	smlabb	r8, r5, r8, ip
    5108:	e288c002 	add	ip, r8, #2
    510c:	e7e7c15c 	ubfx	ip, ip, #2, #8
    5110:	0a000019 	beq	517c <stbi__resample_row_hv_2+0x8c>
    5114:	e5c0c000 	strb	ip, [r0]
    5118:	da000014 	ble	5170 <stbi__resample_row_hv_2+0x80>
    511c:	e2416001 	sub	r6, r1, #1
    5120:	e1a04000 	mov	r4, r0
    5124:	e0866003 	add	r6, r6, r3
    5128:	e5f17001 	ldrb	r7, [r1, #1]!
    512c:	e088e088 	add	lr, r8, r8, lsl #1
    5130:	e5f2c001 	ldrb	ip, [r2, #1]!
    5134:	e1560001 	cmp	r6, r1
    5138:	e107c785 	smlabb	r7, r5, r7, ip
    513c:	e08ee007 	add	lr, lr, r7
    5140:	e28ee008 	add	lr, lr, #8
    5144:	e087c087 	add	ip, r7, r7, lsl #1
    5148:	e08cc008 	add	ip, ip, r8
    514c:	e1a0e24e 	asr	lr, lr, #4
    5150:	e28cc008 	add	ip, ip, #8
    5154:	e5c4e001 	strb	lr, [r4, #1]
    5158:	e1a08007 	mov	r8, r7
    515c:	e1a0c24c 	asr	ip, ip, #4
    5160:	e5e4c002 	strb	ip, [r4, #2]!
    5164:	1affffef 	bne	5128 <stbi__resample_row_hv_2+0x38>
    5168:	e287c002 	add	ip, r7, #2
    516c:	e7e7c15c 	ubfx	ip, ip, #2, #8
    5170:	e0803083 	add	r3, r0, r3, lsl #1
    5174:	e543c001 	strb	ip, [r3, #-1]
    5178:	e8bd81f0 	pop	{r4, r5, r6, r7, r8, pc}
    517c:	e5c0c001 	strb	ip, [r0, #1]
    5180:	e5c0c000 	strb	ip, [r0]
    5184:	e8bd81f0 	pop	{r4, r5, r6, r7, r8, pc}

00005188 <stbi__gif_header>:
    5188:	e92d41f0 	push	{r4, r5, r6, r7, r8, lr}
    518c:	e1a06001 	mov	r6, r1
    5190:	e1a07002 	mov	r7, r2
    5194:	e1a04003 	mov	r4, r3
    5198:	e1a05000 	mov	r5, r0
    519c:	ebfff996 	bl	37fc <stbi__get8>
    51a0:	e3500047 	cmp	r0, #71	; 0x47
    51a4:	0a000006 	beq	51c4 <stbi__gif_header+0x3c>
    51a8:	e3003000 	movw	r3, #0
    51ac:	e3403000 	movt	r3, #0
    51b0:	e3002000 	movw	r2, #0
    51b4:	e3a00000 	mov	r0, #0
    51b8:	e3402000 	movt	r2, #0
    51bc:	e5832000 	str	r2, [r3]
    51c0:	e8bd81f0 	pop	{r4, r5, r6, r7, r8, pc}
    51c4:	e1a00005 	mov	r0, r5
    51c8:	ebfff98b 	bl	37fc <stbi__get8>
    51cc:	e3500049 	cmp	r0, #73	; 0x49
    51d0:	1afffff4 	bne	51a8 <stbi__gif_header+0x20>
    51d4:	e1a00005 	mov	r0, r5
    51d8:	ebfff987 	bl	37fc <stbi__get8>
    51dc:	e3500046 	cmp	r0, #70	; 0x46
    51e0:	1afffff0 	bne	51a8 <stbi__gif_header+0x20>
    51e4:	e1a00005 	mov	r0, r5
    51e8:	ebfff983 	bl	37fc <stbi__get8>
    51ec:	e3500038 	cmp	r0, #56	; 0x38
    51f0:	1affffec 	bne	51a8 <stbi__gif_header+0x20>
    51f4:	e1a00005 	mov	r0, r5
    51f8:	ebfff97f 	bl	37fc <stbi__get8>
    51fc:	e2400037 	sub	r0, r0, #55	; 0x37
    5200:	e31000fd 	tst	r0, #253	; 0xfd
    5204:	1affffe7 	bne	51a8 <stbi__gif_header+0x20>
    5208:	e1a00005 	mov	r0, r5
    520c:	ebfff97a 	bl	37fc <stbi__get8>
    5210:	e3500061 	cmp	r0, #97	; 0x61
    5214:	1affffe3 	bne	51a8 <stbi__gif_header+0x20>
    5218:	e3003000 	movw	r3, #0
    521c:	e3403000 	movt	r3, #0
    5220:	e1a00005 	mov	r0, r5
    5224:	e3002000 	movw	r2, #0
    5228:	e3402000 	movt	r2, #0
    522c:	e5832000 	str	r2, [r3]
    5230:	ebfff9a1 	bl	38bc <stbi__get16le>
    5234:	e5860000 	str	r0, [r6]
    5238:	e1a00005 	mov	r0, r5
    523c:	ebfff99e 	bl	38bc <stbi__get16le>
    5240:	e5860004 	str	r0, [r6, #4]
    5244:	e1a00005 	mov	r0, r5
    5248:	ebfff96b 	bl	37fc <stbi__get8>
    524c:	e5860010 	str	r0, [r6, #16]
    5250:	e1a00005 	mov	r0, r5
    5254:	ebfff968 	bl	37fc <stbi__get8>
    5258:	e5860014 	str	r0, [r6, #20]
    525c:	e1a00005 	mov	r0, r5
    5260:	ebfff965 	bl	37fc <stbi__get8>
    5264:	e3570000 	cmp	r7, #0
    5268:	e3e03000 	mvn	r3, #0
    526c:	e586301c 	str	r3, [r6, #28]
    5270:	13a03004 	movne	r3, #4
    5274:	e5860018 	str	r0, [r6, #24]
    5278:	15873000 	strne	r3, [r7]
    527c:	e3540000 	cmp	r4, #0
    5280:	1a000004 	bne	5298 <stbi__gif_header+0x110>
    5284:	e5963010 	ldr	r3, [r6, #16]
    5288:	e3130080 	tst	r3, #128	; 0x80
    528c:	1a000003 	bne	52a0 <stbi__gif_header+0x118>
    5290:	e3a00001 	mov	r0, #1
    5294:	e8bd81f0 	pop	{r4, r5, r6, r7, r8, pc}
    5298:	e1a00004 	mov	r0, r4
    529c:	e8bd81f0 	pop	{r4, r5, r6, r7, r8, pc}
    52a0:	e2033007 	and	r3, r3, #7
    52a4:	e3a02002 	mov	r2, #2
    52a8:	e1a00005 	mov	r0, r5
    52ac:	e1a02312 	lsl	r2, r2, r3
    52b0:	e2861028 	add	r1, r6, #40	; 0x28
    52b4:	e3e03000 	mvn	r3, #0
    52b8:	ebfffa21 	bl	3b44 <stbi__gif_parse_colortable>
    52bc:	e3a00001 	mov	r0, #1
    52c0:	e8bd81f0 	pop	{r4, r5, r6, r7, r8, pc}

000052c4 <stbi__gif_info_raw>:
    52c4:	e92d4070 	push	{r4, r5, r6, lr}
    52c8:	e24ddb12 	sub	sp, sp, #18432	; 0x4800
    52cc:	e1a0c003 	mov	ip, r3
    52d0:	e24dd058 	sub	sp, sp, #88	; 0x58
    52d4:	e1a06001 	mov	r6, r1
    52d8:	e1a05002 	mov	r5, r2
    52dc:	e3a03001 	mov	r3, #1
    52e0:	e1a0200c 	mov	r2, ip
    52e4:	e28d1004 	add	r1, sp, #4
    52e8:	e1a04000 	mov	r4, r0
    52ec:	ebffffa5 	bl	5188 <stbi__gif_header>
    52f0:	e3500000 	cmp	r0, #0
    52f4:	0a000009 	beq	5320 <stbi__gif_info_raw+0x5c>
    52f8:	e3560000 	cmp	r6, #0
    52fc:	e3a00001 	mov	r0, #1
    5300:	159d3004 	ldrne	r3, [sp, #4]
    5304:	15863000 	strne	r3, [r6]
    5308:	e3550000 	cmp	r5, #0
    530c:	159d3008 	ldrne	r3, [sp, #8]
    5310:	15853000 	strne	r3, [r5]
    5314:	e28ddb12 	add	sp, sp, #18432	; 0x4800
    5318:	e28dd058 	add	sp, sp, #88	; 0x58
    531c:	e8bd8070 	pop	{r4, r5, r6, pc}
    5320:	e1c42bd0 	ldrd	r2, [r4, #176]	; 0xb0
    5324:	e1c42af8 	strd	r2, [r4, #168]	; 0xa8
    5328:	e28ddb12 	add	sp, sp, #18432	; 0x4800
    532c:	e28dd058 	add	sp, sp, #88	; 0x58
    5330:	e8bd8070 	pop	{r4, r5, r6, pc}

00005334 <nvg__chooseBevel.isra.22>:
    5334:	e3500000 	cmp	r0, #0
    5338:	edd37a00 	vldr	s15, [r3]
    533c:	e92d4010 	push	{r4, lr}
    5340:	e59d4008 	ldr	r4, [sp, #8]
    5344:	e59de00c 	ldr	lr, [sp, #12]
    5348:	e59dc010 	ldr	ip, [sp, #16]
    534c:	e59d0014 	ldr	r0, [sp, #20]
    5350:	1a00000f 	bne	5394 <nvg__chooseBevel.isra.22+0x60>
    5354:	ed937a05 	vldr	s14, [r3, #20]
    5358:	ee407a07 	vmla.f32	s15, s0, s14
    535c:	edc47a00 	vstr	s15, [r4]
    5360:	ed937a06 	vldr	s14, [r3, #24]
    5364:	edd37a01 	vldr	s15, [r3, #4]
    5368:	ee407a07 	vmla.f32	s15, s0, s14
    536c:	edce7a00 	vstr	s15, [lr]
    5370:	ed937a05 	vldr	s14, [r3, #20]
    5374:	edd37a00 	vldr	s15, [r3]
    5378:	ee407a07 	vmla.f32	s15, s0, s14
    537c:	edcc7a00 	vstr	s15, [ip]
    5380:	ed937a06 	vldr	s14, [r3, #24]
    5384:	edd37a01 	vldr	s15, [r3, #4]
    5388:	ee407a07 	vmla.f32	s15, s0, s14
    538c:	edc07a00 	vstr	s15, [r0]
    5390:	e8bd8010 	pop	{r4, pc}
    5394:	ed927a00 	vldr	s14, [r2]
    5398:	ee407a07 	vmla.f32	s15, s0, s14
    539c:	edc47a00 	vstr	s15, [r4]
    53a0:	ed917a00 	vldr	s14, [r1]
    53a4:	edd37a01 	vldr	s15, [r3, #4]
    53a8:	ee407a47 	vmls.f32	s15, s0, s14
    53ac:	edce7a00 	vstr	s15, [lr]
    53b0:	ed937a03 	vldr	s14, [r3, #12]
    53b4:	edd37a00 	vldr	s15, [r3]
    53b8:	ee407a07 	vmla.f32	s15, s0, s14
    53bc:	edcc7a00 	vstr	s15, [ip]
    53c0:	ed937a02 	vldr	s14, [r3, #8]
    53c4:	edd37a01 	vldr	s15, [r3, #4]
    53c8:	ee407a47 	vmls.f32	s15, s0, s14
    53cc:	edc07a00 	vstr	s15, [r0]
    53d0:	e8bd8010 	pop	{r4, pc}

000053d4 <nvg__bevelJoin.isra.24>:
    53d4:	e1a0c001 	mov	ip, r1
    53d8:	e2811008 	add	r1, r1, #8
    53dc:	e92d4070 	push	{r4, r5, r6, lr}
    53e0:	e1a06002 	mov	r6, r2
    53e4:	e5d2301c 	ldrb	r3, [r2, #28]
    53e8:	e1a04000 	mov	r4, r0
    53ec:	ed927a02 	vldr	s14, [r2, #8]
    53f0:	e24dd020 	sub	sp, sp, #32
    53f4:	e3130002 	tst	r3, #2
    53f8:	e28c200c 	add	r2, ip, #12
    53fc:	e2030008 	and	r0, r3, #8
    5400:	e2845080 	add	r5, r4, #128	; 0x80
    5404:	edd17a00 	vldr	s15, [r1]
    5408:	ed9c5a03 	vldr	s10, [ip, #12]
    540c:	eef16a67 	vneg.f32	s13, s15
    5410:	edd65a03 	vldr	s11, [r6, #12]
    5414:	eef14a47 	vneg.f32	s9, s14
    5418:	0a00004e 	beq	5558 <nvg__bevelJoin.isra.24+0x184>
    541c:	e28d301c 	add	r3, sp, #28
    5420:	e58d300c 	str	r3, [sp, #12]
    5424:	e28d3018 	add	r3, sp, #24
    5428:	e58d3008 	str	r3, [sp, #8]
    542c:	e28d3014 	add	r3, sp, #20
    5430:	e58d3004 	str	r3, [sp, #4]
    5434:	e28d3010 	add	r3, sp, #16
    5438:	e58d3000 	str	r3, [sp]
    543c:	e1a03006 	mov	r3, r6
    5440:	ebffffbb 	bl	5334 <nvg__chooseBevel.isra.22>
    5444:	ed967a00 	vldr	s14, [r6]
    5448:	e59d3010 	ldr	r3, [sp, #16]
    544c:	e3a025fe 	mov	r2, #1065353216	; 0x3f800000
    5450:	e59d1014 	ldr	r1, [sp, #20]
    5454:	edd67a01 	vldr	s15, [r6, #4]
    5458:	e5843000 	str	r3, [r4]
    545c:	e5841004 	str	r1, [r4, #4]
    5460:	eeb04a47 	vmov.f32	s8, s14
    5464:	e584200c 	str	r2, [r4, #12]
    5468:	e584201c 	str	r2, [r4, #28]
    546c:	ee054a60 	vmls.f32	s8, s10, s1
    5470:	ed841a02 	vstr	s2, [r4, #8]
    5474:	edc41a06 	vstr	s3, [r4, #24]
    5478:	eeb05a67 	vmov.f32	s10, s15
    547c:	ee065ae0 	vmls.f32	s10, s13, s1
    5480:	ed844a04 	vstr	s8, [r4, #16]
    5484:	ed845a05 	vstr	s10, [r4, #20]
    5488:	e5d6001c 	ldrb	r0, [r6, #28]
    548c:	e3100004 	tst	r0, #4
    5490:	1a00009e 	bne	5710 <nvg__bevelJoin.isra.24+0x33c>
    5494:	eeb06a47 	vmov.f32	s12, s14
    5498:	e59dc018 	ldr	ip, [sp, #24]
    549c:	ed963a05 	vldr	s6, [r6, #20]
    54a0:	e28400a0 	add	r0, r4, #160	; 0xa0
    54a4:	e59d101c 	ldr	r1, [sp, #28]
    54a8:	e1a03005 	mov	r3, r5
    54ac:	edd63a06 	vldr	s7, [r6, #24]
    54b0:	e584202c 	str	r2, [r4, #44]	; 0x2c
    54b4:	e584203c 	str	r2, [r4, #60]	; 0x3c
    54b8:	ee056ae0 	vmls.f32	s12, s11, s1
    54bc:	e584204c 	str	r2, [r4, #76]	; 0x4c
    54c0:	edc47a09 	vstr	s15, [r4, #36]	; 0x24
    54c4:	e584205c 	str	r2, [r4, #92]	; 0x5c
    54c8:	e584206c 	str	r2, [r4, #108]	; 0x6c
    54cc:	edc47a19 	vstr	s15, [r4, #100]	; 0x64
    54d0:	e584207c 	str	r2, [r4, #124]	; 0x7c
    54d4:	e3a0243f 	mov	r2, #1056964608	; 0x3f000000
    54d8:	e5842028 	str	r2, [r4, #40]	; 0x28
    54dc:	ed847a08 	vstr	s14, [r4, #32]
    54e0:	e5842068 	str	r2, [r4, #104]	; 0x68
    54e4:	ed844a0c 	vstr	s8, [r4, #48]	; 0x30
    54e8:	ed845a0d 	vstr	s10, [r4, #52]	; 0x34
    54ec:	eef06a67 	vmov.f32	s13, s15
    54f0:	edc41a0e 	vstr	s3, [r4, #56]	; 0x38
    54f4:	eef05a47 	vmov.f32	s11, s14
    54f8:	ed846a1c 	vstr	s12, [r4, #112]	; 0x70
    54fc:	ee405ac3 	vmls.f32	s11, s1, s6
    5500:	edc41a12 	vstr	s3, [r4, #72]	; 0x48
    5504:	edc41a16 	vstr	s3, [r4, #88]	; 0x58
    5508:	ed847a18 	vstr	s14, [r4, #96]	; 0x60
    550c:	edc41a1e 	vstr	s3, [r4, #120]	; 0x78
    5510:	ee407ae3 	vmls.f32	s15, s1, s7
    5514:	edc45a10 	vstr	s11, [r4, #64]	; 0x40
    5518:	edc45a14 	vstr	s11, [r4, #80]	; 0x50
    551c:	ee446ae0 	vmls.f32	s13, s9, s1
    5520:	edc47a11 	vstr	s15, [r4, #68]	; 0x44
    5524:	edc47a15 	vstr	s15, [r4, #84]	; 0x54
    5528:	edc46a1d 	vstr	s13, [r4, #116]	; 0x74
    552c:	e3a025fe 	mov	r2, #1065353216	; 0x3f800000
    5530:	e583c000 	str	ip, [r3]
    5534:	e5831004 	str	r1, [r3, #4]
    5538:	ed831a02 	vstr	s2, [r3, #8]
    553c:	e583200c 	str	r2, [r3, #12]
    5540:	e583201c 	str	r2, [r3, #28]
    5544:	ed836a04 	vstr	s12, [r3, #16]
    5548:	edc36a05 	vstr	s13, [r3, #20]
    554c:	edc31a06 	vstr	s3, [r3, #24]
    5550:	e28dd020 	add	sp, sp, #32
    5554:	e8bd8070 	pop	{r4, r5, r6, pc}
    5558:	eeb06a40 	vmov.f32	s12, s0
    555c:	e28d301c 	add	r3, sp, #28
    5560:	e58d300c 	str	r3, [sp, #12]
    5564:	e28d3018 	add	r3, sp, #24
    5568:	e58d3008 	str	r3, [sp, #8]
    556c:	e28d3014 	add	r3, sp, #20
    5570:	e58d3004 	str	r3, [sp, #4]
    5574:	e28d3010 	add	r3, sp, #16
    5578:	eeb10a60 	vneg.f32	s0, s1
    557c:	e58d3000 	str	r3, [sp]
    5580:	e1a03006 	mov	r3, r6
    5584:	ebffff6a 	bl	5334 <nvg__chooseBevel.isra.22>
    5588:	ed967a00 	vldr	s14, [r6]
    558c:	e59d1010 	ldr	r1, [sp, #16]
    5590:	e3a025fe 	mov	r2, #1065353216	; 0x3f800000
    5594:	e59de014 	ldr	lr, [sp, #20]
    5598:	edd67a01 	vldr	s15, [r6, #4]
    559c:	e5841010 	str	r1, [r4, #16]
    55a0:	e584e014 	str	lr, [r4, #20]
    55a4:	eeb04a47 	vmov.f32	s8, s14
    55a8:	e584200c 	str	r2, [r4, #12]
    55ac:	e584201c 	str	r2, [r4, #28]
    55b0:	ee054a06 	vmla.f32	s8, s10, s12
    55b4:	ed841a02 	vstr	s2, [r4, #8]
    55b8:	edc41a06 	vstr	s3, [r4, #24]
    55bc:	eeb05a44 	vmov.f32	s10, s8
    55c0:	eeb04a67 	vmov.f32	s8, s15
    55c4:	ed845a00 	vstr	s10, [r4]
    55c8:	ee064a86 	vmla.f32	s8, s13, s12
    55cc:	ed844a01 	vstr	s8, [r4, #4]
    55d0:	eef06a44 	vmov.f32	s13, s8
    55d4:	e5d6301c 	ldrb	r3, [r6, #28]
    55d8:	e3130004 	tst	r3, #4
    55dc:	1a000032 	bne	56ac <nvg__bevelJoin.isra.24+0x2d8>
    55e0:	edd63a05 	vldr	s7, [r6, #20]
    55e4:	e28400a0 	add	r0, r4, #160	; 0xa0
    55e8:	e59dc018 	ldr	ip, [sp, #24]
    55ec:	e1a03005 	mov	r3, r5
    55f0:	e59d101c 	ldr	r1, [sp, #28]
    55f4:	ed964a06 	vldr	s8, [r6, #24]
    55f8:	e584202c 	str	r2, [r4, #44]	; 0x2c
    55fc:	e584203c 	str	r2, [r4, #60]	; 0x3c
    5600:	edc46a09 	vstr	s13, [r4, #36]	; 0x24
    5604:	e584204c 	str	r2, [r4, #76]	; 0x4c
    5608:	e584205c 	str	r2, [r4, #92]	; 0x5c
    560c:	eef06a67 	vmov.f32	s13, s15
    5610:	e584206c 	str	r2, [r4, #108]	; 0x6c
    5614:	ed845a08 	vstr	s10, [r4, #32]
    5618:	e584207c 	str	r2, [r4, #124]	; 0x7c
    561c:	e3a0243f 	mov	r2, #1056964608	; 0x3f000000
    5620:	e5842038 	str	r2, [r4, #56]	; 0x38
    5624:	ee446a86 	vmla.f32	s13, s9, s12
    5628:	e5842078 	str	r2, [r4, #120]	; 0x78
    562c:	ed841a0a 	vstr	s2, [r4, #40]	; 0x28
    5630:	ed847a0c 	vstr	s14, [r4, #48]	; 0x30
    5634:	edc47a0d 	vstr	s15, [r4, #52]	; 0x34
    5638:	ed841a12 	vstr	s2, [r4, #72]	; 0x48
    563c:	ed841a16 	vstr	s2, [r4, #88]	; 0x58
    5640:	eeb03a47 	vmov.f32	s6, s14
    5644:	ed841a1a 	vstr	s2, [r4, #104]	; 0x68
    5648:	eeb05a47 	vmov.f32	s10, s14
    564c:	edc46a19 	vstr	s13, [r4, #100]	; 0x64
    5650:	eef04a67 	vmov.f32	s9, s15
    5654:	ed847a1c 	vstr	s14, [r4, #112]	; 0x70
    5658:	ee053a86 	vmla.f32	s6, s11, s12
    565c:	edc47a1d 	vstr	s15, [r4, #116]	; 0x74
    5660:	ee065a23 	vmla.f32	s10, s12, s7
    5664:	ed843a18 	vstr	s6, [r4, #96]	; 0x60
    5668:	ee464a04 	vmla.f32	s9, s12, s8
    566c:	ed845a10 	vstr	s10, [r4, #64]	; 0x40
    5670:	ed845a14 	vstr	s10, [r4, #80]	; 0x50
    5674:	eef05a43 	vmov.f32	s11, s6
    5678:	edc44a11 	vstr	s9, [r4, #68]	; 0x44
    567c:	edc44a15 	vstr	s9, [r4, #84]	; 0x54
    5680:	e3a025fe 	mov	r2, #1065353216	; 0x3f800000
    5684:	e583c010 	str	ip, [r3, #16]
    5688:	e5831014 	str	r1, [r3, #20]
    568c:	edc35a00 	vstr	s11, [r3]
    5690:	e583200c 	str	r2, [r3, #12]
    5694:	e583201c 	str	r2, [r3, #28]
    5698:	edc36a01 	vstr	s13, [r3, #4]
    569c:	ed831a02 	vstr	s2, [r3, #8]
    56a0:	edc31a06 	vstr	s3, [r3, #24]
    56a4:	e28dd020 	add	sp, sp, #32
    56a8:	e8bd8070 	pop	{r4, r5, r6, pc}
    56ac:	ee057a86 	vmla.f32	s14, s11, s12
    56b0:	e5841030 	str	r1, [r4, #48]	; 0x30
    56b4:	e59dc018 	ldr	ip, [sp, #24]
    56b8:	e1a00005 	mov	r0, r5
    56bc:	e59d101c 	ldr	r1, [sp, #28]
    56c0:	e2843060 	add	r3, r4, #96	; 0x60
    56c4:	ed845a08 	vstr	s10, [r4, #32]
    56c8:	e584202c 	str	r2, [r4, #44]	; 0x2c
    56cc:	e584e034 	str	lr, [r4, #52]	; 0x34
    56d0:	ed844a09 	vstr	s8, [r4, #36]	; 0x24
    56d4:	e584203c 	str	r2, [r4, #60]	; 0x3c
    56d8:	e584204c 	str	r2, [r4, #76]	; 0x4c
    56dc:	ed841a0a 	vstr	s2, [r4, #40]	; 0x28
    56e0:	e584205c 	str	r2, [r4, #92]	; 0x5c
    56e4:	e584c050 	str	ip, [r4, #80]	; 0x50
    56e8:	edc41a0e 	vstr	s3, [r4, #56]	; 0x38
    56ec:	e5841054 	str	r1, [r4, #84]	; 0x54
    56f0:	ed841a12 	vstr	s2, [r4, #72]	; 0x48
    56f4:	ee447a86 	vmla.f32	s15, s9, s12
    56f8:	edc41a16 	vstr	s3, [r4, #88]	; 0x58
    56fc:	ed847a10 	vstr	s14, [r4, #64]	; 0x40
    5700:	eef05a47 	vmov.f32	s11, s14
    5704:	eef06a67 	vmov.f32	s13, s15
    5708:	edc47a11 	vstr	s15, [r4, #68]	; 0x44
    570c:	eaffffdb 	b	5680 <nvg__bevelJoin.isra.24+0x2ac>
    5710:	ee057ae0 	vmls.f32	s14, s11, s1
    5714:	e59dc018 	ldr	ip, [sp, #24]
    5718:	e5841024 	str	r1, [r4, #36]	; 0x24
    571c:	e1a00005 	mov	r0, r5
    5720:	e59d101c 	ldr	r1, [sp, #28]
    5724:	e5843020 	str	r3, [r4, #32]
    5728:	e2843060 	add	r3, r4, #96	; 0x60
    572c:	ed841a0a 	vstr	s2, [r4, #40]	; 0x28
    5730:	e584202c 	str	r2, [r4, #44]	; 0x2c
    5734:	e584203c 	str	r2, [r4, #60]	; 0x3c
    5738:	ed844a0c 	vstr	s8, [r4, #48]	; 0x30
    573c:	e584204c 	str	r2, [r4, #76]	; 0x4c
    5740:	e584205c 	str	r2, [r4, #92]	; 0x5c
    5744:	ed845a0d 	vstr	s10, [r4, #52]	; 0x34
    5748:	e584c040 	str	ip, [r4, #64]	; 0x40
    574c:	e5841044 	str	r1, [r4, #68]	; 0x44
    5750:	edc41a0e 	vstr	s3, [r4, #56]	; 0x38
    5754:	ee447ae0 	vmls.f32	s15, s9, s1
    5758:	ed841a12 	vstr	s2, [r4, #72]	; 0x48
    575c:	edc41a16 	vstr	s3, [r4, #88]	; 0x58
    5760:	ed847a14 	vstr	s14, [r4, #80]	; 0x50
    5764:	eeb06a47 	vmov.f32	s12, s14
    5768:	eef06a67 	vmov.f32	s13, s15
    576c:	edc47a15 	vstr	s15, [r4, #84]	; 0x54
    5770:	eaffff6d 	b	552c <nvg__bevelJoin.isra.24+0x158>

00005774 <nvg__calculateJoins.isra.27>:
    5774:	eeb50ac0 	vcmpe.f32	s0, #0.0
    5778:	e92d41f0 	push	{r4, r5, r6, r7, r8, lr}
    577c:	e5905010 	ldr	r5, [r0, #16]
    5780:	eef1fa10 	vmrs	APSR_nzcv, fpscr
    5784:	cef77a00 	vmovgt.f32	s15, #112	; 0x3f800000  1.0
    5788:	dddf1a66 	vldrle	s3, [pc, #408]	; 5928 <nvg__calculateJoins.isra.27+0x1b4>
    578c:	cec71a80 	vdivgt.f32	s3, s15, s0
    5790:	e3550000 	cmp	r5, #0
    5794:	d8bd81f0 	pople	{r4, r5, r6, r7, r8, pc}
    5798:	e590c00c 	ldr	ip, [r0, #12]
    579c:	e3a03028 	mov	r3, #40	; 0x28
    57a0:	ed9f0a61 	vldr	s0, [pc, #388]	; 592c <nvg__calculateJoins.isra.27+0x1b8>
    57a4:	e3a06000 	mov	r6, #0
    57a8:	e5907000 	ldr	r7, [r0]
    57ac:	e025c593 	mla	r5, r3, r5, ip
    57b0:	ed9f1a5e 	vldr	s2, [pc, #376]	; 5930 <nvg__calculateJoins.isra.27+0x1bc>
    57b4:	eddf2a5e 	vldr	s5, [pc, #376]	; 5934 <nvg__calculateJoins.isra.27+0x1c0>
    57b8:	eeb62a00 	vmov.f32	s4, #96	; 0x3f000000  0.5
    57bc:	eeb73a00 	vmov.f32	s6, #112	; 0x3f800000  1.0
    57c0:	e89c4008 	ldm	ip, {r3, lr}
    57c4:	e58c600c 	str	r6, [ip, #12]
    57c8:	e35e0000 	cmp	lr, #0
    57cc:	e24e237e 	sub	r2, lr, #-134217727	; 0xf8000001
    57d0:	e0873283 	add	r3, r7, r3, lsl #5
    57d4:	e0832282 	add	r2, r3, r2, lsl #5
    57d8:	d3a04000 	movle	r4, #0
    57dc:	da000049 	ble	5908 <nvg__calculateJoins.isra.27+0x194>
    57e0:	e3a00000 	mov	r0, #0
    57e4:	ed924a03 	vldr	s8, [r2, #12]
    57e8:	e1a04000 	mov	r4, r0
    57ec:	e3c18002 	bic	r8, r1, #2
    57f0:	edd25a02 	vldr	s11, [r2, #8]
    57f4:	ed927a04 	vldr	s14, [r2, #16]
    57f8:	ea000000 	b	5800 <nvg__calculateJoins.isra.27+0x8c>
    57fc:	eeb07a46 	vmov.f32	s14, s12
    5800:	ed935a02 	vldr	s10, [r3, #8]
    5804:	eef17a65 	vneg.f32	s15, s11
    5808:	edd34a03 	vldr	s9, [r3, #12]
    580c:	ee777ac5 	vsub.f32	s15, s15, s10
    5810:	ee677a82 	vmul.f32	s15, s15, s4
    5814:	ee346a84 	vadd.f32	s12, s9, s8
    5818:	edc37a06 	vstr	s15, [r3, #24]
    581c:	ee266a02 	vmul.f32	s12, s12, s4
    5820:	ee676aa7 	vmul.f32	s13, s15, s15
    5824:	ed836a05 	vstr	s12, [r3, #20]
    5828:	ee466a06 	vmla.f32	s13, s12, s12
    582c:	eef46ac0 	vcmpe.f32	s13, s0
    5830:	eef1fa10 	vmrs	APSR_nzcv, fpscr
    5834:	da000007 	ble	5858 <nvg__calculateJoins.isra.27+0xe4>
    5838:	eec33a26 	vdiv.f32	s7, s6, s13
    583c:	eef43a41 	vcmp.f32	s7, s2
    5840:	eef1fa10 	vmrs	APSR_nzcv, fpscr
    5844:	cef03a41 	vmovgt.f32	s7, s2
    5848:	ee266a23 	vmul.f32	s12, s12, s7
    584c:	ee677aa3 	vmul.f32	s15, s15, s7
    5850:	ed836a05 	vstr	s12, [r3, #20]
    5854:	edc37a06 	vstr	s15, [r3, #24]
    5858:	e5d3201c 	ldrb	r2, [r3, #28]
    585c:	ee645aa5 	vmul.f32	s11, s9, s11
    5860:	e2022001 	and	r2, r2, #1
    5864:	ed936a04 	vldr	s12, [r3, #16]
    5868:	ee555a04 	vnmls.f32	s11, s10, s8
    586c:	eef55ac0 	vcmpe.f32	s11, #0.0
    5870:	eef1fa10 	vmrs	APSR_nzcv, fpscr
    5874:	eeb46ac7 	vcmpe.f32	s12, s14
    5878:	c3822002 	orrgt	r2, r2, #2
    587c:	c2844001 	addgt	r4, r4, #1
    5880:	e5c3201c 	strb	r2, [r3, #28]
    5884:	eef1fa10 	vmrs	APSR_nzcv, fpscr
    5888:	deb07a46 	vmovle.f32	s14, s12
    588c:	ee617a87 	vmul.f32	s15, s3, s14
    5890:	eef47a62 	vcmp.f32	s15, s5
    5894:	eef1fa10 	vmrs	APSR_nzcv, fpscr
    5898:	4ef07a62 	vmovmi.f32	s15, s5
    589c:	ee267aa7 	vmul.f32	s14, s13, s15
    58a0:	ee677a27 	vmul.f32	s15, s14, s15
    58a4:	eef47ac3 	vcmpe.f32	s15, s6
    58a8:	eef1fa10 	vmrs	APSR_nzcv, fpscr
    58ac:	43822008 	orrmi	r2, r2, #8
    58b0:	45c3201c 	strbmi	r2, [r3, #28]
    58b4:	e3120001 	tst	r2, #1
    58b8:	0a000008 	beq	58e0 <nvg__calculateJoins.isra.27+0x16c>
    58bc:	ee666aa0 	vmul.f32	s13, s13, s1
    58c0:	ee666aa0 	vmul.f32	s13, s13, s1
    58c4:	eef46ac3 	vcmpe.f32	s13, s6
    58c8:	eef1fa10 	vmrs	APSR_nzcv, fpscr
    58cc:	4a000001 	bmi	58d8 <nvg__calculateJoins.isra.27+0x164>
    58d0:	e3580001 	cmp	r8, #1
    58d4:	1a000001 	bne	58e0 <nvg__calculateJoins.isra.27+0x16c>
    58d8:	e3822004 	orr	r2, r2, #4
    58dc:	e5c3201c 	strb	r2, [r3, #28]
    58e0:	e312000c 	tst	r2, #12
    58e4:	e2800001 	add	r0, r0, #1
    58e8:	e2833020 	add	r3, r3, #32
    58ec:	eeb04a64 	vmov.f32	s8, s9
    58f0:	159c200c 	ldrne	r2, [ip, #12]
    58f4:	12822001 	addne	r2, r2, #1
    58f8:	158c200c 	strne	r2, [ip, #12]
    58fc:	e15e0000 	cmp	lr, r0
    5900:	eef05a45 	vmov.f32	s11, s10
    5904:	1affffbc 	bne	57fc <nvg__calculateJoins.isra.27+0x88>
    5908:	e04ee004 	sub	lr, lr, r4
    590c:	e28cc028 	add	ip, ip, #40	; 0x28
    5910:	e16fef1e 	clz	lr, lr
    5914:	e1a0e2ae 	lsr	lr, lr, #5
    5918:	e50ce004 	str	lr, [ip, #-4]
    591c:	e15c0005 	cmp	ip, r5
    5920:	1affffa6 	bne	57c0 <nvg__calculateJoins.isra.27+0x4c>
    5924:	e8bd81f0 	pop	{r4, r5, r6, r7, r8, pc}
    5928:	00000000 	.word	0x00000000
    592c:	358637bd 	.word	0x358637bd
    5930:	44160000 	.word	0x44160000
    5934:	3f8147ae 	.word	0x3f8147ae

00005938 <stbtt__buf_get>:
    5938:	e2413001 	sub	r3, r1, #1
    593c:	e3530003 	cmp	r3, #3
    5940:	e92d4070 	push	{r4, r5, r6, lr}
    5944:	93a02000 	movls	r2, #0
    5948:	9590e008 	ldrls	lr, [r0, #8]
    594c:	91a03002 	movls	r3, r2
    5950:	8a00000c 	bhi	5988 <stbtt__buf_get+0x50>
    5954:	e590c004 	ldr	ip, [r0, #4]
    5958:	e1a03403 	lsl	r3, r3, #8
    595c:	e2822001 	add	r2, r2, #1
    5960:	e15c000e 	cmp	ip, lr
    5964:	b28c5001 	addlt	r5, ip, #1
    5968:	b5805004 	strlt	r5, [r0, #4]
    596c:	b5904000 	ldrlt	r4, [r0]
    5970:	b7d4c00c 	ldrblt	ip, [r4, ip]
    5974:	b183300c 	orrlt	r3, r3, ip
    5978:	e1510002 	cmp	r1, r2
    597c:	1afffff4 	bne	5954 <stbtt__buf_get+0x1c>
    5980:	e1a00003 	mov	r0, r3
    5984:	e8bd8070 	pop	{r4, r5, r6, pc}
    5988:	e3003000 	movw	r3, #0
    598c:	e3000000 	movw	r0, #0
    5990:	e3403000 	movt	r3, #0
    5994:	e3400000 	movt	r0, #0
    5998:	e59f2004 	ldr	r2, [pc, #4]	; 59a4 <stbtt__buf_get+0x6c>
    599c:	e3001485 	movw	r1, #1157	; 0x485
    59a0:	ebfffffe 	bl	0 <__assert_func>
    59a4:	00000114 	.word	0x00000114

000059a8 <stbtt__cff_index_get>:
    59a8:	e92d41f0 	push	{r4, r5, r6, r7, r8, lr}
    59ac:	e24dd010 	sub	sp, sp, #16
    59b0:	e28d6004 	add	r6, sp, #4
    59b4:	e59d5028 	ldr	r5, [sp, #40]	; 0x28
    59b8:	e886000e 	stm	r6, {r1, r2, r3}
    59bc:	e59d300c 	ldr	r3, [sp, #12]
    59c0:	e3530000 	cmp	r3, #0
    59c4:	ba00004a 	blt	5af4 <stbtt__cff_index_get+0x14c>
    59c8:	e3a01002 	mov	r1, #2
    59cc:	e1a07000 	mov	r7, r0
    59d0:	e1a00006 	mov	r0, r6
    59d4:	e3a03000 	mov	r3, #0
    59d8:	e58d3008 	str	r3, [sp, #8]
    59dc:	ebffffd5 	bl	5938 <stbtt__buf_get>
    59e0:	e59d1008 	ldr	r1, [sp, #8]
    59e4:	e59d300c 	ldr	r3, [sp, #12]
    59e8:	e1500005 	cmp	r0, r5
    59ec:	e1a08000 	mov	r8, r0
    59f0:	c3a02000 	movgt	r2, #0
    59f4:	d3a02001 	movle	r2, #1
    59f8:	e1510003 	cmp	r1, r3
    59fc:	e1822fa5 	orr	r2, r2, r5, lsr #31
    5a00:	aa00002b 	bge	5ab4 <stbtt__cff_index_get+0x10c>
    5a04:	e59d0004 	ldr	r0, [sp, #4]
    5a08:	e3520000 	cmp	r2, #0
    5a0c:	e2812001 	add	r2, r1, #1
    5a10:	e58d2008 	str	r2, [sp, #8]
    5a14:	e7d04001 	ldrb	r4, [r0, r1]
    5a18:	1a000027 	bne	5abc <stbtt__cff_index_get+0x114>
    5a1c:	e2441001 	sub	r1, r4, #1
    5a20:	e3510003 	cmp	r1, #3
    5a24:	8a000033 	bhi	5af8 <stbtt__cff_index_get+0x150>
    5a28:	e0252495 	mla	r5, r5, r4, r2
    5a2c:	e1530005 	cmp	r3, r5
    5a30:	a3a03000 	movge	r3, #0
    5a34:	b3a03001 	movlt	r3, #1
    5a38:	e1933fa5 	orrs	r3, r3, r5, lsr #31
    5a3c:	1a00002c 	bne	5af4 <stbtt__cff_index_get+0x14c>
    5a40:	e1a01004 	mov	r1, r4
    5a44:	e1a00006 	mov	r0, r6
    5a48:	e58d5008 	str	r5, [sp, #8]
    5a4c:	ebffffb9 	bl	5938 <stbtt__buf_get>
    5a50:	e1a01004 	mov	r1, r4
    5a54:	e0244498 	mla	r4, r8, r4, r4
    5a58:	e2844002 	add	r4, r4, #2
    5a5c:	e1a05000 	mov	r5, r0
    5a60:	e1a00006 	mov	r0, r6
    5a64:	ebffffb3 	bl	5938 <stbtt__buf_get>
    5a68:	e0844005 	add	r4, r4, r5
    5a6c:	e0400005 	sub	r0, r0, r5
    5a70:	e1a03fa0 	lsr	r3, r0, #31
    5a74:	e1933fa4 	orrs	r3, r3, r4, lsr #31
    5a78:	1a000016 	bne	5ad8 <stbtt__cff_index_get+0x130>
    5a7c:	e59d200c 	ldr	r2, [sp, #12]
    5a80:	e1540002 	cmp	r4, r2
    5a84:	ca000013 	bgt	5ad8 <stbtt__cff_index_get+0x130>
    5a88:	e0422004 	sub	r2, r2, r4
    5a8c:	e1500002 	cmp	r0, r2
    5a90:	ca000010 	bgt	5ad8 <stbtt__cff_index_get+0x130>
    5a94:	e59d2004 	ldr	r2, [sp, #4]
    5a98:	e5870008 	str	r0, [r7, #8]
    5a9c:	e1a00007 	mov	r0, r7
    5aa0:	e0824004 	add	r4, r2, r4
    5aa4:	e5873004 	str	r3, [r7, #4]
    5aa8:	e5874000 	str	r4, [r7]
    5aac:	e28dd010 	add	sp, sp, #16
    5ab0:	e8bd81f0 	pop	{r4, r5, r6, r7, r8, pc}
    5ab4:	e3520000 	cmp	r2, #0
    5ab8:	0a00000e 	beq	5af8 <stbtt__cff_index_get+0x150>
    5abc:	e3003000 	movw	r3, #0
    5ac0:	e3000000 	movw	r0, #0
    5ac4:	e3403000 	movt	r3, #0
    5ac8:	e3400000 	movt	r0, #0
    5acc:	e59f2040 	ldr	r2, [pc, #64]	; 5b14 <stbtt__cff_index_get+0x16c>
    5ad0:	e30014ed 	movw	r1, #1261	; 0x4ed
    5ad4:	ebfffffe 	bl	0 <__assert_func>
    5ad8:	e3a03000 	mov	r3, #0
    5adc:	e1a00007 	mov	r0, r7
    5ae0:	e5873000 	str	r3, [r7]
    5ae4:	e5873004 	str	r3, [r7, #4]
    5ae8:	e5873008 	str	r3, [r7, #8]
    5aec:	e28dd010 	add	sp, sp, #16
    5af0:	e8bd81f0 	pop	{r4, r5, r6, r7, r8, pc}
    5af4:	ebfffffe 	bl	0 <stbtt__isfont>
    5af8:	e3003000 	movw	r3, #0
    5afc:	e3000000 	movw	r0, #0
    5b00:	e3403000 	movt	r3, #0
    5b04:	e3400000 	movt	r0, #0
    5b08:	e59f2004 	ldr	r2, [pc, #4]	; 5b14 <stbtt__cff_index_get+0x16c>
    5b0c:	e30014ee 	movw	r1, #1262	; 0x4ee
    5b10:	ebfffffe 	bl	0 <__assert_func>
    5b14:	00000124 	.word	0x00000124

00005b18 <stbtt__cff_get_index>:
    5b18:	e92d4070 	push	{r4, r5, r6, lr}
    5b1c:	e1a04001 	mov	r4, r1
    5b20:	e1a05000 	mov	r5, r0
    5b24:	e3a01002 	mov	r1, #2
    5b28:	e1a00004 	mov	r0, r4
    5b2c:	e5946004 	ldr	r6, [r4, #4]
    5b30:	ebffff80 	bl	5938 <stbtt__buf_get>
    5b34:	e3500000 	cmp	r0, #0
    5b38:	05940004 	ldreq	r0, [r4, #4]
    5b3c:	0a00001b 	beq	5bb0 <stbtt__cff_get_index+0x98>
    5b40:	e1c420d4 	ldrd	r2, [r4, #4]
    5b44:	e1520003 	cmp	r2, r3
    5b48:	aa00002f 	bge	5c0c <stbtt__cff_get_index+0xf4>
    5b4c:	e5941000 	ldr	r1, [r4]
    5b50:	e282c001 	add	ip, r2, #1
    5b54:	e584c004 	str	ip, [r4, #4]
    5b58:	e7d11002 	ldrb	r1, [r1, r2]
    5b5c:	e2412001 	sub	r2, r1, #1
    5b60:	e3520003 	cmp	r2, #3
    5b64:	8a000028 	bhi	5c0c <stbtt__cff_get_index+0xf4>
    5b68:	e020c091 	mla	r0, r1, r0, ip
    5b6c:	e1530000 	cmp	r3, r0
    5b70:	a3a03000 	movge	r3, #0
    5b74:	b3a03001 	movlt	r3, #1
    5b78:	e1933fa0 	orrs	r3, r3, r0, lsr #31
    5b7c:	1a000029 	bne	5c28 <stbtt__cff_get_index+0x110>
    5b80:	e5840004 	str	r0, [r4, #4]
    5b84:	e1a00004 	mov	r0, r4
    5b88:	ebffff6a 	bl	5938 <stbtt__buf_get>
    5b8c:	e1c420d4 	ldrd	r2, [r4, #4]
    5b90:	e2400001 	sub	r0, r0, #1
    5b94:	e0800002 	add	r0, r0, r2
    5b98:	e1500003 	cmp	r0, r3
    5b9c:	d3a03000 	movle	r3, #0
    5ba0:	c3a03001 	movgt	r3, #1
    5ba4:	e1933fa0 	orrs	r3, r3, r0, lsr #31
    5ba8:	1a00001e 	bne	5c28 <stbtt__cff_get_index+0x110>
    5bac:	e5840004 	str	r0, [r4, #4]
    5bb0:	e0400006 	sub	r0, r0, r6
    5bb4:	e1a03fa0 	lsr	r3, r0, #31
    5bb8:	e1933fa6 	orrs	r3, r3, r6, lsr #31
    5bbc:	1a00000c 	bne	5bf4 <stbtt__cff_get_index+0xdc>
    5bc0:	e5942008 	ldr	r2, [r4, #8]
    5bc4:	e1560002 	cmp	r6, r2
    5bc8:	ca000009 	bgt	5bf4 <stbtt__cff_get_index+0xdc>
    5bcc:	e0422006 	sub	r2, r2, r6
    5bd0:	e1500002 	cmp	r0, r2
    5bd4:	ca000006 	bgt	5bf4 <stbtt__cff_get_index+0xdc>
    5bd8:	e5942000 	ldr	r2, [r4]
    5bdc:	e5850008 	str	r0, [r5, #8]
    5be0:	e1a00005 	mov	r0, r5
    5be4:	e0826006 	add	r6, r2, r6
    5be8:	e5853004 	str	r3, [r5, #4]
    5bec:	e5856000 	str	r6, [r5]
    5bf0:	e8bd8070 	pop	{r4, r5, r6, pc}
    5bf4:	e3a03000 	mov	r3, #0
    5bf8:	e1a00005 	mov	r0, r5
    5bfc:	e5853000 	str	r3, [r5]
    5c00:	e5853004 	str	r3, [r5, #4]
    5c04:	e5853008 	str	r3, [r5, #8]
    5c08:	e8bd8070 	pop	{r4, r5, r6, pc}
    5c0c:	e3003000 	movw	r3, #0
    5c10:	e3000000 	movw	r0, #0
    5c14:	e3403000 	movt	r3, #0
    5c18:	e3400000 	movt	r0, #0
    5c1c:	e59f2008 	ldr	r2, [pc, #8]	; 5c2c <stbtt__cff_get_index+0x114>
    5c20:	e30014a8 	movw	r1, #1192	; 0x4a8
    5c24:	ebfffffe 	bl	0 <__assert_func>
    5c28:	ebfffffe 	bl	0 <stbtt__isfont>
    5c2c:	0000013c 	.word	0x0000013c

00005c30 <stbtt__cff_int>:
    5c30:	e9901002 	ldmib	r0, {r1, ip}
    5c34:	e92d4070 	push	{r4, r5, r6, lr}
    5c38:	e151000c 	cmp	r1, ip
    5c3c:	ba000006 	blt	5c5c <stbtt__cff_int+0x2c>
    5c40:	e3003000 	movw	r3, #0
    5c44:	e3000000 	movw	r0, #0
    5c48:	e3403000 	movt	r3, #0
    5c4c:	e3400000 	movt	r0, #0
    5c50:	e59f20b0 	ldr	r2, [pc, #176]	; 5d08 <stbtt__cff_int+0xd8>
    5c54:	e30014b7 	movw	r1, #1207	; 0x4b7
    5c58:	ebfffffe 	bl	0 <__assert_func>
    5c5c:	e5904000 	ldr	r4, [r0]
    5c60:	e281e001 	add	lr, r1, #1
    5c64:	e580e004 	str	lr, [r0, #4]
    5c68:	e1a02000 	mov	r2, r0
    5c6c:	e7d43001 	ldrb	r3, [r4, r1]
    5c70:	e2435020 	sub	r5, r3, #32
    5c74:	e35500d6 	cmp	r5, #214	; 0xd6
    5c78:	8a000001 	bhi	5c84 <stbtt__cff_int+0x54>
    5c7c:	e243008b 	sub	r0, r3, #139	; 0x8b
    5c80:	e8bd8070 	pop	{r4, r5, r6, pc}
    5c84:	e24350f7 	sub	r5, r3, #247	; 0xf7
    5c88:	e3550003 	cmp	r5, #3
    5c8c:	9a000009 	bls	5cb8 <stbtt__cff_int+0x88>
    5c90:	e24350fb 	sub	r5, r3, #251	; 0xfb
    5c94:	e3550003 	cmp	r5, #3
    5c98:	9a00000e 	bls	5cd8 <stbtt__cff_int+0xa8>
    5c9c:	e353001c 	cmp	r3, #28
    5ca0:	0a000015 	beq	5cfc <stbtt__cff_int+0xcc>
    5ca4:	e353001d 	cmp	r3, #29
    5ca8:	1affffe4 	bne	5c40 <stbtt__cff_int+0x10>
    5cac:	e3a01004 	mov	r1, #4
    5cb0:	e8bd4070 	pop	{r4, r5, r6, lr}
    5cb4:	eaffff1f 	b	5938 <stbtt__buf_get>
    5cb8:	e15c000e 	cmp	ip, lr
    5cbc:	e1a00405 	lsl	r0, r5, #8
    5cc0:	c2811002 	addgt	r1, r1, #2
    5cc4:	c5821004 	strgt	r1, [r2, #4]
    5cc8:	c7d4300e 	ldrbgt	r3, [r4, lr]
    5ccc:	c0800003 	addgt	r0, r0, r3
    5cd0:	e280006c 	add	r0, r0, #108	; 0x6c
    5cd4:	e8bd8070 	pop	{r4, r5, r6, pc}
    5cd8:	e15c000e 	cmp	ip, lr
    5cdc:	e26300fb 	rsb	r0, r3, #251	; 0xfb
    5ce0:	c2811002 	addgt	r1, r1, #2
    5ce4:	c5821004 	strgt	r1, [r2, #4]
    5ce8:	c7d4300e 	ldrbgt	r3, [r4, lr]
    5cec:	e1a00400 	lsl	r0, r0, #8
    5cf0:	c0400003 	subgt	r0, r0, r3
    5cf4:	e240006c 	sub	r0, r0, #108	; 0x6c
    5cf8:	e8bd8070 	pop	{r4, r5, r6, pc}
    5cfc:	e3a01002 	mov	r1, #2
    5d00:	e8bd4070 	pop	{r4, r5, r6, lr}
    5d04:	eaffff0b 	b	5938 <stbtt__buf_get>
    5d08:	00000154 	.word	0x00000154

00005d0c <stbtt__dict_get_ints>:
    5d0c:	e92d41f0 	push	{r4, r5, r6, r7, r8, lr}
    5d10:	e1a04000 	mov	r4, r0
    5d14:	e5900008 	ldr	r0, [r0, #8]
    5d18:	e24dd010 	sub	sp, sp, #16
    5d1c:	e3500000 	cmp	r0, #0
    5d20:	ba000061 	blt	5eac <stbtt__dict_get_ints+0x1a0>
    5d24:	e3a05000 	mov	r5, #0
    5d28:	e1550000 	cmp	r5, r0
    5d2c:	e1a08001 	mov	r8, r1
    5d30:	e1a07002 	mov	r7, r2
    5d34:	e1a06003 	mov	r6, r3
    5d38:	e5845004 	str	r5, [r4, #4]
    5d3c:	aa000022 	bge	5dcc <stbtt__dict_get_ints+0xc0>
    5d40:	e1a03005 	mov	r3, r5
    5d44:	e5942000 	ldr	r2, [r4]
    5d48:	e0821003 	add	r1, r2, r3
    5d4c:	e7d2c003 	ldrb	ip, [r2, r3]
    5d50:	e35c001b 	cmp	ip, #27
    5d54:	9a000026 	bls	5df4 <stbtt__dict_get_ints+0xe8>
    5d58:	e35c001e 	cmp	ip, #30
    5d5c:	1a00001c 	bne	5dd4 <stbtt__dict_get_ints+0xc8>
    5d60:	e2833001 	add	r3, r3, #1
    5d64:	e1500003 	cmp	r0, r3
    5d68:	a3a02000 	movge	r2, #0
    5d6c:	b3a02001 	movlt	r2, #1
    5d70:	e1922fa3 	orrs	r2, r2, r3, lsr #31
    5d74:	1a00004c 	bne	5eac <stbtt__dict_get_ints+0x1a0>
    5d78:	e5843004 	str	r3, [r4, #4]
    5d7c:	ea000008 	b	5da4 <stbtt__dict_get_ints+0x98>
    5d80:	e2833001 	add	r3, r3, #1
    5d84:	e5843004 	str	r3, [r4, #4]
    5d88:	e5f12001 	ldrb	r2, [r1, #1]!
    5d8c:	e202c00f 	and	ip, r2, #15
    5d90:	e35c000f 	cmp	ip, #15
    5d94:	0a000004 	beq	5dac <stbtt__dict_get_ints+0xa0>
    5d98:	e1a02242 	asr	r2, r2, #4
    5d9c:	e352000f 	cmp	r2, #15
    5da0:	0a000001 	beq	5dac <stbtt__dict_get_ints+0xa0>
    5da4:	e1500003 	cmp	r0, r3
    5da8:	cafffff4 	bgt	5d80 <stbtt__dict_get_ints+0x74>
    5dac:	e5942008 	ldr	r2, [r4, #8]
    5db0:	e1520003 	cmp	r2, r3
    5db4:	e1a00002 	mov	r0, r2
    5db8:	caffffe1 	bgt	5d44 <stbtt__dict_get_ints+0x38>
    5dbc:	e5945004 	ldr	r5, [r4, #4]
    5dc0:	e1a00002 	mov	r0, r2
    5dc4:	e1550000 	cmp	r5, r0
    5dc8:	baffffdc 	blt	5d40 <stbtt__dict_get_ints+0x34>
    5dcc:	e28dd010 	add	sp, sp, #16
    5dd0:	e8bd81f0 	pop	{r4, r5, r6, r7, r8, pc}
    5dd4:	e1a00004 	mov	r0, r4
    5dd8:	ebffff94 	bl	5c30 <stbtt__cff_int>
    5ddc:	e5942008 	ldr	r2, [r4, #8]
    5de0:	e5943004 	ldr	r3, [r4, #4]
    5de4:	e1520003 	cmp	r2, r3
    5de8:	e1a00002 	mov	r0, r2
    5dec:	caffffd4 	bgt	5d44 <stbtt__dict_get_ints+0x38>
    5df0:	eafffff1 	b	5dbc <stbtt__dict_get_ints+0xb0>
    5df4:	e283c001 	add	ip, r3, #1
    5df8:	e584c004 	str	ip, [r4, #4]
    5dfc:	e5d11000 	ldrb	r1, [r1]
    5e00:	e351000c 	cmp	r1, #12
    5e04:	1a000005 	bne	5e20 <stbtt__dict_get_ints+0x114>
    5e08:	e150000c 	cmp	r0, ip
    5e0c:	c2831002 	addgt	r1, r3, #2
    5e10:	c5841004 	strgt	r1, [r4, #4]
    5e14:	c7d2100c 	ldrbgt	r1, [r2, ip]
    5e18:	d3a01c01 	movle	r1, #256	; 0x100
    5e1c:	c3811c01 	orrgt	r1, r1, #256	; 0x100
    5e20:	e1580001 	cmp	r8, r1
    5e24:	15942008 	ldrne	r2, [r4, #8]
    5e28:	15945004 	ldrne	r5, [r4, #4]
    5e2c:	11a00002 	movne	r0, r2
    5e30:	1affffe3 	bne	5dc4 <stbtt__dict_get_ints+0xb8>
    5e34:	e0433005 	sub	r3, r3, r5
    5e38:	e1a02fa3 	lsr	r2, r3, #31
    5e3c:	e1822fa5 	orr	r2, r2, r5, lsr #31
    5e40:	e1500005 	cmp	r0, r5
    5e44:	b3822001 	orrlt	r2, r2, #1
    5e48:	e3520000 	cmp	r2, #0
    5e4c:	1affffde 	bne	5dcc <stbtt__dict_get_ints+0xc0>
    5e50:	e0400005 	sub	r0, r0, r5
    5e54:	e1530000 	cmp	r3, r0
    5e58:	caffffdb 	bgt	5dcc <stbtt__dict_get_ints+0xc0>
    5e5c:	e5941000 	ldr	r1, [r4]
    5e60:	e3530000 	cmp	r3, #0
    5e64:	e58d2008 	str	r2, [sp, #8]
    5e68:	e0815005 	add	r5, r1, r5
    5e6c:	e58d300c 	str	r3, [sp, #12]
    5e70:	e58d5004 	str	r5, [sp, #4]
    5e74:	0affffd4 	beq	5dcc <stbtt__dict_get_ints+0xc0>
    5e78:	e28d0004 	add	r0, sp, #4
    5e7c:	ebffff6b 	bl	5c30 <stbtt__cff_int>
    5e80:	e3570002 	cmp	r7, #2
    5e84:	e5860000 	str	r0, [r6]
    5e88:	1affffcf 	bne	5dcc <stbtt__dict_get_ints+0xc0>
    5e8c:	e59d200c 	ldr	r2, [sp, #12]
    5e90:	e59d3008 	ldr	r3, [sp, #8]
    5e94:	e1520003 	cmp	r2, r3
    5e98:	daffffcb 	ble	5dcc <stbtt__dict_get_ints+0xc0>
    5e9c:	e28d0004 	add	r0, sp, #4
    5ea0:	ebffff62 	bl	5c30 <stbtt__cff_int>
    5ea4:	e5860004 	str	r0, [r6, #4]
    5ea8:	eaffffc7 	b	5dcc <stbtt__dict_get_ints+0xc0>
    5eac:	ebfffffe 	bl	0 <stbtt__isfont>

00005eb0 <stbtt__get_subrs>:
    5eb0:	e92d4070 	push	{r4, r5, r6, lr}
    5eb4:	e24dd028 	sub	sp, sp, #40	; 0x28
    5eb8:	e28d5004 	add	r5, sp, #4
    5ebc:	e1a04000 	mov	r4, r0
    5ec0:	e28d0038 	add	r0, sp, #56	; 0x38
    5ec4:	e3a06000 	mov	r6, #0
    5ec8:	e885000e 	stm	r5, {r1, r2, r3}
    5ecc:	e28d3014 	add	r3, sp, #20
    5ed0:	e3a02002 	mov	r2, #2
    5ed4:	e3a01012 	mov	r1, #18
    5ed8:	e58d6010 	str	r6, [sp, #16]
    5edc:	e58d6014 	str	r6, [sp, #20]
    5ee0:	e58d6018 	str	r6, [sp, #24]
    5ee4:	ebffff88 	bl	5d0c <stbtt__dict_get_ints>
    5ee8:	e59d3018 	ldr	r3, [sp, #24]
    5eec:	e1530006 	cmp	r3, r6
    5ef0:	0a00002a 	beq	5fa0 <stbtt__get_subrs+0xf0>
    5ef4:	e59dc014 	ldr	ip, [sp, #20]
    5ef8:	e15c0006 	cmp	ip, r6
    5efc:	0a000027 	beq	5fa0 <stbtt__get_subrs+0xf0>
    5f00:	e1a02fac 	lsr	r2, ip, #31
    5f04:	e1922fa3 	orrs	r2, r2, r3, lsr #31
    5f08:	11a0c006 	movne	ip, r6
    5f0c:	11a0000c 	movne	r0, ip
    5f10:	1a000007 	bne	5f34 <stbtt__get_subrs+0x84>
    5f14:	e59d100c 	ldr	r1, [sp, #12]
    5f18:	e1530001 	cmp	r3, r1
    5f1c:	ca000002 	bgt	5f2c <stbtt__get_subrs+0x7c>
    5f20:	e0411003 	sub	r1, r1, r3
    5f24:	e15c0001 	cmp	ip, r1
    5f28:	da000023 	ble	5fbc <stbtt__get_subrs+0x10c>
    5f2c:	e1a0c002 	mov	ip, r2
    5f30:	e1a00002 	mov	r0, r2
    5f34:	e28d3010 	add	r3, sp, #16
    5f38:	e58d001c 	str	r0, [sp, #28]
    5f3c:	e3a02001 	mov	r2, #1
    5f40:	e3a01013 	mov	r1, #19
    5f44:	e28d001c 	add	r0, sp, #28
    5f48:	e58dc024 	str	ip, [sp, #36]	; 0x24
    5f4c:	e3a0c000 	mov	ip, #0
    5f50:	e58dc020 	str	ip, [sp, #32]
    5f54:	ebffff6c 	bl	5d0c <stbtt__dict_get_ints>
    5f58:	e59d3010 	ldr	r3, [sp, #16]
    5f5c:	e3530000 	cmp	r3, #0
    5f60:	0a00000e 	beq	5fa0 <stbtt__get_subrs+0xf0>
    5f64:	e59d1018 	ldr	r1, [sp, #24]
    5f68:	e59d200c 	ldr	r2, [sp, #12]
    5f6c:	e0833001 	add	r3, r3, r1
    5f70:	e1530002 	cmp	r3, r2
    5f74:	d3a02000 	movle	r2, #0
    5f78:	c3a02001 	movgt	r2, #1
    5f7c:	e1922fa3 	orrs	r2, r2, r3, lsr #31
    5f80:	1a000010 	bne	5fc8 <stbtt__get_subrs+0x118>
    5f84:	e1a00004 	mov	r0, r4
    5f88:	e1a01005 	mov	r1, r5
    5f8c:	e58d3008 	str	r3, [sp, #8]
    5f90:	ebfffee0 	bl	5b18 <stbtt__cff_get_index>
    5f94:	e1a00004 	mov	r0, r4
    5f98:	e28dd028 	add	sp, sp, #40	; 0x28
    5f9c:	e8bd8070 	pop	{r4, r5, r6, pc}
    5fa0:	e3a03000 	mov	r3, #0
    5fa4:	e1a00004 	mov	r0, r4
    5fa8:	e5843000 	str	r3, [r4]
    5fac:	e5843004 	str	r3, [r4, #4]
    5fb0:	e5843008 	str	r3, [r4, #8]
    5fb4:	e28dd028 	add	sp, sp, #40	; 0x28
    5fb8:	e8bd8070 	pop	{r4, r5, r6, pc}
    5fbc:	e59d0004 	ldr	r0, [sp, #4]
    5fc0:	e0800003 	add	r0, r0, r3
    5fc4:	eaffffda 	b	5f34 <stbtt__get_subrs+0x84>
    5fc8:	ebfffffe 	bl	0 <stbtt__isfont>

00005fcc <stbtt_InitFont_internal>:
    5fcc:	e92d4ff0 	push	{r4, r5, r6, r7, r8, r9, sl, fp, lr}
    5fd0:	e1a04000 	mov	r4, r0
    5fd4:	e1a05001 	mov	r5, r1
    5fd8:	e3a03000 	mov	r3, #0
    5fdc:	e24dd064 	sub	sp, sp, #100	; 0x64
    5fe0:	e5803038 	str	r3, [r0, #56]	; 0x38
    5fe4:	e580303c 	str	r3, [r0, #60]	; 0x3c
    5fe8:	e1a06002 	mov	r6, r2
    5fec:	e9800006 	stmib	r0, {r1, r2}
    5ff0:	e1a01002 	mov	r1, r2
    5ff4:	e5843040 	str	r3, [r4, #64]	; 0x40
    5ff8:	e1a00005 	mov	r0, r5
    5ffc:	e3002000 	movw	r2, #0
    6000:	e3402000 	movt	r2, #0
    6004:	ebffe837 	bl	e8 <stbtt__find_table>
    6008:	e1a01006 	mov	r1, r6
    600c:	e3002000 	movw	r2, #0
    6010:	e3402000 	movt	r2, #0
    6014:	e1a08000 	mov	r8, r0
    6018:	e1a00005 	mov	r0, r5
    601c:	ebffe831 	bl	e8 <stbtt__find_table>
    6020:	e1a01006 	mov	r1, r6
    6024:	e3002000 	movw	r2, #0
    6028:	e3402000 	movt	r2, #0
    602c:	e5840010 	str	r0, [r4, #16]
    6030:	e1a0b000 	mov	fp, r0
    6034:	e1a00005 	mov	r0, r5
    6038:	ebffe82a 	bl	e8 <stbtt__find_table>
    603c:	e1a01006 	mov	r1, r6
    6040:	e3002000 	movw	r2, #0
    6044:	e3402000 	movt	r2, #0
    6048:	e5840014 	str	r0, [r4, #20]
    604c:	e58d0014 	str	r0, [sp, #20]
    6050:	e1a00005 	mov	r0, r5
    6054:	ebffe823 	bl	e8 <stbtt__find_table>
    6058:	e1a01006 	mov	r1, r6
    605c:	e3002000 	movw	r2, #0
    6060:	e3402000 	movt	r2, #0
    6064:	e5840018 	str	r0, [r4, #24]
    6068:	e1a07000 	mov	r7, r0
    606c:	e1a00005 	mov	r0, r5
    6070:	ebffe81c 	bl	e8 <stbtt__find_table>
    6074:	e1a01006 	mov	r1, r6
    6078:	e3002000 	movw	r2, #0
    607c:	e3402000 	movt	r2, #0
    6080:	e1a0a000 	mov	sl, r0
    6084:	e584001c 	str	r0, [r4, #28]
    6088:	e1a00005 	mov	r0, r5
    608c:	ebffe815 	bl	e8 <stbtt__find_table>
    6090:	e1a01006 	mov	r1, r6
    6094:	e3002000 	movw	r2, #0
    6098:	e3402000 	movt	r2, #0
    609c:	e1a09000 	mov	r9, r0
    60a0:	e5840020 	str	r0, [r4, #32]
    60a4:	e1a00005 	mov	r0, r5
    60a8:	ebffe80e 	bl	e8 <stbtt__find_table>
    60ac:	e1a01006 	mov	r1, r6
    60b0:	e3002000 	movw	r2, #0
    60b4:	e3402000 	movt	r2, #0
    60b8:	e5840024 	str	r0, [r4, #36]	; 0x24
    60bc:	e1a00005 	mov	r0, r5
    60c0:	ebffe808 	bl	e8 <stbtt__find_table>
    60c4:	e59d3014 	ldr	r3, [sp, #20]
    60c8:	e35a0000 	cmp	sl, #0
    60cc:	e16f3f13 	clz	r3, r3
    60d0:	e1a032a3 	lsr	r3, r3, #5
    60d4:	03a03001 	moveq	r3, #1
    60d8:	e3580000 	cmp	r8, #0
    60dc:	03a03001 	moveq	r3, #1
    60e0:	e3590000 	cmp	r9, #0
    60e4:	11a09003 	movne	r9, r3
    60e8:	03a09001 	moveq	r9, #1
    60ec:	e3590000 	cmp	r9, #0
    60f0:	e5840028 	str	r0, [r4, #40]	; 0x28
    60f4:	0a000003 	beq	6108 <stbtt_InitFont_internal+0x13c>
    60f8:	e3a07000 	mov	r7, #0
    60fc:	e1a00007 	mov	r0, r7
    6100:	e28dd064 	add	sp, sp, #100	; 0x64
    6104:	e8bd8ff0 	pop	{r4, r5, r6, r7, r8, r9, sl, fp, pc}
    6108:	e3570000 	cmp	r7, #0
    610c:	1a0000cc 	bne	6444 <stbtt_InitFont_internal+0x478>
    6110:	e3002000 	movw	r2, #0
    6114:	e1a01006 	mov	r1, r6
    6118:	e3402000 	movt	r2, #0
    611c:	e1a00005 	mov	r0, r5
    6120:	e3a03002 	mov	r3, #2
    6124:	e58d7030 	str	r7, [sp, #48]	; 0x30
    6128:	e58d7034 	str	r7, [sp, #52]	; 0x34
    612c:	e58d7038 	str	r7, [sp, #56]	; 0x38
    6130:	e58d302c 	str	r3, [sp, #44]	; 0x2c
    6134:	ebffe7eb 	bl	e8 <stbtt__find_table>
    6138:	e3500000 	cmp	r0, #0
    613c:	0affffee 	beq	60fc <stbtt_InitFont_internal+0x130>
    6140:	e2843038 	add	r3, r4, #56	; 0x38
    6144:	e085c000 	add	ip, r5, r0
    6148:	e3a02202 	mov	r2, #536870912	; 0x20000000
    614c:	e5847068 	str	r7, [r4, #104]	; 0x68
    6150:	e584c038 	str	ip, [r4, #56]	; 0x38
    6154:	e28db03c 	add	fp, sp, #60	; 0x3c
    6158:	e584706c 	str	r7, [r4, #108]	; 0x6c
    615c:	e5847070 	str	r7, [r4, #112]	; 0x70
    6160:	e5847074 	str	r7, [r4, #116]	; 0x74
    6164:	e5847078 	str	r7, [r4, #120]	; 0x78
    6168:	e584707c 	str	r7, [r4, #124]	; 0x7c
    616c:	e5842040 	str	r2, [r4, #64]	; 0x40
    6170:	e8930007 	ldm	r3, {r0, r1, r2}
    6174:	e88b0007 	stm	fp, {r0, r1, r2}
    6178:	e59d3044 	ldr	r3, [sp, #68]	; 0x44
    617c:	e3530001 	cmp	r3, #1
    6180:	da0000c1 	ble	648c <stbtt_InitFont_internal+0x4c0>
    6184:	e3530002 	cmp	r3, #2
    6188:	0a0000bd 	beq	6484 <stbtt_InitFont_internal+0x4b8>
    618c:	e5dc2002 	ldrb	r2, [ip, #2]
    6190:	e3a01003 	mov	r1, #3
    6194:	e58d1040 	str	r1, [sp, #64]	; 0x40
    6198:	e1520003 	cmp	r2, r3
