In archive libopenjp2.a:

bio.o:     file format elf32-littlearm


Disassembly of section .text:

00000000 <opj_bio_create>:
   0:	e3a00014 	mov	r0, #20
   4:	eafffffe 	b	0 <opj_malloc>

00000008 <opj_bio_destroy>:
   8:	e3500000 	cmp	r0, #0
   c:	012fff1e 	bxeq	lr
  10:	eafffffe 	b	0 <opj_free>

00000014 <opj_bio_numbytes>:
  14:	e5902008 	ldr	r2, [r0, #8]
  18:	e5900000 	ldr	r0, [r0]
  1c:	e0420000 	sub	r0, r2, r0
  20:	e12fff1e 	bx	lr

00000024 <opj_bio_init_enc>:
  24:	e0812002 	add	r2, r1, r2
  28:	e3a0c000 	mov	ip, #0
  2c:	e3a03008 	mov	r3, #8
  30:	e8800006 	stm	r0, {r1, r2}
  34:	e5801008 	str	r1, [r0, #8]
  38:	e580c00c 	str	ip, [r0, #12]
  3c:	e5803010 	str	r3, [r0, #16]
  40:	e12fff1e 	bx	lr

00000044 <opj_bio_init_dec>:
  44:	e0812002 	add	r2, r1, r2
  48:	e3a03000 	mov	r3, #0
  4c:	e8800006 	stm	r0, {r1, r2}
  50:	e5801008 	str	r1, [r0, #8]
  54:	e580300c 	str	r3, [r0, #12]
  58:	e5803010 	str	r3, [r0, #16]
  5c:	e12fff1e 	bx	lr

00000060 <opj_bio_write>:
  60:	e2422001 	sub	r2, r2, #1
  64:	e352001f 	cmp	r2, #31
  68:	e92d4070 	push	{r4, r5, r6, lr}
  6c:	8a000020 	bhi	f4 <opj_bio_write+0x94>
  70:	e590e010 	ldr	lr, [r0, #16]
  74:	e590300c 	ldr	r3, [r0, #12]
  78:	e1a0c231 	lsr	ip, r1, r2
  7c:	e35e0000 	cmp	lr, #0
  80:	e20cc001 	and	ip, ip, #1
  84:	1a000012 	bne	d4 <opj_bio_write+0x74>
  88:	e1a03403 	lsl	r3, r3, #8
  8c:	e5904008 	ldr	r4, [r0, #8]
  90:	e6ff3073 	uxth	r3, r3
  94:	e5906004 	ldr	r6, [r0, #4]
  98:	e3530cff 	cmp	r3, #65280	; 0xff00
  9c:	03a05007 	moveq	r5, #7
  a0:	13a05008 	movne	r5, #8
  a4:	03a0e006 	moveq	lr, #6
  a8:	13a0e007 	movne	lr, #7
  ac:	e1540006 	cmp	r4, r6
  b0:	e580300c 	str	r3, [r0, #12]
  b4:	e5805010 	str	r5, [r0, #16]
  b8:	2a000006 	bcs	d8 <opj_bio_write+0x78>
  bc:	e1a03423 	lsr	r3, r3, #8
  c0:	e284e001 	add	lr, r4, #1
  c4:	e580e008 	str	lr, [r0, #8]
  c8:	e5c43000 	strb	r3, [r4]
  cc:	e590e010 	ldr	lr, [r0, #16]
  d0:	e590300c 	ldr	r3, [r0, #12]
  d4:	e24ee001 	sub	lr, lr, #1
  d8:	e1833e1c 	orr	r3, r3, ip, lsl lr
  dc:	e2422001 	sub	r2, r2, #1
  e0:	e3720001 	cmn	r2, #1
  e4:	e580300c 	str	r3, [r0, #12]
  e8:	e580e010 	str	lr, [r0, #16]
  ec:	1affffe1 	bne	78 <opj_bio_write+0x18>
  f0:	e8bd8070 	pop	{r4, r5, r6, pc}
  f4:	e59f300c 	ldr	r3, [pc, #12]	; 108 <opj_bio_write+0xa8>
  f8:	e59f200c 	ldr	r2, [pc, #12]	; 10c <opj_bio_write+0xac>
  fc:	e3a010a9 	mov	r1, #169	; 0xa9
 100:	e59f0008 	ldr	r0, [pc, #8]	; 110 <opj_bio_write+0xb0>
 104:	ebfffffe 	bl	0 <__assert_func>
	...
 110:	00000018 	.word	0x00000018

00000114 <opj_bio_read>:
 114:	e3510000 	cmp	r1, #0
 118:	e92d4070 	push	{r4, r5, r6, lr}
 11c:	0a000023 	beq	1b0 <opj_bio_read+0x9c>
 120:	e2511001 	subs	r1, r1, #1
 124:	4a00001e 	bmi	1a4 <opj_bio_read+0x90>
 128:	e5902010 	ldr	r2, [r0, #16]
 12c:	e590300c 	ldr	r3, [r0, #12]
 130:	e3a0e000 	mov	lr, #0
 134:	e3520000 	cmp	r2, #0
 138:	12422001 	subne	r2, r2, #1
 13c:	1a000010 	bne	184 <opj_bio_read+0x70>
 140:	e1a03403 	lsl	r3, r3, #8
 144:	e590c008 	ldr	ip, [r0, #8]
 148:	e6ff3073 	uxth	r3, r3
 14c:	e5905004 	ldr	r5, [r0, #4]
 150:	e3530cff 	cmp	r3, #65280	; 0xff00
 154:	03a04007 	moveq	r4, #7
 158:	13a04008 	movne	r4, #8
 15c:	03a02006 	moveq	r2, #6
 160:	13a02007 	movne	r2, #7
 164:	e15c0005 	cmp	ip, r5
 168:	e5804010 	str	r4, [r0, #16]
 16c:	328c4001 	addcc	r4, ip, #1
 170:	e580300c 	str	r3, [r0, #12]
 174:	35804008 	strcc	r4, [r0, #8]
 178:	35dcc000 	ldrbcc	ip, [ip]
 17c:	3183300c 	orrcc	r3, r3, ip
 180:	3580300c 	strcc	r3, [r0, #12]
 184:	e1a0c233 	lsr	ip, r3, r2
 188:	e20cc001 	and	ip, ip, #1
 18c:	e5802010 	str	r2, [r0, #16]
 190:	e18ee11c 	orr	lr, lr, ip, lsl r1
 194:	e2511001 	subs	r1, r1, #1
 198:	2affffe5 	bcs	134 <opj_bio_read+0x20>
 19c:	e1a0000e 	mov	r0, lr
 1a0:	e8bd8070 	pop	{r4, r5, r6, pc}
 1a4:	e3a0e000 	mov	lr, #0
 1a8:	e1a0000e 	mov	r0, lr
 1ac:	e8bd8070 	pop	{r4, r5, r6, pc}
 1b0:	e59f300c 	ldr	r3, [pc, #12]	; 1c4 <opj_bio_read+0xb0>
 1b4:	e59f200c 	ldr	r2, [pc, #12]	; 1c8 <opj_bio_read+0xb4>
 1b8:	e3a010b4 	mov	r1, #180	; 0xb4
 1bc:	e59f0008 	ldr	r0, [pc, #8]	; 1cc <opj_bio_read+0xb8>
 1c0:	ebfffffe 	bl	0 <__assert_func>
 1c4:	00000020 	.word	0x00000020
 1c8:	00000010 	.word	0x00000010
 1cc:	00000018 	.word	0x00000018

000001d0 <opj_bio_flush>:
 1d0:	e1c020d8 	ldrd	r2, [r0, #8]
 1d4:	e590c004 	ldr	ip, [r0, #4]
 1d8:	e1a03403 	lsl	r3, r3, #8
 1dc:	e6ff3073 	uxth	r3, r3
 1e0:	e3530cff 	cmp	r3, #65280	; 0xff00
 1e4:	03a01007 	moveq	r1, #7
 1e8:	13a01008 	movne	r1, #8
 1ec:	e152000c 	cmp	r2, ip
 1f0:	e580300c 	str	r3, [r0, #12]
 1f4:	e5801010 	str	r1, [r0, #16]
 1f8:	2a000019 	bcs	264 <opj_bio_flush+0x94>
 1fc:	e2821001 	add	r1, r2, #1
 200:	e1a03423 	lsr	r3, r3, #8
 204:	e5801008 	str	r1, [r0, #8]
 208:	e5c23000 	strb	r3, [r2]
 20c:	e5902010 	ldr	r2, [r0, #16]
 210:	e3520007 	cmp	r2, #7
 214:	0a000001 	beq	220 <opj_bio_flush+0x50>
 218:	e3a00001 	mov	r0, #1
 21c:	e12fff1e 	bx	lr
 220:	e590300c 	ldr	r3, [r0, #12]
 224:	e5901008 	ldr	r1, [r0, #8]
 228:	e590c004 	ldr	ip, [r0, #4]
 22c:	e1a03403 	lsl	r3, r3, #8
 230:	e6ff3073 	uxth	r3, r3
 234:	e3530cff 	cmp	r3, #65280	; 0xff00
 238:	13a02008 	movne	r2, #8
 23c:	e151000c 	cmp	r1, ip
 240:	e5802010 	str	r2, [r0, #16]
 244:	e580300c 	str	r3, [r0, #12]
 248:	2a000005 	bcs	264 <opj_bio_flush+0x94>
 24c:	e1a03423 	lsr	r3, r3, #8
 250:	e2812001 	add	r2, r1, #1
 254:	e5802008 	str	r2, [r0, #8]
 258:	e3a00001 	mov	r0, #1
 25c:	e5c13000 	strb	r3, [r1]
 260:	e12fff1e 	bx	lr
 264:	e3a00000 	mov	r0, #0
 268:	e12fff1e 	bx	lr

0000026c <opj_bio_inalign>:
 26c:	e590300c 	ldr	r3, [r0, #12]
 270:	e6ef2073 	uxtb	r2, r3
 274:	e35200ff 	cmp	r2, #255	; 0xff
 278:	0a000003 	beq	28c <opj_bio_inalign+0x20>
 27c:	e3a03000 	mov	r3, #0
 280:	e5803010 	str	r3, [r0, #16]
 284:	e3a00001 	mov	r0, #1
 288:	e12fff1e 	bx	lr
 28c:	e1a03403 	lsl	r3, r3, #8
 290:	e5902008 	ldr	r2, [r0, #8]
 294:	e6ff3073 	uxth	r3, r3
 298:	e590c004 	ldr	ip, [r0, #4]
 29c:	e3530cff 	cmp	r3, #65280	; 0xff00
 2a0:	03a01007 	moveq	r1, #7
 2a4:	13a01008 	movne	r1, #8
 2a8:	e152000c 	cmp	r2, ip
 2ac:	e580300c 	str	r3, [r0, #12]
 2b0:	e5801010 	str	r1, [r0, #16]
 2b4:	2a000005 	bcs	2d0 <opj_bio_inalign+0x64>
 2b8:	e2821001 	add	r1, r2, #1
 2bc:	e5801008 	str	r1, [r0, #8]
 2c0:	e5d22000 	ldrb	r2, [r2]
 2c4:	e1823003 	orr	r3, r2, r3
 2c8:	e580300c 	str	r3, [r0, #12]
 2cc:	eaffffea 	b	27c <opj_bio_inalign+0x10>
 2d0:	e3a00000 	mov	r0, #0
 2d4:	e12fff1e 	bx	lr

cio.o:     file format elf32-littlearm


Disassembly of section .text:

00000000 <opj_stream_read_seek>:
   0:	e92d40d0 	push	{r4, r6, r7, lr}
   4:	e1a06002 	mov	r6, r2
   8:	e5902020 	ldr	r2, [r0, #32]
   c:	e1a07003 	mov	r7, r3
  10:	e3a03000 	mov	r3, #0
  14:	e1a04000 	mov	r4, r0
  18:	e5802024 	str	r2, [r0, #36]	; 0x24
  1c:	e5803030 	str	r3, [r0, #48]	; 0x30
  20:	e5902000 	ldr	r2, [r0]
  24:	e590301c 	ldr	r3, [r0, #28]
  28:	e1a01007 	mov	r1, r7
  2c:	e1a00006 	mov	r0, r6
  30:	e12fff33 	blx	r3
  34:	e5943044 	ldr	r3, [r4, #68]	; 0x44
  38:	e3500000 	cmp	r0, #0
  3c:	03833004 	orreq	r3, r3, #4
  40:	13c33004 	bicne	r3, r3, #4
  44:	13a00001 	movne	r0, #1
  48:	11c463f8 	strdne	r6, [r4, #56]	; 0x38
  4c:	e5843044 	str	r3, [r4, #68]	; 0x44
  50:	e8bd80d0 	pop	{r4, r6, r7, pc}

00000054 <opj_stream_default_read>:
  54:	e3e00000 	mvn	r0, #0
  58:	e12fff1e 	bx	lr

0000005c <opj_stream_default_skip>:
  5c:	e3e00000 	mvn	r0, #0
  60:	e3e01000 	mvn	r1, #0
  64:	e12fff1e 	bx	lr

00000068 <opj_stream_default_seek>:
  68:	e3a00000 	mov	r0, #0
  6c:	e12fff1e 	bx	lr

00000070 <opj_stream_read_skip>:
  70:	e3520000 	cmp	r2, #0
  74:	e92d47f0 	push	{r4, r5, r6, r7, r8, r9, sl, lr}
  78:	e1a05003 	mov	r5, r3
  7c:	e2d33000 	sbcs	r3, r3, #0
  80:	e24dd008 	sub	sp, sp, #8
  84:	ba000097 	blt	2e8 <opj_stream_read_skip+0x278>
  88:	e5903030 	ldr	r3, [r0, #48]	; 0x30
  8c:	e1a0a000 	mov	sl, r0
  90:	e1530002 	cmp	r3, r2
  94:	e1a04002 	mov	r4, r2
  98:	e5900038 	ldr	r0, [r0, #56]	; 0x38
  9c:	e59a103c 	ldr	r1, [sl, #60]	; 0x3c
  a0:	2a00005c 	bcs	218 <opj_stream_read_skip+0x1a8>
  a4:	e59a2044 	ldr	r2, [sl, #68]	; 0x44
  a8:	e2122004 	ands	r2, r2, #4
  ac:	1a000047 	bne	1d0 <opj_stream_read_skip+0x160>
  b0:	e3530000 	cmp	r3, #0
  b4:	03a06000 	moveq	r6, #0
  b8:	03a07000 	moveq	r7, #0
  bc:	0a000006 	beq	dc <opj_stream_read_skip+0x6c>
  c0:	e1a06003 	mov	r6, r3
  c4:	e3a07000 	mov	r7, #0
  c8:	e0544006 	subs	r4, r4, r6
  cc:	e59a3020 	ldr	r3, [sl, #32]
  d0:	e0c55007 	sbc	r5, r5, r7
  d4:	e58a2030 	str	r2, [sl, #48]	; 0x30
  d8:	e58a3024 	str	r3, [sl, #36]	; 0x24
  dc:	e0960000 	adds	r0, r6, r0
  e0:	e0a71001 	adc	r1, r7, r1
  e4:	e3540001 	cmp	r4, #1
  e8:	e2d53000 	sbcs	r3, r5, #0
  ec:	ba000058 	blt	254 <opj_stream_read_skip+0x1e4>
  f0:	e0900004 	adds	r0, r0, r4
  f4:	e0a11005 	adc	r1, r1, r5
  f8:	e58d0000 	str	r0, [sp]
  fc:	e58d1004 	str	r1, [sp, #4]
 100:	e1ca20d8 	ldrd	r2, [sl, #8]
 104:	e1cd00d0 	ldrd	r0, [sp]
 108:	e1510003 	cmp	r1, r3
 10c:	01500002 	cmpeq	r0, r2
 110:	9a000011 	bls	15c <opj_stream_read_skip+0xec>
 114:	ea000053 	b	268 <opj_stream_read_skip+0x1f8>
 118:	e0544000 	subs	r4, r4, r0
 11c:	e0c55001 	sbc	r5, r5, r1
 120:	e59a3038 	ldr	r3, [sl, #56]	; 0x38
 124:	e0966000 	adds	r6, r6, r0
 128:	e0a77001 	adc	r7, r7, r1
 12c:	e59a103c 	ldr	r1, [sl, #60]	; 0x3c
 130:	e0963003 	adds	r3, r6, r3
 134:	e0a71001 	adc	r1, r7, r1
 138:	e3540001 	cmp	r4, #1
 13c:	e2d52000 	sbcs	r2, r5, #0
 140:	ba000042 	blt	250 <opj_stream_read_skip+0x1e0>
 144:	e0948003 	adds	r8, r4, r3
 148:	e1ca20d8 	ldrd	r2, [sl, #8]
 14c:	e0a59001 	adc	r9, r5, r1
 150:	e1590003 	cmp	r9, r3
 154:	01580002 	cmpeq	r8, r2
 158:	8a000042 	bhi	268 <opj_stream_read_skip+0x1f8>
 15c:	e59a3018 	ldr	r3, [sl, #24]
 160:	e59a2000 	ldr	r2, [sl]
 164:	e1a00004 	mov	r0, r4
 168:	e1a01005 	mov	r1, r5
 16c:	e12fff33 	blx	r3
 170:	e3e03000 	mvn	r3, #0
 174:	e3e02000 	mvn	r2, #0
 178:	e1510003 	cmp	r1, r3
 17c:	01500002 	cmpeq	r0, r2
 180:	1affffe4 	bne	118 <opj_stream_read_skip+0xa8>
 184:	e59f2170 	ldr	r2, [pc, #368]	; 2fc <opj_stream_read_skip+0x28c>
 188:	e3a01004 	mov	r1, #4
 18c:	e59d0028 	ldr	r0, [sp, #40]	; 0x28
 190:	ebfffffe 	bl	0 <opj_event_msg>
 194:	e59a3038 	ldr	r3, [sl, #56]	; 0x38
 198:	e59a103c 	ldr	r1, [sl, #60]	; 0x3c
 19c:	e59a2044 	ldr	r2, [sl, #68]	; 0x44
 1a0:	e0933006 	adds	r3, r3, r6
 1a4:	e0a11007 	adc	r1, r1, r7
 1a8:	e3822004 	orr	r2, r2, #4
 1ac:	e1960007 	orrs	r0, r6, r7
 1b0:	e58a3038 	str	r3, [sl, #56]	; 0x38
 1b4:	e58a103c 	str	r1, [sl, #60]	; 0x3c
 1b8:	e58a2044 	str	r2, [sl, #68]	; 0x44
 1bc:	0a00000f 	beq	200 <opj_stream_read_skip+0x190>
 1c0:	e1a00006 	mov	r0, r6
 1c4:	e1a01007 	mov	r1, r7
 1c8:	e28dd008 	add	sp, sp, #8
 1cc:	e8bd87f0 	pop	{r4, r5, r6, r7, r8, r9, sl, pc}
 1d0:	e0930000 	adds	r0, r3, r0
 1d4:	e59a2024 	ldr	r2, [sl, #36]	; 0x24
 1d8:	e3a07000 	mov	r7, #0
 1dc:	e0a71001 	adc	r1, r7, r1
 1e0:	e0822003 	add	r2, r2, r3
 1e4:	e1a06003 	mov	r6, r3
 1e8:	e3530000 	cmp	r3, #0
 1ec:	e3a03000 	mov	r3, #0
 1f0:	e1ca03f8 	strd	r0, [sl, #56]	; 0x38
 1f4:	e58a2024 	str	r2, [sl, #36]	; 0x24
 1f8:	e58a3030 	str	r3, [sl, #48]	; 0x30
 1fc:	1affffef 	bne	1c0 <opj_stream_read_skip+0x150>
 200:	e3e06000 	mvn	r6, #0
 204:	e3e07000 	mvn	r7, #0
 208:	e1a00006 	mov	r0, r6
 20c:	e1a01007 	mov	r1, r7
 210:	e28dd008 	add	sp, sp, #8
 214:	e8bd87f0 	pop	{r4, r5, r6, r7, r8, r9, sl, pc}
 218:	e0940000 	adds	r0, r4, r0
 21c:	e59a2024 	ldr	r2, [sl, #36]	; 0x24
 220:	e0a51001 	adc	r1, r5, r1
 224:	e0433004 	sub	r3, r3, r4
 228:	e0822004 	add	r2, r2, r4
 22c:	e1a06004 	mov	r6, r4
 230:	e1a07005 	mov	r7, r5
 234:	e1ca03f8 	strd	r0, [sl, #56]	; 0x38
 238:	e58a3030 	str	r3, [sl, #48]	; 0x30
 23c:	e1a00006 	mov	r0, r6
 240:	e1a01007 	mov	r1, r7
 244:	e58a2024 	str	r2, [sl, #36]	; 0x24
 248:	e28dd008 	add	sp, sp, #8
 24c:	e8bd87f0 	pop	{r4, r5, r6, r7, r8, r9, sl, pc}
 250:	e1a00003 	mov	r0, r3
 254:	e1ca03f8 	strd	r0, [sl, #56]	; 0x38
 258:	e1a00006 	mov	r0, r6
 25c:	e1a01007 	mov	r1, r7
 260:	e28dd008 	add	sp, sp, #8
 264:	e8bd87f0 	pop	{r4, r5, r6, r7, r8, r9, sl, pc}
 268:	e59f208c 	ldr	r2, [pc, #140]	; 2fc <opj_stream_read_skip+0x28c>
 26c:	e3a01004 	mov	r1, #4
 270:	e59d0028 	ldr	r0, [sp, #40]	; 0x28
 274:	ebfffffe 	bl	0 <opj_event_msg>
 278:	e59a3038 	ldr	r3, [sl, #56]	; 0x38
 27c:	e1ca40d8 	ldrd	r4, [sl, #8]
 280:	e59ac03c 	ldr	ip, [sl, #60]	; 0x3c
 284:	e0963003 	adds	r3, r6, r3
 288:	e59a1020 	ldr	r1, [sl, #32]
 28c:	e0a7c00c 	adc	ip, r7, ip
 290:	e3a02000 	mov	r2, #0
 294:	e0546003 	subs	r6, r4, r3
 298:	e58a3038 	str	r3, [sl, #56]	; 0x38
 29c:	e58a1024 	str	r1, [sl, #36]	; 0x24
 2a0:	e58a2030 	str	r2, [sl, #48]	; 0x30
 2a4:	e59a301c 	ldr	r3, [sl, #28]
 2a8:	e59a2000 	ldr	r2, [sl]
 2ac:	e58ac03c 	str	ip, [sl, #60]	; 0x3c
 2b0:	e1a00004 	mov	r0, r4
 2b4:	e1a01005 	mov	r1, r5
 2b8:	e0c5700c 	sbc	r7, r5, ip
 2bc:	e12fff33 	blx	r3
 2c0:	e59a3044 	ldr	r3, [sl, #68]	; 0x44
 2c4:	e3500000 	cmp	r0, #0
 2c8:	03833004 	orreq	r3, r3, #4
 2cc:	13833004 	orrne	r3, r3, #4
 2d0:	158a4038 	strne	r4, [sl, #56]	; 0x38
 2d4:	158a503c 	strne	r5, [sl, #60]	; 0x3c
 2d8:	e1962007 	orrs	r2, r6, r7
 2dc:	e58a3044 	str	r3, [sl, #68]	; 0x44
 2e0:	1affffb6 	bne	1c0 <opj_stream_read_skip+0x150>
 2e4:	eaffffc5 	b	200 <opj_stream_read_skip+0x190>
 2e8:	e59f3010 	ldr	r3, [pc, #16]	; 300 <opj_stream_read_skip+0x290>
 2ec:	e59f2010 	ldr	r2, [pc, #16]	; 304 <opj_stream_read_skip+0x294>
 2f0:	e59f1010 	ldr	r1, [pc, #16]	; 308 <opj_stream_read_skip+0x298>
 2f4:	e59f0010 	ldr	r0, [pc, #16]	; 30c <opj_stream_read_skip+0x29c>
 2f8:	ebfffffe 	bl	0 <__assert_func>
 2fc:	00000014 	.word	0x00000014
	...
 308:	000001d5 	.word	0x000001d5
 30c:	0000000c 	.word	0x0000000c

00000310 <opj_stream_default_write>:
 310:	e3e00000 	mvn	r0, #0
 314:	e12fff1e 	bx	lr

00000318 <opj_stream_write_seek>:
 318:	e5901030 	ldr	r1, [r0, #48]	; 0x30
 31c:	e92d40d0 	push	{r4, r6, r7, lr}
 320:	e1a04000 	mov	r4, r0
 324:	e5900020 	ldr	r0, [r0, #32]
 328:	e3510000 	cmp	r1, #0
 32c:	e1a06002 	mov	r6, r2
 330:	e1a07003 	mov	r7, r3
 334:	e5840024 	str	r0, [r4, #36]	; 0x24
 338:	1a000008 	bne	360 <opj_stream_write_seek+0x48>
 33c:	ea000019 	b	3a8 <opj_stream_write_seek+0x90>
 340:	e5941030 	ldr	r1, [r4, #48]	; 0x30
 344:	e5943024 	ldr	r3, [r4, #36]	; 0x24
 348:	e0411000 	sub	r1, r1, r0
 34c:	e3510000 	cmp	r1, #0
 350:	e0830000 	add	r0, r3, r0
 354:	e5841030 	str	r1, [r4, #48]	; 0x30
 358:	e5840024 	str	r0, [r4, #36]	; 0x24
 35c:	0a000010 	beq	3a4 <opj_stream_write_seek+0x8c>
 360:	e5943014 	ldr	r3, [r4, #20]
 364:	e5942000 	ldr	r2, [r4]
 368:	e12fff33 	blx	r3
 36c:	e3700001 	cmn	r0, #1
 370:	1afffff2 	bne	340 <opj_stream_write_seek+0x28>
 374:	e5943044 	ldr	r3, [r4, #68]	; 0x44
 378:	e59f2064 	ldr	r2, [pc, #100]	; 3e4 <opj_stream_write_seek+0xcc>
 37c:	e3833008 	orr	r3, r3, #8
 380:	e5843044 	str	r3, [r4, #68]	; 0x44
 384:	e3a01004 	mov	r1, #4
 388:	e59d0010 	ldr	r0, [sp, #16]
 38c:	ebfffffe 	bl	0 <opj_event_msg>
 390:	e5943044 	ldr	r3, [r4, #68]	; 0x44
 394:	e3a00000 	mov	r0, #0
 398:	e3833008 	orr	r3, r3, #8
 39c:	e5843044 	str	r3, [r4, #68]	; 0x44
 3a0:	e8bd80d0 	pop	{r4, r6, r7, pc}
 3a4:	e5940020 	ldr	r0, [r4, #32]
 3a8:	e3a03000 	mov	r3, #0
 3ac:	e5840024 	str	r0, [r4, #36]	; 0x24
 3b0:	e5843030 	str	r3, [r4, #48]	; 0x30
 3b4:	e5942000 	ldr	r2, [r4]
 3b8:	e594301c 	ldr	r3, [r4, #28]
 3bc:	e1a00006 	mov	r0, r6
 3c0:	e1a01007 	mov	r1, r7
 3c4:	e12fff33 	blx	r3
 3c8:	e3500000 	cmp	r0, #0
 3cc:	13a00001 	movne	r0, #1
 3d0:	05943044 	ldreq	r3, [r4, #68]	; 0x44
 3d4:	11c463f8 	strdne	r6, [r4, #56]	; 0x38
 3d8:	03833008 	orreq	r3, r3, #8
 3dc:	05843044 	streq	r3, [r4, #68]	; 0x44
 3e0:	e8bd80d0 	pop	{r4, r6, r7, pc}
 3e4:	00000030 	.word	0x00000030

000003e8 <opj_stream_write_skip>:
 3e8:	e92d47f0 	push	{r4, r5, r6, r7, r8, r9, sl, lr}
 3ec:	e1a05003 	mov	r5, r3
 3f0:	e5903044 	ldr	r3, [r0, #68]	; 0x44
 3f4:	e3130008 	tst	r3, #8
 3f8:	1a00004d 	bne	534 <opj_stream_write_skip+0x14c>
 3fc:	e5901030 	ldr	r1, [r0, #48]	; 0x30
 400:	e1a0a000 	mov	sl, r0
 404:	e5900020 	ldr	r0, [r0, #32]
 408:	e3510000 	cmp	r1, #0
 40c:	e1a04002 	mov	r4, r2
 410:	e58a0024 	str	r0, [sl, #36]	; 0x24
 414:	1a000008 	bne	43c <opj_stream_write_skip+0x54>
 418:	ea00001e 	b	498 <opj_stream_write_skip+0xb0>
 41c:	e59a1030 	ldr	r1, [sl, #48]	; 0x30
 420:	e59a3024 	ldr	r3, [sl, #36]	; 0x24
 424:	e0411000 	sub	r1, r1, r0
 428:	e3510000 	cmp	r1, #0
 42c:	e0830000 	add	r0, r3, r0
 430:	e58a1030 	str	r1, [sl, #48]	; 0x30
 434:	e58a0024 	str	r0, [sl, #36]	; 0x24
 438:	0a000015 	beq	494 <opj_stream_write_skip+0xac>
 43c:	e59a3014 	ldr	r3, [sl, #20]
 440:	e59a2000 	ldr	r2, [sl]
 444:	e12fff33 	blx	r3
 448:	e3700001 	cmn	r0, #1
 44c:	1afffff2 	bne	41c <opj_stream_write_skip+0x34>
 450:	e59a3044 	ldr	r3, [sl, #68]	; 0x44
 454:	e59f2100 	ldr	r2, [pc, #256]	; 55c <opj_stream_write_skip+0x174>
 458:	e3833008 	orr	r3, r3, #8
 45c:	e58a3044 	str	r3, [sl, #68]	; 0x44
 460:	e3a01004 	mov	r1, #4
 464:	e59d0020 	ldr	r0, [sp, #32]
 468:	ebfffffe 	bl	0 <opj_event_msg>
 46c:	e59a3044 	ldr	r3, [sl, #68]	; 0x44
 470:	e3e06000 	mvn	r6, #0
 474:	e3e07000 	mvn	r7, #0
 478:	e3a02000 	mov	r2, #0
 47c:	e3833008 	orr	r3, r3, #8
 480:	e58a3044 	str	r3, [sl, #68]	; 0x44
 484:	e58a2030 	str	r2, [sl, #48]	; 0x30
 488:	e1a00006 	mov	r0, r6
 48c:	e1a01007 	mov	r1, r7
 490:	e8bd87f0 	pop	{r4, r5, r6, r7, r8, r9, sl, pc}
 494:	e59a0020 	ldr	r0, [sl, #32]
 498:	e3540001 	cmp	r4, #1
 49c:	e2d53000 	sbcs	r3, r5, #0
 4a0:	e58a0024 	str	r0, [sl, #36]	; 0x24
 4a4:	e3a06000 	mov	r6, #0
 4a8:	e3a07000 	mov	r7, #0
 4ac:	ba000023 	blt	540 <opj_stream_write_skip+0x158>
 4b0:	e3e08000 	mvn	r8, #0
 4b4:	e3e09000 	mvn	r9, #0
 4b8:	ea000006 	b	4d8 <opj_stream_write_skip+0xf0>
 4bc:	e0544000 	subs	r4, r4, r0
 4c0:	e0c55001 	sbc	r5, r5, r1
 4c4:	e0966000 	adds	r6, r6, r0
 4c8:	e0a77001 	adc	r7, r7, r1
 4cc:	e3540001 	cmp	r4, #1
 4d0:	e2d53000 	sbcs	r3, r5, #0
 4d4:	ba000019 	blt	540 <opj_stream_write_skip+0x158>
 4d8:	e59a3018 	ldr	r3, [sl, #24]
 4dc:	e59a2000 	ldr	r2, [sl]
 4e0:	e1a00004 	mov	r0, r4
 4e4:	e1a01005 	mov	r1, r5
 4e8:	e12fff33 	blx	r3
 4ec:	e1510009 	cmp	r1, r9
 4f0:	01500008 	cmpeq	r0, r8
 4f4:	1afffff0 	bne	4bc <opj_stream_write_skip+0xd4>
 4f8:	e59f2060 	ldr	r2, [pc, #96]	; 560 <opj_stream_write_skip+0x178>
 4fc:	e3a01004 	mov	r1, #4
 500:	e59d0020 	ldr	r0, [sp, #32]
 504:	ebfffffe 	bl	0 <opj_event_msg>
 508:	e59a3038 	ldr	r3, [sl, #56]	; 0x38
 50c:	e59a103c 	ldr	r1, [sl, #60]	; 0x3c
 510:	e59a2044 	ldr	r2, [sl, #68]	; 0x44
 514:	e0933006 	adds	r3, r3, r6
 518:	e0a11007 	adc	r1, r1, r7
 51c:	e3822008 	orr	r2, r2, #8
 520:	e1960007 	orrs	r0, r6, r7
 524:	e58a3038 	str	r3, [sl, #56]	; 0x38
 528:	e58a103c 	str	r1, [sl, #60]	; 0x3c
 52c:	e58a2044 	str	r2, [sl, #68]	; 0x44
 530:	1affffd4 	bne	488 <opj_stream_write_skip+0xa0>
 534:	e3e06000 	mvn	r6, #0
 538:	e3e07000 	mvn	r7, #0
 53c:	eaffffd1 	b	488 <opj_stream_write_skip+0xa0>
 540:	e59a3038 	ldr	r3, [sl, #56]	; 0x38
 544:	e59a203c 	ldr	r2, [sl, #60]	; 0x3c
 548:	e0933006 	adds	r3, r3, r6
 54c:	e0a22007 	adc	r2, r2, r7
 550:	e58a3038 	str	r3, [sl, #56]	; 0x38
 554:	e58a203c 	str	r2, [sl, #60]	; 0x3c
 558:	eaffffca 	b	488 <opj_stream_write_skip+0xa0>
 55c:	00000030 	.word	0x00000030
 560:	0000004c 	.word	0x0000004c

00000564 <opj_write_bytes_BE>:
 564:	e52de004 	push	{lr}		; (str lr, [sp, #-4]!)
 568:	e24dd00c 	sub	sp, sp, #12
 56c:	e242c001 	sub	ip, r2, #1
 570:	e58d1004 	str	r1, [sp, #4]
 574:	e35c0003 	cmp	ip, #3
 578:	e28d1008 	add	r1, sp, #8
 57c:	e0411002 	sub	r1, r1, r2
 580:	8a000002 	bhi	590 <opj_write_bytes_BE+0x2c>
 584:	ebfffffe 	bl	0 <memcpy>
 588:	e28dd00c 	add	sp, sp, #12
 58c:	e49df004 	pop	{pc}		; (ldr pc, [sp], #4)
 590:	e59f300c 	ldr	r3, [pc, #12]	; 5a4 <opj_write_bytes_BE+0x40>
 594:	e59f200c 	ldr	r2, [pc, #12]	; 5a8 <opj_write_bytes_BE+0x44>
 598:	e3a01035 	mov	r1, #53	; 0x35
 59c:	e59f0008 	ldr	r0, [pc, #8]	; 5ac <opj_write_bytes_BE+0x48>
 5a0:	ebfffffe 	bl	0 <__assert_func>
 5a4:	0000005c 	.word	0x0000005c
 5a8:	00000018 	.word	0x00000018
 5ac:	0000000c 	.word	0x0000000c

000005b0 <opj_write_bytes_LE>:
 5b0:	e52de004 	push	{lr}		; (str lr, [sp, #-4]!)
 5b4:	e2423001 	sub	r3, r2, #1
 5b8:	e24dd00c 	sub	sp, sp, #12
 5bc:	e28dc004 	add	ip, sp, #4
 5c0:	e3530003 	cmp	r3, #3
 5c4:	e58d1004 	str	r1, [sp, #4]
 5c8:	e08c1003 	add	r1, ip, r3
 5cc:	8a00000e 	bhi	60c <opj_write_bytes_LE+0x5c>
 5d0:	e7dc3003 	ldrb	r3, [ip, r3]
 5d4:	e3520001 	cmp	r2, #1
 5d8:	e5c03000 	strb	r3, [r0]
 5dc:	0a000008 	beq	604 <opj_write_bytes_LE+0x54>
 5e0:	e5513001 	ldrb	r3, [r1, #-1]
 5e4:	e3520002 	cmp	r2, #2
 5e8:	e5c03001 	strb	r3, [r0, #1]
 5ec:	0a000004 	beq	604 <opj_write_bytes_LE+0x54>
 5f0:	e5513002 	ldrb	r3, [r1, #-2]
 5f4:	e3520004 	cmp	r2, #4
 5f8:	e5c03002 	strb	r3, [r0, #2]
 5fc:	05513003 	ldrbeq	r3, [r1, #-3]
 600:	05c03003 	strbeq	r3, [r0, #3]
 604:	e28dd00c 	add	sp, sp, #12
 608:	e49df004 	pop	{pc}		; (ldr pc, [sp], #4)
 60c:	e59f300c 	ldr	r3, [pc, #12]	; 620 <opj_write_bytes_LE+0x70>
 610:	e59f200c 	ldr	r2, [pc, #12]	; 624 <opj_write_bytes_LE+0x74>
 614:	e3a01040 	mov	r1, #64	; 0x40
 618:	e59f0008 	ldr	r0, [pc, #8]	; 628 <opj_write_bytes_LE+0x78>
 61c:	ebfffffe 	bl	0 <__assert_func>
 620:	0000005c 	.word	0x0000005c
 624:	0000002c 	.word	0x0000002c
 628:	0000000c 	.word	0x0000000c

0000062c <opj_read_bytes_BE>:
 62c:	e242c001 	sub	ip, r2, #1
 630:	e35c0003 	cmp	ip, #3
 634:	e92d4010 	push	{r4, lr}
 638:	8a000008 	bhi	660 <opj_read_bytes_BE+0x34>
 63c:	e1a0c001 	mov	ip, r1
 640:	e1a0e000 	mov	lr, r0
 644:	e3a03000 	mov	r3, #0
 648:	e2620004 	rsb	r0, r2, #4
 64c:	e0810000 	add	r0, r1, r0
 650:	e58c3000 	str	r3, [ip]
 654:	e1a0100e 	mov	r1, lr
 658:	e8bd4010 	pop	{r4, lr}
 65c:	eafffffe 	b	0 <memcpy>
 660:	e59f300c 	ldr	r3, [pc, #12]	; 674 <opj_read_bytes_BE+0x48>
 664:	e59f200c 	ldr	r2, [pc, #12]	; 678 <opj_read_bytes_BE+0x4c>
 668:	e3a0104c 	mov	r1, #76	; 0x4c
 66c:	e59f0008 	ldr	r0, [pc, #8]	; 67c <opj_read_bytes_BE+0x50>
 670:	ebfffffe 	bl	0 <__assert_func>
 674:	0000005c 	.word	0x0000005c
 678:	00000040 	.word	0x00000040
 67c:	0000000c 	.word	0x0000000c

00000680 <opj_read_bytes_LE>:
 680:	e2423001 	sub	r3, r2, #1
 684:	e3530003 	cmp	r3, #3
 688:	e92d4010 	push	{r4, lr}
 68c:	e081c003 	add	ip, r1, r3
 690:	8a00000f 	bhi	6d4 <opj_read_bytes_LE+0x54>
 694:	e3a0e000 	mov	lr, #0
 698:	e581e000 	str	lr, [r1]
 69c:	e5d0e000 	ldrb	lr, [r0]
 6a0:	e3520001 	cmp	r2, #1
 6a4:	e7c1e003 	strb	lr, [r1, r3]
 6a8:	08bd8010 	popeq	{r4, pc}
 6ac:	e5d03001 	ldrb	r3, [r0, #1]
 6b0:	e3520002 	cmp	r2, #2
 6b4:	e54c3001 	strb	r3, [ip, #-1]
 6b8:	08bd8010 	popeq	{r4, pc}
 6bc:	e5d03002 	ldrb	r3, [r0, #2]
 6c0:	e3520004 	cmp	r2, #4
 6c4:	e54c3002 	strb	r3, [ip, #-2]
 6c8:	05d03003 	ldrbeq	r3, [r0, #3]
 6cc:	054c3003 	strbeq	r3, [ip, #-3]
 6d0:	e8bd8010 	pop	{r4, pc}
 6d4:	e59f300c 	ldr	r3, [pc, #12]	; 6e8 <opj_read_bytes_LE+0x68>
 6d8:	e59f200c 	ldr	r2, [pc, #12]	; 6ec <opj_read_bytes_LE+0x6c>
 6dc:	e3a01058 	mov	r1, #88	; 0x58
 6e0:	e59f0008 	ldr	r0, [pc, #8]	; 6f0 <opj_read_bytes_LE+0x70>
 6e4:	ebfffffe 	bl	0 <__assert_func>
 6e8:	0000005c 	.word	0x0000005c
 6ec:	00000054 	.word	0x00000054
 6f0:	0000000c 	.word	0x0000000c

000006f4 <opj_write_double_BE>:
 6f4:	e24dd008 	sub	sp, sp, #8
 6f8:	e1a0300d 	mov	r3, sp
 6fc:	ed8d0b00 	vstr	d0, [sp]
 700:	e1a02000 	mov	r2, r0
 704:	e8b30003 	ldm	r3!, {r0, r1}
 708:	e5820000 	str	r0, [r2]
 70c:	e5821004 	str	r1, [r2, #4]
 710:	e28dd008 	add	sp, sp, #8
 714:	e12fff1e 	bx	lr

00000718 <opj_write_double_LE>:
 718:	e92d4010 	push	{r4, lr}
 71c:	e24dd008 	sub	sp, sp, #8
 720:	ed8d0b00 	vstr	d0, [sp]
 724:	e5dd2007 	ldrb	r2, [sp, #7]
 728:	e5dd3006 	ldrb	r3, [sp, #6]
 72c:	e5dd4005 	ldrb	r4, [sp, #5]
 730:	e5dde004 	ldrb	lr, [sp, #4]
 734:	e5ddc003 	ldrb	ip, [sp, #3]
 738:	e5dd1002 	ldrb	r1, [sp, #2]
 73c:	e5c02000 	strb	r2, [r0]
 740:	e5c03001 	strb	r3, [r0, #1]
 744:	e5dd2001 	ldrb	r2, [sp, #1]
 748:	e5dd3000 	ldrb	r3, [sp]
 74c:	e5c04002 	strb	r4, [r0, #2]
 750:	e5c0e003 	strb	lr, [r0, #3]
 754:	e5c0c004 	strb	ip, [r0, #4]
 758:	e5c01005 	strb	r1, [r0, #5]
 75c:	e5c02006 	strb	r2, [r0, #6]
 760:	e5c03007 	strb	r3, [r0, #7]
 764:	e28dd008 	add	sp, sp, #8
 768:	e8bd8010 	pop	{r4, pc}

0000076c <opj_read_double_BE>:
 76c:	e5902000 	ldr	r2, [r0]
 770:	e5903004 	ldr	r3, [r0, #4]
 774:	e5812000 	str	r2, [r1]
 778:	e5813004 	str	r3, [r1, #4]
 77c:	e12fff1e 	bx	lr

00000780 <opj_read_double_LE>:
 780:	e5d03000 	ldrb	r3, [r0]
 784:	e5c13007 	strb	r3, [r1, #7]
 788:	e5d03001 	ldrb	r3, [r0, #1]
 78c:	e5c13006 	strb	r3, [r1, #6]
 790:	e5d03002 	ldrb	r3, [r0, #2]
 794:	e5c13005 	strb	r3, [r1, #5]
 798:	e5d03003 	ldrb	r3, [r0, #3]
 79c:	e5c13004 	strb	r3, [r1, #4]
 7a0:	e5d03004 	ldrb	r3, [r0, #4]
 7a4:	e5c13003 	strb	r3, [r1, #3]
 7a8:	e5d03005 	ldrb	r3, [r0, #5]
 7ac:	e5c13002 	strb	r3, [r1, #2]
 7b0:	e5d03006 	ldrb	r3, [r0, #6]
 7b4:	e5c13001 	strb	r3, [r1, #1]
 7b8:	e5d03007 	ldrb	r3, [r0, #7]
 7bc:	e5c13000 	strb	r3, [r1]
 7c0:	e12fff1e 	bx	lr

000007c4 <opj_write_float_BE>:
 7c4:	ee103a10 	vmov	r3, s0
 7c8:	e5803000 	str	r3, [r0]
 7cc:	e12fff1e 	bx	lr

000007d0 <opj_write_float_LE>:
 7d0:	e24dd008 	sub	sp, sp, #8
 7d4:	ed8d0a01 	vstr	s0, [sp, #4]
 7d8:	e5ddc007 	ldrb	ip, [sp, #7]
 7dc:	e5dd1006 	ldrb	r1, [sp, #6]
 7e0:	e5dd2005 	ldrb	r2, [sp, #5]
 7e4:	e5dd3004 	ldrb	r3, [sp, #4]
 7e8:	e5c0c000 	strb	ip, [r0]
 7ec:	e5c01001 	strb	r1, [r0, #1]
 7f0:	e5c02002 	strb	r2, [r0, #2]
 7f4:	e5c03003 	strb	r3, [r0, #3]
 7f8:	e28dd008 	add	sp, sp, #8
 7fc:	e12fff1e 	bx	lr

00000800 <opj_read_float_BE>:
 800:	e5903000 	ldr	r3, [r0]
 804:	e5813000 	str	r3, [r1]
 808:	e12fff1e 	bx	lr

0000080c <opj_read_float_LE>:
 80c:	e5d03000 	ldrb	r3, [r0]
 810:	e5c13003 	strb	r3, [r1, #3]
 814:	e5d03001 	ldrb	r3, [r0, #1]
 818:	e5c13002 	strb	r3, [r1, #2]
 81c:	e5d03002 	ldrb	r3, [r0, #2]
 820:	e5c13001 	strb	r3, [r1, #1]
 824:	e5d03003 	ldrb	r3, [r0, #3]
 828:	e5c13000 	strb	r3, [r1]
 82c:	e12fff1e 	bx	lr

00000830 <opj_stream_create>:
 830:	e92d4070 	push	{r4, r5, r6, lr}
 834:	e1a05000 	mov	r5, r0
 838:	e1a06001 	mov	r6, r1
 83c:	e3a00001 	mov	r0, #1
 840:	e3a01048 	mov	r1, #72	; 0x48
 844:	ebfffffe 	bl	0 <opj_calloc>
 848:	e2504000 	subs	r4, r0, #0
 84c:	0a000018 	beq	8b4 <opj_stream_create+0x84>
 850:	e5845040 	str	r5, [r4, #64]	; 0x40
 854:	e1a00005 	mov	r0, r5
 858:	ebfffffe 	bl	0 <opj_malloc>
 85c:	e3500000 	cmp	r0, #0
 860:	e1a05000 	mov	r5, r0
 864:	e5840020 	str	r0, [r4, #32]
 868:	0a000013 	beq	8bc <opj_stream_create+0x8c>
 86c:	e3560000 	cmp	r6, #0
 870:	e5943044 	ldr	r3, [r4, #68]	; 0x44
 874:	159f1050 	ldrne	r1, [pc, #80]	; 8cc <opj_stream_create+0x9c>
 878:	159f2050 	ldrne	r2, [pc, #80]	; 8d0 <opj_stream_create+0xa0>
 87c:	059f1050 	ldreq	r1, [pc, #80]	; 8d4 <opj_stream_create+0xa4>
 880:	059f2050 	ldreq	r2, [pc, #80]	; 8d8 <opj_stream_create+0xa8>
 884:	13833002 	orrne	r3, r3, #2
 888:	03833001 	orreq	r3, r3, #1
 88c:	e5840024 	str	r0, [r4, #36]	; 0x24
 890:	e5843044 	str	r3, [r4, #68]	; 0x44
 894:	e5841028 	str	r1, [r4, #40]	; 0x28
 898:	e584202c 	str	r2, [r4, #44]	; 0x2c
 89c:	e59f0038 	ldr	r0, [pc, #56]	; 8dc <opj_stream_create+0xac>
 8a0:	e59f1038 	ldr	r1, [pc, #56]	; 8e0 <opj_stream_create+0xb0>
 8a4:	e59f2038 	ldr	r2, [pc, #56]	; 8e4 <opj_stream_create+0xb4>
 8a8:	e59f3038 	ldr	r3, [pc, #56]	; 8e8 <opj_stream_create+0xb8>
 8ac:	e1c401f0 	strd	r0, [r4, #16]
 8b0:	e1c421f8 	strd	r2, [r4, #24]
 8b4:	e1a00004 	mov	r0, r4
 8b8:	e8bd8070 	pop	{r4, r5, r6, pc}
 8bc:	e1a00004 	mov	r0, r4
 8c0:	ebfffffe 	bl	0 <opj_free>
 8c4:	e1a04005 	mov	r4, r5
 8c8:	eafffff9 	b	8b4 <opj_stream_create+0x84>
	...

000008ec <opj_stream_default_create>:
 8ec:	e92d4070 	push	{r4, r5, r6, lr}
 8f0:	e3a01048 	mov	r1, #72	; 0x48
 8f4:	e1a06000 	mov	r6, r0
 8f8:	e3a00001 	mov	r0, #1
 8fc:	ebfffffe 	bl	0 <opj_calloc>
 900:	e2504000 	subs	r4, r0, #0
 904:	0a000018 	beq	96c <opj_stream_default_create+0x80>
 908:	e3a00601 	mov	r0, #1048576	; 0x100000
 90c:	e5840040 	str	r0, [r4, #64]	; 0x40
 910:	ebfffffe 	bl	0 <opj_malloc>
 914:	e3500000 	cmp	r0, #0
 918:	e1a05000 	mov	r5, r0
 91c:	e5840020 	str	r0, [r4, #32]
 920:	0a000013 	beq	974 <opj_stream_default_create+0x88>
 924:	e3560000 	cmp	r6, #0
 928:	e5943044 	ldr	r3, [r4, #68]	; 0x44
 92c:	159f1050 	ldrne	r1, [pc, #80]	; 984 <opj_stream_default_create+0x98>
 930:	159f2050 	ldrne	r2, [pc, #80]	; 988 <opj_stream_default_create+0x9c>
 934:	059f1050 	ldreq	r1, [pc, #80]	; 98c <opj_stream_default_create+0xa0>
 938:	059f2050 	ldreq	r2, [pc, #80]	; 990 <opj_stream_default_create+0xa4>
 93c:	13833002 	orrne	r3, r3, #2
 940:	03833001 	orreq	r3, r3, #1
 944:	e5840024 	str	r0, [r4, #36]	; 0x24
 948:	e5843044 	str	r3, [r4, #68]	; 0x44
 94c:	e5841028 	str	r1, [r4, #40]	; 0x28
 950:	e584202c 	str	r2, [r4, #44]	; 0x2c
 954:	e59f0038 	ldr	r0, [pc, #56]	; 994 <opj_stream_default_create+0xa8>
 958:	e59f1038 	ldr	r1, [pc, #56]	; 998 <opj_stream_default_create+0xac>
 95c:	e59f2038 	ldr	r2, [pc, #56]	; 99c <opj_stream_default_create+0xb0>
 960:	e59f3038 	ldr	r3, [pc, #56]	; 9a0 <opj_stream_default_create+0xb4>
 964:	e1c401f0 	strd	r0, [r4, #16]
 968:	e1c421f8 	strd	r2, [r4, #24]
 96c:	e1a00004 	mov	r0, r4
 970:	e8bd8070 	pop	{r4, r5, r6, pc}
 974:	e1a00004 	mov	r0, r4
 978:	ebfffffe 	bl	0 <opj_free>
 97c:	e1a04005 	mov	r4, r5
 980:	eafffff9 	b	96c <opj_stream_default_create+0x80>
	...

000009a4 <opj_stream_destroy>:
 9a4:	e92d4010 	push	{r4, lr}
 9a8:	e2504000 	subs	r4, r0, #0
 9ac:	08bd8010 	popeq	{r4, pc}
 9b0:	e5943004 	ldr	r3, [r4, #4]
 9b4:	e3530000 	cmp	r3, #0
 9b8:	0a000001 	beq	9c4 <opj_stream_destroy+0x20>
 9bc:	e5940000 	ldr	r0, [r4]
 9c0:	e12fff33 	blx	r3
 9c4:	e5940020 	ldr	r0, [r4, #32]
 9c8:	ebfffffe 	bl	0 <opj_free>
 9cc:	e3a03000 	mov	r3, #0
 9d0:	e5843020 	str	r3, [r4, #32]
 9d4:	e1a00004 	mov	r0, r4
 9d8:	e8bd4010 	pop	{r4, lr}
 9dc:	eafffffe 	b	0 <opj_free>

000009e0 <opj_stream_set_read_function>:
 9e0:	e3500000 	cmp	r0, #0
 9e4:	012fff1e 	bxeq	lr
 9e8:	e5903044 	ldr	r3, [r0, #68]	; 0x44
 9ec:	e3130002 	tst	r3, #2
 9f0:	15801010 	strne	r1, [r0, #16]
 9f4:	e12fff1e 	bx	lr

000009f8 <opj_stream_set_seek_function>:
 9f8:	e3500000 	cmp	r0, #0
 9fc:	1580101c 	strne	r1, [r0, #28]
 a00:	e12fff1e 	bx	lr

00000a04 <opj_stream_set_write_function>:
 a04:	e3500000 	cmp	r0, #0
 a08:	012fff1e 	bxeq	lr
 a0c:	e5903044 	ldr	r3, [r0, #68]	; 0x44
 a10:	e3130001 	tst	r3, #1
 a14:	15801014 	strne	r1, [r0, #20]
 a18:	e12fff1e 	bx	lr

00000a1c <opj_stream_set_skip_function>:
 a1c:	e3500000 	cmp	r0, #0
 a20:	15801018 	strne	r1, [r0, #24]
 a24:	e12fff1e 	bx	lr

00000a28 <opj_stream_set_user_data>:
 a28:	e3500000 	cmp	r0, #0
 a2c:	18800006 	stmne	r0, {r1, r2}
 a30:	e12fff1e 	bx	lr

00000a34 <opj_stream_set_user_data_length>:
 a34:	e3500000 	cmp	r0, #0
 a38:	11c020f8 	strdne	r2, [r0, #8]
 a3c:	e12fff1e 	bx	lr

00000a40 <opj_stream_read_data>:
 a40:	e92d4ff8 	push	{r3, r4, r5, r6, r7, r8, r9, sl, fp, lr}
 a44:	e1a04000 	mov	r4, r0
 a48:	e5907030 	ldr	r7, [r0, #48]	; 0x30
 a4c:	e1a05002 	mov	r5, r2
 a50:	e1570002 	cmp	r7, r2
 a54:	e1a06001 	mov	r6, r1
 a58:	2a000068 	bcs	c00 <opj_stream_read_data+0x1c0>
 a5c:	e1a09003 	mov	r9, r3
 a60:	e5903044 	ldr	r3, [r0, #68]	; 0x44
 a64:	e2138004 	ands	r8, r3, #4
 a68:	1a000051 	bne	bb4 <opj_stream_read_data+0x174>
 a6c:	e3570000 	cmp	r7, #0
 a70:	1a000020 	bne	af8 <opj_stream_read_data+0xb8>
 a74:	e5900020 	ldr	r0, [r0, #32]
 a78:	e5840024 	str	r0, [r4, #36]	; 0x24
 a7c:	e3a08000 	mov	r8, #0
 a80:	e5943040 	ldr	r3, [r4, #64]	; 0x40
 a84:	e1a01005 	mov	r1, r5
 a88:	e1530005 	cmp	r3, r5
 a8c:	e594a010 	ldr	sl, [r4, #16]
 a90:	e5942000 	ldr	r2, [r4]
 a94:	9a000026 	bls	b34 <opj_stream_read_data+0xf4>
 a98:	e1a01003 	mov	r1, r3
 a9c:	e12fff3a 	blx	sl
 aa0:	e1a03000 	mov	r3, r0
 aa4:	e3730001 	cmn	r3, #1
 aa8:	e1a02000 	mov	r2, r0
 aac:	e5843030 	str	r3, [r4, #48]	; 0x30
 ab0:	e1a00006 	mov	r0, r6
 ab4:	0a000031 	beq	b80 <opj_stream_read_data+0x140>
 ab8:	e1530005 	cmp	r3, r5
 abc:	e5941024 	ldr	r1, [r4, #36]	; 0x24
 ac0:	2a000064 	bcs	c58 <opj_stream_read_data+0x218>
 ac4:	e0877003 	add	r7, r7, r3
 ac8:	ebfffffe 	bl	0 <memcpy>
 acc:	e1c423d8 	ldrd	r2, [r4, #56]	; 0x38
 ad0:	e5941030 	ldr	r1, [r4, #48]	; 0x30
 ad4:	e5940020 	ldr	r0, [r4, #32]
 ad8:	e092a001 	adds	sl, r2, r1
 adc:	e2a3b000 	adc	fp, r3, #0
 ae0:	e0866001 	add	r6, r6, r1
 ae4:	e1c4a3f8 	strd	sl, [r4, #56]	; 0x38
 ae8:	e0455001 	sub	r5, r5, r1
 aec:	e5848030 	str	r8, [r4, #48]	; 0x30
 af0:	e5840024 	str	r0, [r4, #36]	; 0x24
 af4:	eaffffe1 	b	a80 <opj_stream_read_data+0x40>
 af8:	e5901024 	ldr	r1, [r0, #36]	; 0x24
 afc:	e1a02007 	mov	r2, r7
 b00:	e1a00006 	mov	r0, r6
 b04:	ebfffffe 	bl	0 <memcpy>
 b08:	e1c423d8 	ldrd	r2, [r4, #56]	; 0x38
 b0c:	e5941030 	ldr	r1, [r4, #48]	; 0x30
 b10:	e5940020 	ldr	r0, [r4, #32]
 b14:	e092a001 	adds	sl, r2, r1
 b18:	e2a3b000 	adc	fp, r3, #0
 b1c:	e0866001 	add	r6, r6, r1
 b20:	e0455001 	sub	r5, r5, r1
 b24:	e1c4a3f8 	strd	sl, [r4, #56]	; 0x38
 b28:	e5848030 	str	r8, [r4, #48]	; 0x30
 b2c:	e5840024 	str	r0, [r4, #36]	; 0x24
 b30:	eaffffd1 	b	a7c <opj_stream_read_data+0x3c>
 b34:	e1a00006 	mov	r0, r6
 b38:	e12fff3a 	blx	sl
 b3c:	e3700001 	cmn	r0, #1
 b40:	e1a01000 	mov	r1, r0
 b44:	e5840030 	str	r0, [r4, #48]	; 0x30
 b48:	0a00000c 	beq	b80 <opj_stream_read_data+0x140>
 b4c:	e1c4a3d8 	ldrd	sl, [r4, #56]	; 0x38
 b50:	e0877000 	add	r7, r7, r0
 b54:	e5940020 	ldr	r0, [r4, #32]
 b58:	e09a2001 	adds	r2, sl, r1
 b5c:	e2ab3000 	adc	r3, fp, #0
 b60:	e1510005 	cmp	r1, r5
 b64:	2a000035 	bcs	c40 <opj_stream_read_data+0x200>
 b68:	e5840024 	str	r0, [r4, #36]	; 0x24
 b6c:	e0455001 	sub	r5, r5, r1
 b70:	e1c423f8 	strd	r2, [r4, #56]	; 0x38
 b74:	e5848030 	str	r8, [r4, #48]	; 0x30
 b78:	e0866001 	add	r6, r6, r1
 b7c:	eaffffbf 	b	a80 <opj_stream_read_data+0x40>
 b80:	e59f210c 	ldr	r2, [pc, #268]	; c94 <opj_stream_read_data+0x254>
 b84:	e1a00009 	mov	r0, r9
 b88:	e3a01004 	mov	r1, #4
 b8c:	ebfffffe 	bl	0 <opj_event_msg>
 b90:	e5943044 	ldr	r3, [r4, #68]	; 0x44
 b94:	e3a02000 	mov	r2, #0
 b98:	e3833004 	orr	r3, r3, #4
 b9c:	e3570000 	cmp	r7, #0
 ba0:	e5843044 	str	r3, [r4, #68]	; 0x44
 ba4:	e5842030 	str	r2, [r4, #48]	; 0x30
 ba8:	0a000011 	beq	bf4 <opj_stream_read_data+0x1b4>
 bac:	e1a00007 	mov	r0, r7
 bb0:	e8bd8ff8 	pop	{r3, r4, r5, r6, r7, r8, r9, sl, fp, pc}
 bb4:	e1a00001 	mov	r0, r1
 bb8:	e1a02007 	mov	r2, r7
 bbc:	e5941024 	ldr	r1, [r4, #36]	; 0x24
 bc0:	ebfffffe 	bl	0 <memcpy>
 bc4:	e1c483d8 	ldrd	r8, [r4, #56]	; 0x38
 bc8:	e5940030 	ldr	r0, [r4, #48]	; 0x30
 bcc:	e5941024 	ldr	r1, [r4, #36]	; 0x24
 bd0:	e098a000 	adds	sl, r8, r0
 bd4:	e2a9b000 	adc	fp, r9, #0
 bd8:	e0813000 	add	r3, r1, r0
 bdc:	e3a02000 	mov	r2, #0
 be0:	e3570000 	cmp	r7, #0
 be4:	e1c4a3f8 	strd	sl, [r4, #56]	; 0x38
 be8:	e5843024 	str	r3, [r4, #36]	; 0x24
 bec:	e5842030 	str	r2, [r4, #48]	; 0x30
 bf0:	1affffed 	bne	bac <opj_stream_read_data+0x16c>
 bf4:	e3e07000 	mvn	r7, #0
 bf8:	e1a00007 	mov	r0, r7
 bfc:	e8bd8ff8 	pop	{r3, r4, r5, r6, r7, r8, r9, sl, fp, pc}
 c00:	e1a00001 	mov	r0, r1
 c04:	e5941024 	ldr	r1, [r4, #36]	; 0x24
 c08:	ebfffffe 	bl	0 <memcpy>
 c0c:	e1c463d8 	ldrd	r6, [r4, #56]	; 0x38
 c10:	e5940024 	ldr	r0, [r4, #36]	; 0x24
 c14:	e5941030 	ldr	r1, [r4, #48]	; 0x30
 c18:	e0968005 	adds	r8, r6, r5
 c1c:	e2a79000 	adc	r9, r7, #0
 c20:	e0800005 	add	r0, r0, r5
 c24:	e0413005 	sub	r3, r1, r5
 c28:	e1a07005 	mov	r7, r5
 c2c:	e5840024 	str	r0, [r4, #36]	; 0x24
 c30:	e1c483f8 	strd	r8, [r4, #56]	; 0x38
 c34:	e5843030 	str	r3, [r4, #48]	; 0x30
 c38:	e1a00007 	mov	r0, r7
 c3c:	e8bd8ff8 	pop	{r3, r4, r5, r6, r7, r8, r9, sl, fp, pc}
 c40:	e3a01000 	mov	r1, #0
 c44:	e5840024 	str	r0, [r4, #36]	; 0x24
 c48:	e1c423f8 	strd	r2, [r4, #56]	; 0x38
 c4c:	e5841030 	str	r1, [r4, #48]	; 0x30
 c50:	e1a00007 	mov	r0, r7
 c54:	e8bd8ff8 	pop	{r3, r4, r5, r6, r7, r8, r9, sl, fp, pc}
 c58:	e1a02005 	mov	r2, r5
 c5c:	ebfffffe 	bl	0 <memcpy>
 c60:	e1c483d8 	ldrd	r8, [r4, #56]	; 0x38
 c64:	e5940024 	ldr	r0, [r4, #36]	; 0x24
 c68:	e5941030 	ldr	r1, [r4, #48]	; 0x30
 c6c:	e098a005 	adds	sl, r8, r5
 c70:	e2a9b000 	adc	fp, r9, #0
 c74:	e0802005 	add	r2, r0, r5
 c78:	e0413005 	sub	r3, r1, r5
 c7c:	e0877005 	add	r7, r7, r5
 c80:	e1c4a3f8 	strd	sl, [r4, #56]	; 0x38
 c84:	e5842024 	str	r2, [r4, #36]	; 0x24
 c88:	e5843030 	str	r3, [r4, #48]	; 0x30
 c8c:	e1a00007 	mov	r0, r7
 c90:	e8bd8ff8 	pop	{r3, r4, r5, r6, r7, r8, r9, sl, fp, pc}
 c94:	00000014 	.word	0x00000014

00000c98 <opj_stream_write_data>:
 c98:	e92d4ff8 	push	{r3, r4, r5, r6, r7, r8, r9, sl, fp, lr}
 c9c:	e5907044 	ldr	r7, [r0, #68]	; 0x44
 ca0:	e2177008 	ands	r7, r7, #8
 ca4:	13e0a000 	mvnne	sl, #0
 ca8:	1a000025 	bne	d44 <opj_stream_write_data+0xac>
 cac:	e590b040 	ldr	fp, [r0, #64]	; 0x40
 cb0:	e5905030 	ldr	r5, [r0, #48]	; 0x30
 cb4:	e1a04000 	mov	r4, r0
 cb8:	e04ba005 	sub	sl, fp, r5
 cbc:	e152000a 	cmp	r2, sl
 cc0:	e1a08001 	mov	r8, r1
 cc4:	e1a06002 	mov	r6, r2
 cc8:	e1a09003 	mov	r9, r3
 ccc:	9a000049 	bls	df8 <opj_stream_write_data+0x160>
 cd0:	e35a0000 	cmp	sl, #0
 cd4:	1a000025 	bne	d70 <opj_stream_write_data+0xd8>
 cd8:	e5940020 	ldr	r0, [r4, #32]
 cdc:	e3550000 	cmp	r5, #0
 ce0:	e5840024 	str	r0, [r4, #36]	; 0x24
 ce4:	1a000008 	bne	d0c <opj_stream_write_data+0x74>
 ce8:	ea000018 	b	d50 <opj_stream_write_data+0xb8>
 cec:	e5945030 	ldr	r5, [r4, #48]	; 0x30
 cf0:	e5940024 	ldr	r0, [r4, #36]	; 0x24
 cf4:	e045500a 	sub	r5, r5, sl
 cf8:	e080000a 	add	r0, r0, sl
 cfc:	e3550000 	cmp	r5, #0
 d00:	e5845030 	str	r5, [r4, #48]	; 0x30
 d04:	e5840024 	str	r0, [r4, #36]	; 0x24
 d08:	0a00000f 	beq	d4c <opj_stream_write_data+0xb4>
 d0c:	e1a01005 	mov	r1, r5
 d10:	e5943014 	ldr	r3, [r4, #20]
 d14:	e5942000 	ldr	r2, [r4]
 d18:	e12fff33 	blx	r3
 d1c:	e3700001 	cmn	r0, #1
 d20:	e1a0a000 	mov	sl, r0
 d24:	1afffff0 	bne	cec <opj_stream_write_data+0x54>
 d28:	e5943044 	ldr	r3, [r4, #68]	; 0x44
 d2c:	e1a00009 	mov	r0, r9
 d30:	e3833008 	orr	r3, r3, #8
 d34:	e5843044 	str	r3, [r4, #68]	; 0x44
 d38:	e59f20c4 	ldr	r2, [pc, #196]	; e04 <opj_stream_write_data+0x16c>
 d3c:	e3a01004 	mov	r1, #4
 d40:	ebfffffe 	bl	0 <opj_event_msg>
 d44:	e1a0000a 	mov	r0, sl
 d48:	e8bd8ff8 	pop	{r3, r4, r5, r6, r7, r8, r9, sl, fp, pc}
 d4c:	e5940020 	ldr	r0, [r4, #32]
 d50:	e594b040 	ldr	fp, [r4, #64]	; 0x40
 d54:	e5840024 	str	r0, [r4, #36]	; 0x24
 d58:	e15b0006 	cmp	fp, r6
 d5c:	e1a0a00b 	mov	sl, fp
 d60:	2a000014 	bcs	db8 <opj_stream_write_data+0x120>
 d64:	e35a0000 	cmp	sl, #0
 d68:	e3a05000 	mov	r5, #0
 d6c:	0affffd9 	beq	cd8 <opj_stream_write_data+0x40>
 d70:	e1a01008 	mov	r1, r8
 d74:	e1a0200a 	mov	r2, sl
 d78:	e5940024 	ldr	r0, [r4, #36]	; 0x24
 d7c:	ebfffffe 	bl	0 <memcpy>
 d80:	e1c423d8 	ldrd	r2, [r4, #56]	; 0x38
 d84:	e594c030 	ldr	ip, [r4, #48]	; 0x30
 d88:	e0866005 	add	r6, r6, r5
 d8c:	e092000a 	adds	r0, r2, sl
 d90:	e2a31000 	adc	r1, r3, #0
 d94:	e1a02000 	mov	r2, r0
 d98:	e1a03001 	mov	r3, r1
 d9c:	e08a500c 	add	r5, sl, ip
 da0:	e087700a 	add	r7, r7, sl
 da4:	e088800a 	add	r8, r8, sl
 da8:	e046600b 	sub	r6, r6, fp
 dac:	e1c423f8 	strd	r2, [r4, #56]	; 0x38
 db0:	e5845030 	str	r5, [r4, #48]	; 0x30
 db4:	eaffffc7 	b	cd8 <opj_stream_write_data+0x40>
 db8:	e086a007 	add	sl, r6, r7
 dbc:	e1a01008 	mov	r1, r8
 dc0:	e1a02006 	mov	r2, r6
 dc4:	ebfffffe 	bl	0 <memcpy>
 dc8:	e1c423d8 	ldrd	r2, [r4, #56]	; 0x38
 dcc:	e5940024 	ldr	r0, [r4, #36]	; 0x24
 dd0:	e5941030 	ldr	r1, [r4, #48]	; 0x30
 dd4:	e0928006 	adds	r8, r2, r6
 dd8:	e2a39000 	adc	r9, r3, #0
 ddc:	e0800006 	add	r0, r0, r6
 de0:	e0816006 	add	r6, r1, r6
 de4:	e5840024 	str	r0, [r4, #36]	; 0x24
 de8:	e1c483f8 	strd	r8, [r4, #56]	; 0x38
 dec:	e5846030 	str	r6, [r4, #48]	; 0x30
 df0:	e1a0000a 	mov	r0, sl
 df4:	e8bd8ff8 	pop	{r3, r4, r5, r6, r7, r8, r9, sl, fp, pc}
 df8:	e5900024 	ldr	r0, [r0, #36]	; 0x24
 dfc:	e1a0a002 	mov	sl, r2
 e00:	eaffffed 	b	dbc <opj_stream_write_data+0x124>
 e04:	00000030 	.word	0x00000030

00000e08 <opj_stream_flush>:
 e08:	e92d4070 	push	{r4, r5, r6, lr}
 e0c:	e1a05001 	mov	r5, r1
 e10:	e5901030 	ldr	r1, [r0, #48]	; 0x30
 e14:	e1a04000 	mov	r4, r0
 e18:	e5900020 	ldr	r0, [r0, #32]
 e1c:	e3510000 	cmp	r1, #0
 e20:	e5840024 	str	r0, [r4, #36]	; 0x24
 e24:	1a000008 	bne	e4c <opj_stream_flush+0x44>
 e28:	ea000017 	b	e8c <opj_stream_flush+0x84>
 e2c:	e5941030 	ldr	r1, [r4, #48]	; 0x30
 e30:	e5943024 	ldr	r3, [r4, #36]	; 0x24
 e34:	e0411000 	sub	r1, r1, r0
 e38:	e3510000 	cmp	r1, #0
 e3c:	e0830000 	add	r0, r3, r0
 e40:	e5841030 	str	r1, [r4, #48]	; 0x30
 e44:	e5840024 	str	r0, [r4, #36]	; 0x24
 e48:	0a00000e 	beq	e88 <opj_stream_flush+0x80>
 e4c:	e5943014 	ldr	r3, [r4, #20]
 e50:	e5942000 	ldr	r2, [r4]
 e54:	e12fff33 	blx	r3
 e58:	e3700001 	cmn	r0, #1
 e5c:	1afffff2 	bne	e2c <opj_stream_flush+0x24>
 e60:	e5943044 	ldr	r3, [r4, #68]	; 0x44
 e64:	e1a00005 	mov	r0, r5
 e68:	e3833008 	orr	r3, r3, #8
 e6c:	e5843044 	str	r3, [r4, #68]	; 0x44
 e70:	e59f2024 	ldr	r2, [pc, #36]	; e9c <opj_stream_flush+0x94>
 e74:	e3a01004 	mov	r1, #4
 e78:	ebfffffe 	bl	0 <opj_event_msg>
 e7c:	e3a03000 	mov	r3, #0
 e80:	e1a00003 	mov	r0, r3
 e84:	e8bd8070 	pop	{r4, r5, r6, pc}
 e88:	e5940020 	ldr	r0, [r4, #32]
 e8c:	e3a03001 	mov	r3, #1
 e90:	e5840024 	str	r0, [r4, #36]	; 0x24
 e94:	e1a00003 	mov	r0, r3
 e98:	e8bd8070 	pop	{r4, r5, r6, pc}
 e9c:	00000030 	.word	0x00000030

00000ea0 <opj_stream_tell>:
 ea0:	e1c003d8 	ldrd	r0, [r0, #56]	; 0x38
 ea4:	e12fff1e 	bx	lr

00000ea8 <opj_stream_get_number_byte_left>:
 ea8:	e92d4070 	push	{r4, r5, r6, lr}
 eac:	e1c043d8 	ldrd	r4, [r0, #56]	; 0x38
 eb0:	e3540000 	cmp	r4, #0
 eb4:	e2d53000 	sbcs	r3, r5, #0
 eb8:	ba000010 	blt	f00 <opj_stream_get_number_byte_left+0x58>
 ebc:	e1c020d8 	ldrd	r2, [r0, #8]
 ec0:	e1530005 	cmp	r3, r5
 ec4:	01520004 	cmpeq	r2, r4
 ec8:	3a000007 	bcc	eec <opj_stream_get_number_byte_left+0x44>
 ecc:	e1921003 	orrs	r1, r2, r3
 ed0:	0a000002 	beq	ee0 <opj_stream_get_number_byte_left+0x38>
 ed4:	e0520004 	subs	r0, r2, r4
 ed8:	e0c31005 	sbc	r1, r3, r5
 edc:	e8bd8070 	pop	{r4, r5, r6, pc}
 ee0:	e1a00002 	mov	r0, r2
 ee4:	e1a01003 	mov	r1, r3
 ee8:	e8bd8070 	pop	{r4, r5, r6, pc}
 eec:	e59f3020 	ldr	r3, [pc, #32]	; f14 <opj_stream_get_number_byte_left+0x6c>
 ef0:	e59f2020 	ldr	r2, [pc, #32]	; f18 <opj_stream_get_number_byte_left+0x70>
 ef4:	e59f1020 	ldr	r1, [pc, #32]	; f1c <opj_stream_get_number_byte_left+0x74>
 ef8:	e59f0020 	ldr	r0, [pc, #32]	; f20 <opj_stream_get_number_byte_left+0x78>
 efc:	ebfffffe 	bl	0 <__assert_func>
 f00:	e59f301c 	ldr	r3, [pc, #28]	; f24 <opj_stream_get_number_byte_left+0x7c>
 f04:	e59f200c 	ldr	r2, [pc, #12]	; f18 <opj_stream_get_number_byte_left+0x70>
 f08:	e59f1018 	ldr	r1, [pc, #24]	; f28 <opj_stream_get_number_byte_left+0x80>
 f0c:	e59f000c 	ldr	r0, [pc, #12]	; f20 <opj_stream_get_number_byte_left+0x78>
 f10:	ebfffffe 	bl	0 <__assert_func>
 f14:	000000b0 	.word	0x000000b0
 f18:	00000068 	.word	0x00000068
 f1c:	0000024b 	.word	0x0000024b
 f20:	0000000c 	.word	0x0000000c
 f24:	00000090 	.word	0x00000090
 f28:	0000024a 	.word	0x0000024a

00000f2c <opj_stream_skip>:
 f2c:	e3520000 	cmp	r2, #0
 f30:	e2d31000 	sbcs	r1, r3, #0
 f34:	ba000001 	blt	f40 <opj_stream_skip+0x14>
 f38:	e5901028 	ldr	r1, [r0, #40]	; 0x28
 f3c:	e12fff11 	bx	r1
 f40:	e92d4010 	push	{r4, lr}
 f44:	e3a01f95 	mov	r1, #596	; 0x254
 f48:	e59f3008 	ldr	r3, [pc, #8]	; f58 <opj_stream_skip+0x2c>
 f4c:	e59f2008 	ldr	r2, [pc, #8]	; f5c <opj_stream_skip+0x30>
 f50:	e59f0008 	ldr	r0, [pc, #8]	; f60 <opj_stream_skip+0x34>
 f54:	ebfffffe 	bl	0 <__assert_func>
 f58:	00000000 	.word	0x00000000
 f5c:	00000088 	.word	0x00000088
 f60:	0000000c 	.word	0x0000000c

00000f64 <opj_stream_seek>:
 f64:	e3520000 	cmp	r2, #0
 f68:	e2d31000 	sbcs	r1, r3, #0
 f6c:	ba000001 	blt	f78 <opj_stream_seek+0x14>
 f70:	e590102c 	ldr	r1, [r0, #44]	; 0x2c
 f74:	e12fff11 	bx	r1
 f78:	e92d4010 	push	{r4, lr}
 f7c:	e3a01fa1 	mov	r1, #644	; 0x284
 f80:	e59f3008 	ldr	r3, [pc, #8]	; f90 <opj_stream_seek+0x2c>
 f84:	e59f2008 	ldr	r2, [pc, #8]	; f94 <opj_stream_seek+0x30>
 f88:	e59f0008 	ldr	r0, [pc, #8]	; f98 <opj_stream_seek+0x34>
 f8c:	ebfffffe 	bl	0 <__assert_func>
 f90:	00000000 	.word	0x00000000
 f94:	00000098 	.word	0x00000098
 f98:	0000000c 	.word	0x0000000c

00000f9c <opj_stream_has_seek>:
 f9c:	e590001c 	ldr	r0, [r0, #28]
 fa0:	e59f3008 	ldr	r3, [pc, #8]	; fb0 <opj_stream_has_seek+0x14>
 fa4:	e0500003 	subs	r0, r0, r3
 fa8:	13a00001 	movne	r0, #1
 fac:	e12fff1e 	bx	lr
 fb0:	00000000 	.word	0x00000000

dwt.o:     file format elf32-littlearm


Disassembly of section .text:

00000000 <opj_v4dwt_interleave_h>:
       0:	e92d4ff0 	push	{r4, r5, r6, r7, r8, r9, sl, fp, lr}
       4:	e1a04000 	mov	r4, r0
       8:	e590000c 	ldr	r0, [r0, #12]
       c:	e594c000 	ldr	ip, [r4]
      10:	e5948008 	ldr	r8, [r4, #8]
      14:	e0607e00 	rsb	r7, r0, r0, lsl #28
      18:	e3530003 	cmp	r3, #3
      1c:	e08c7207 	add	r7, ip, r7, lsl #4
      20:	e08c0200 	add	r0, ip, r0, lsl #4
      24:	e2877010 	add	r7, r7, #16
      28:	e1a08108 	lsl	r8, r8, #2
      2c:	e594c010 	ldr	ip, [r4, #16]
      30:	e594e014 	ldr	lr, [r4, #20]
      34:	e594b018 	ldr	fp, [r4, #24]
      38:	e594a01c 	ldr	sl, [r4, #28]
      3c:	e3a09002 	mov	r9, #2
      40:	9a000022 	bls	d0 <opj_v4dwt_interleave_h+0xd0>
      44:	e1804002 	orr	r4, r0, r2
      48:	e1844001 	orr	r4, r4, r1
      4c:	e314000f 	tst	r4, #15
      50:	1a000033 	bne	124 <opj_v4dwt_interleave_h+0x124>
      54:	e15c000e 	cmp	ip, lr
      58:	2a000013 	bcs	ac <opj_v4dwt_interleave_h+0xac>
      5c:	e082500c 	add	r5, r2, ip
      60:	e0854002 	add	r4, r5, r2
      64:	e0846002 	add	r6, r4, r2
      68:	e080028c 	add	r0, r0, ip, lsl #5
      6c:	e081e10e 	add	lr, r1, lr, lsl #2
      70:	e081c10c 	add	ip, r1, ip, lsl #2
      74:	e0815105 	add	r5, r1, r5, lsl #2
      78:	e0816106 	add	r6, r1, r6, lsl #2
      7c:	e0814104 	add	r4, r1, r4, lsl #2
      80:	ecfc7a01 	vldmia	ip!, {s15}
      84:	e2800020 	add	r0, r0, #32
      88:	ed407a08 	vstr	s15, [r0, #-32]	; 0xffffffe0
      8c:	e15c000e 	cmp	ip, lr
      90:	ecf57a01 	vldmia	r5!, {s15}
      94:	ed407a07 	vstr	s15, [r0, #-28]	; 0xffffffe4
      98:	ecf47a01 	vldmia	r4!, {s15}
      9c:	ed407a06 	vstr	s15, [r0, #-24]	; 0xffffffe8
      a0:	ecf67a01 	vldmia	r6!, {s15}
      a4:	ed407a05 	vstr	s15, [r0, #-20]	; 0xffffffec
      a8:	1afffff4 	bne	80 <opj_v4dwt_interleave_h+0x80>
      ac:	e3590001 	cmp	r9, #1
      b0:	e0811008 	add	r1, r1, r8
      b4:	e1a00007 	mov	r0, r7
      b8:	e1a0c00b 	mov	ip, fp
      bc:	e1a0e00a 	mov	lr, sl
      c0:	08bd8ff0 	popeq	{r4, r5, r6, r7, r8, r9, sl, fp, pc}
      c4:	e3530003 	cmp	r3, #3
      c8:	e3a09001 	mov	r9, #1
      cc:	8affffdc 	bhi	44 <opj_v4dwt_interleave_h+0x44>
      d0:	e15c000e 	cmp	ip, lr
      d4:	2afffff4 	bcs	ac <opj_v4dwt_interleave_h+0xac>
      d8:	e3530001 	cmp	r3, #1
      dc:	0a000027 	beq	180 <opj_v4dwt_interleave_h+0x180>
      e0:	e3530003 	cmp	r3, #3
      e4:	0a00002d 	beq	1a0 <opj_v4dwt_interleave_h+0x1a0>
      e8:	e3530002 	cmp	r3, #2
      ec:	1a00000e 	bne	12c <opj_v4dwt_interleave_h+0x12c>
      f0:	e082400c 	add	r4, r2, ip
      f4:	e080028c 	add	r0, r0, ip, lsl #5
      f8:	e081e10e 	add	lr, r1, lr, lsl #2
      fc:	e0814104 	add	r4, r1, r4, lsl #2
     100:	e081c10c 	add	ip, r1, ip, lsl #2
     104:	e49c5004 	ldr	r5, [ip], #4
     108:	e2800020 	add	r0, r0, #32
     10c:	e5005020 	str	r5, [r0, #-32]	; 0xffffffe0
     110:	e4945004 	ldr	r5, [r4], #4
     114:	e15c000e 	cmp	ip, lr
     118:	e500501c 	str	r5, [r0, #-28]	; 0xffffffe4
     11c:	1afffff8 	bne	104 <opj_v4dwt_interleave_h+0x104>
     120:	eaffffe1 	b	ac <opj_v4dwt_interleave_h+0xac>
     124:	e15c000e 	cmp	ip, lr
     128:	2affffdf 	bcs	ac <opj_v4dwt_interleave_h+0xac>
     12c:	e082500c 	add	r5, r2, ip
     130:	e0824005 	add	r4, r2, r5
     134:	e0826004 	add	r6, r2, r4
     138:	e080028c 	add	r0, r0, ip, lsl #5
     13c:	e081e10e 	add	lr, r1, lr, lsl #2
     140:	e081c10c 	add	ip, r1, ip, lsl #2
     144:	e0815105 	add	r5, r1, r5, lsl #2
     148:	e0816106 	add	r6, r1, r6, lsl #2
     14c:	e0814104 	add	r4, r1, r4, lsl #2
     150:	ecfc7a01 	vldmia	ip!, {s15}
     154:	e2800020 	add	r0, r0, #32
     158:	ed407a08 	vstr	s15, [r0, #-32]	; 0xffffffe0
     15c:	e15c000e 	cmp	ip, lr
     160:	ecf57a01 	vldmia	r5!, {s15}
     164:	ed407a07 	vstr	s15, [r0, #-28]	; 0xffffffe4
     168:	ecf47a01 	vldmia	r4!, {s15}
     16c:	ed407a06 	vstr	s15, [r0, #-24]	; 0xffffffe8
     170:	ecf67a01 	vldmia	r6!, {s15}
     174:	ed407a05 	vstr	s15, [r0, #-20]	; 0xffffffec
     178:	1afffff4 	bne	150 <opj_v4dwt_interleave_h+0x150>
     17c:	eaffffca 	b	ac <opj_v4dwt_interleave_h+0xac>
     180:	e080028c 	add	r0, r0, ip, lsl #5
     184:	e081e10e 	add	lr, r1, lr, lsl #2
     188:	e081c10c 	add	ip, r1, ip, lsl #2
     18c:	e49c4004 	ldr	r4, [ip], #4
     190:	e15c000e 	cmp	ip, lr
     194:	e4804020 	str	r4, [r0], #32
     198:	1afffffb 	bne	18c <opj_v4dwt_interleave_h+0x18c>
     19c:	eaffffc2 	b	ac <opj_v4dwt_interleave_h+0xac>
     1a0:	e082400c 	add	r4, r2, ip
     1a4:	e0825004 	add	r5, r2, r4
     1a8:	e080028c 	add	r0, r0, ip, lsl #5
     1ac:	e081e10e 	add	lr, r1, lr, lsl #2
     1b0:	e081c10c 	add	ip, r1, ip, lsl #2
     1b4:	e0815105 	add	r5, r1, r5, lsl #2
     1b8:	e0814104 	add	r4, r1, r4, lsl #2
     1bc:	e49c6004 	ldr	r6, [ip], #4
     1c0:	e2800020 	add	r0, r0, #32
     1c4:	e5006020 	str	r6, [r0, #-32]	; 0xffffffe0
     1c8:	e4946004 	ldr	r6, [r4], #4
     1cc:	e15c000e 	cmp	ip, lr
     1d0:	e500601c 	str	r6, [r0, #-28]	; 0xffffffe4
     1d4:	e4956004 	ldr	r6, [r5], #4
     1d8:	e5006018 	str	r6, [r0, #-24]	; 0xffffffe8
     1dc:	1afffff6 	bne	1bc <opj_v4dwt_interleave_h+0x1bc>
     1e0:	eaffffb1 	b	ac <opj_v4dwt_interleave_h+0xac>

000001e4 <opj_idwt3_v_cas1>:
     1e4:	e92d4ff0 	push	{r4, r5, r6, r7, r8, r9, sl, fp, lr}
     1e8:	e24dd00c 	sub	sp, sp, #12
     1ec:	e3520002 	cmp	r2, #2
     1f0:	e59dc030 	ldr	ip, [sp, #48]	; 0x30
     1f4:	e1a0e10c 	lsl	lr, ip, #2
     1f8:	e001019e 	mul	r1, lr, r1
     1fc:	e0839001 	add	r9, r3, r1
     200:	da00007e 	ble	400 <opj_idwt3_v_cas1+0x21c>
     204:	e7934001 	ldr	r4, [r3, r1]
     208:	e59d1030 	ldr	r1, [sp, #48]	; 0x30
     20c:	e5937000 	ldr	r7, [r3]
     210:	e799c101 	ldr	ip, [r9, r1, lsl #2]
     214:	e1e01002 	mvn	r1, r2
     218:	e084600c 	add	r6, r4, ip
     21c:	e2866002 	add	r6, r6, #2
     220:	e2015001 	and	r5, r1, #1
     224:	e0476146 	sub	r6, r7, r6, asr #2
     228:	e2421002 	sub	r1, r2, #2
     22c:	e0844006 	add	r4, r4, r6
     230:	e0411005 	sub	r1, r1, r5
     234:	e5804000 	str	r4, [r0]
     238:	e3510001 	cmp	r1, #1
     23c:	e2024001 	and	r4, r2, #1
     240:	e089900e 	add	r9, r9, lr
     244:	e58d4000 	str	r4, [sp]
     248:	da000068 	ble	3f0 <opj_idwt3_v_cas1+0x20c>
     24c:	e2411002 	sub	r1, r1, #2
     250:	e280a008 	add	sl, r0, #8
     254:	e1a010a1 	lsr	r1, r1, #1
     258:	e089900e 	add	r9, r9, lr
     25c:	e08aa181 	add	sl, sl, r1, lsl #3
     260:	e1a05000 	mov	r5, r0
     264:	e083b00e 	add	fp, r3, lr
     268:	e3a04000 	mov	r4, #0
     26c:	e58d1004 	str	r1, [sp, #4]
     270:	e7997004 	ldr	r7, [r9, r4]
     274:	e79b8004 	ldr	r8, [fp, r4]
     278:	e087100c 	add	r1, r7, ip
     27c:	e2811002 	add	r1, r1, #2
     280:	e5856004 	str	r6, [r5, #4]
     284:	e0481141 	sub	r1, r8, r1, asr #2
     288:	e0816006 	add	r6, r1, r6
     28c:	e084400e 	add	r4, r4, lr
     290:	e08c60c6 	add	r6, ip, r6, asr #1
     294:	e5a56008 	str	r6, [r5, #8]!
     298:	e155000a 	cmp	r5, sl
     29c:	e1a06001 	mov	r6, r1
     2a0:	e1a0c007 	mov	ip, r7
     2a4:	1afffff1 	bne	270 <opj_idwt3_v_cas1+0x8c>
     2a8:	e59dc004 	ldr	ip, [sp, #4]
     2ac:	e1a0418c 	lsl	r4, ip, #3
     2b0:	e284400c 	add	r4, r4, #12
     2b4:	e59dc000 	ldr	ip, [sp]
     2b8:	e2425107 	sub	r5, r2, #-1073741823	; 0xc0000001
     2bc:	e35c0000 	cmp	ip, #0
     2c0:	e7801004 	str	r1, [r0, r4]
     2c4:	e1a0c105 	lsl	ip, r5, #2
     2c8:	10811007 	addne	r1, r1, r7
     2cc:	e080400c 	add	r4, r0, ip
     2d0:	17801105 	strne	r1, [r0, r5, lsl #2]
     2d4:	0a000032 	beq	3a4 <opj_idwt3_v_cas1+0x1c0>
     2d8:	e2421001 	sub	r1, r2, #1
     2dc:	e1a05001 	mov	r5, r1
     2e0:	e59d1030 	ldr	r1, [sp, #48]	; 0x30
     2e4:	e35e0000 	cmp	lr, #0
     2e8:	a3a06000 	movge	r6, #0
     2ec:	e0010195 	mul	r1, r5, r1
     2f0:	e1a01101 	lsl	r1, r1, #2
     2f4:	b1a06001 	movlt	r6, r1
     2f8:	b3a01000 	movlt	r1, #0
     2fc:	e0831001 	add	r1, r3, r1
     300:	e0836006 	add	r6, r3, r6
     304:	e1510000 	cmp	r1, r0
     308:	21540006 	cmpcs	r4, r6
     30c:	33a01001 	movcc	r1, #1
     310:	23a01000 	movcs	r1, #0
     314:	e3550008 	cmp	r5, #8
     318:	93a01000 	movls	r1, #0
     31c:	82011001 	andhi	r1, r1, #1
     320:	e3510000 	cmp	r1, #0
     324:	0a000029 	beq	3d0 <opj_idwt3_v_cas1+0x1ec>
     328:	e1a01120 	lsr	r1, r0, #2
     32c:	e2111001 	ands	r1, r1, #1
     330:	e0422001 	sub	r2, r2, r1
     334:	1590c000 	ldrne	ip, [r0]
     338:	e1a080a2 	lsr	r8, r2, #1
     33c:	1583c000 	strne	ip, [r3]
     340:	e59dc030 	ldr	ip, [sp, #48]	; 0x30
     344:	01a06001 	moveq	r6, r1
     348:	13a06001 	movne	r6, #1
     34c:	e00c0c91 	mul	ip, r1, ip
     350:	e0801101 	add	r1, r0, r1, lsl #2
     354:	e0818188 	add	r8, r1, r8, lsl #3
     358:	e083c10c 	add	ip, r3, ip, lsl #2
     35c:	e2488008 	sub	r8, r8, #8
     360:	e2411008 	sub	r1, r1, #8
     364:	e5b17008 	ldr	r7, [r1, #8]!
     368:	e1a0400c 	mov	r4, ip
     36c:	e1510008 	cmp	r1, r8
     370:	e5915004 	ldr	r5, [r1, #4]
     374:	e684700e 	str	r7, [r4], lr
     378:	e78e500c 	str	r5, [lr, ip]
     37c:	e08ec004 	add	ip, lr, r4
     380:	1afffff7 	bne	364 <opj_idwt3_v_cas1+0x180>
     384:	e3c21001 	bic	r1, r2, #1
     388:	e1520001 	cmp	r2, r1
     38c:	e0812006 	add	r2, r1, r6
     390:	100e029e 	mulne	lr, lr, r2
     394:	17902102 	ldrne	r2, [r0, r2, lsl #2]
     398:	1783200e 	strne	r2, [r3, lr]
     39c:	e28dd00c 	add	sp, sp, #12
     3a0:	e8bd8ff0 	pop	{r4, r5, r6, r7, r8, r9, sl, fp, pc}
     3a4:	e1a060c2 	asr	r6, r2, #1
     3a8:	e2466001 	sub	r6, r6, #1
     3ac:	e2878001 	add	r8, r7, #1
     3b0:	e006069e 	mul	r6, lr, r6
     3b4:	e7936006 	ldr	r6, [r3, r6]
     3b8:	e04660c8 	sub	r6, r6, r8, asr #1
     3bc:	e0811006 	add	r1, r1, r6
     3c0:	e08770c1 	add	r7, r7, r1, asr #1
     3c4:	e5047004 	str	r7, [r4, #-4]
     3c8:	e7806105 	str	r6, [r0, r5, lsl #2]
     3cc:	eaffffc1 	b	2d8 <opj_idwt3_v_cas1+0xf4>
     3d0:	e080c00c 	add	ip, r0, ip
     3d4:	e2400004 	sub	r0, r0, #4
     3d8:	e5b02004 	ldr	r2, [r0, #4]!
     3dc:	e150000c 	cmp	r0, ip
     3e0:	e683200e 	str	r2, [r3], lr
     3e4:	1afffffb 	bne	3d8 <opj_idwt3_v_cas1+0x1f4>
     3e8:	e28dd00c 	add	sp, sp, #12
     3ec:	e8bd8ff0 	pop	{r4, r5, r6, r7, r8, r9, sl, fp, pc}
     3f0:	e1a01006 	mov	r1, r6
     3f4:	e1a0700c 	mov	r7, ip
     3f8:	e3a04004 	mov	r4, #4
     3fc:	eaffffac 	b	2b4 <opj_idwt3_v_cas1+0xd0>
     400:	e59f300c 	ldr	r3, [pc, #12]	; 414 <opj_idwt3_v_cas1+0x230>
     404:	e59f200c 	ldr	r2, [pc, #12]	; 418 <opj_idwt3_v_cas1+0x234>
     408:	e59f100c 	ldr	r1, [pc, #12]	; 41c <opj_idwt3_v_cas1+0x238>
     40c:	e59f000c 	ldr	r0, [pc, #12]	; 420 <opj_idwt3_v_cas1+0x23c>
     410:	ebfffffe 	bl	0 <__assert_func>
	...
     41c:	00000393 	.word	0x00000393
     420:	00000008 	.word	0x00000008

00000424 <opj_v4dwt_decode_step2>:
     424:	e92d4010 	push	{r4, lr}
     428:	e59d4008 	ldr	r4, [sp, #8]
     42c:	e1530004 	cmp	r3, r4
     430:	31a0e003 	movcc	lr, r3
     434:	21a0e004 	movcs	lr, r4
     438:	e3520000 	cmp	r2, #0
     43c:	10811282 	addne	r1, r1, r2, lsl #5
     440:	12410020 	subne	r0, r1, #32
     444:	e15e0002 	cmp	lr, r2
     448:	9a000026 	bls	4e8 <opj_v4dwt_decode_step2+0xc4>
     44c:	ed906a00 	vldr	s12, [r0]
     450:	edd06a01 	vldr	s13, [r0, #4]
     454:	ed907a02 	vldr	s14, [r0, #8]
     458:	edd07a03 	vldr	s15, [r0, #12]
     45c:	e1a0c002 	mov	ip, r2
     460:	e2810020 	add	r0, r1, #32
     464:	ed102a08 	vldr	s4, [r0, #-32]	; 0xffffffe0
     468:	ed502a07 	vldr	s5, [r0, #-28]	; 0xffffffe4
     46c:	ed103a06 	vldr	s6, [r0, #-24]	; 0xffffffe8
     470:	ed503a05 	vldr	s7, [r0, #-20]	; 0xffffffec
     474:	ee326a06 	vadd.f32	s12, s4, s12
     478:	ee726aa6 	vadd.f32	s13, s5, s13
     47c:	ee337a07 	vadd.f32	s14, s6, s14
     480:	ee737aa7 	vadd.f32	s15, s7, s15
     484:	ed104a0c 	vldr	s8, [r0, #-48]	; 0xffffffd0
     488:	ed504a0b 	vldr	s9, [r0, #-44]	; 0xffffffd4
     48c:	ed105a0a 	vldr	s10, [r0, #-40]	; 0xffffffd8
     490:	ed505a09 	vldr	s11, [r0, #-36]	; 0xffffffdc
     494:	ee064a00 	vmla.f32	s8, s12, s0
     498:	ee464a80 	vmla.f32	s9, s13, s0
     49c:	ee075a00 	vmla.f32	s10, s14, s0
     4a0:	ee475a80 	vmla.f32	s11, s15, s0
     4a4:	e28cc001 	add	ip, ip, #1
     4a8:	e15e000c 	cmp	lr, ip
     4ac:	eeb06a42 	vmov.f32	s12, s4
     4b0:	eef06a62 	vmov.f32	s13, s5
     4b4:	ed004a0c 	vstr	s8, [r0, #-48]	; 0xffffffd0
     4b8:	ed404a0b 	vstr	s9, [r0, #-44]	; 0xffffffd4
     4bc:	ed005a0a 	vstr	s10, [r0, #-40]	; 0xffffffd8
     4c0:	ed405a09 	vstr	s11, [r0, #-36]	; 0xffffffdc
     4c4:	eeb07a43 	vmov.f32	s14, s6
     4c8:	eef07a63 	vmov.f32	s15, s7
     4cc:	e2800020 	add	r0, r0, #32
     4d0:	1affffe3 	bne	464 <opj_v4dwt_decode_step2+0x40>
     4d4:	e04e0002 	sub	r0, lr, r2
     4d8:	e240037e 	sub	r0, r0, #-134217727	; 0xf8000001
     4dc:	e04ee002 	sub	lr, lr, r2
     4e0:	e0810280 	add	r0, r1, r0, lsl #5
     4e4:	e081128e 	add	r1, r1, lr, lsl #5
     4e8:	e1530004 	cmp	r3, r4
     4ec:	98bd8010 	popls	{r4, pc}
     4f0:	e2844001 	add	r4, r4, #1
     4f4:	e1540003 	cmp	r4, r3
     4f8:	1a000011 	bne	544 <opj_v4dwt_decode_step2+0x120>
     4fc:	ee300a00 	vadd.f32	s0, s0, s0
     500:	edd05a00 	vldr	s11, [r0]
     504:	ed116a04 	vldr	s12, [r1, #-16]
     508:	ed516a03 	vldr	s13, [r1, #-12]
     50c:	ed117a02 	vldr	s14, [r1, #-8]
     510:	ed517a01 	vldr	s15, [r1, #-4]
     514:	ee006a25 	vmla.f32	s12, s0, s11
     518:	ed016a04 	vstr	s12, [r1, #-16]
     51c:	ed906a01 	vldr	s12, [r0, #4]
     520:	ee406a06 	vmla.f32	s13, s0, s12
     524:	ed416a03 	vstr	s13, [r1, #-12]
     528:	edd06a02 	vldr	s13, [r0, #8]
     52c:	ee007a26 	vmla.f32	s14, s0, s13
     530:	ed017a02 	vstr	s14, [r1, #-8]
     534:	ed907a03 	vldr	s14, [r0, #12]
     538:	ee407a07 	vmla.f32	s15, s0, s14
     53c:	ed417a01 	vstr	s15, [r1, #-4]
     540:	e8bd8010 	pop	{r4, pc}
     544:	e59f300c 	ldr	r3, [pc, #12]	; 558 <opj_v4dwt_decode_step2+0x134>
     548:	e59f200c 	ldr	r2, [pc, #12]	; 55c <opj_v4dwt_decode_step2+0x138>
     54c:	e59f100c 	ldr	r1, [pc, #12]	; 560 <opj_v4dwt_decode_step2+0x13c>
     550:	e59f000c 	ldr	r0, [pc, #12]	; 564 <opj_v4dwt_decode_step2+0x140>
     554:	ebfffffe 	bl	0 <__assert_func>
     558:	00000010 	.word	0x00000010
     55c:	00000014 	.word	0x00000014
     560:	0000097e 	.word	0x0000097e
     564:	00000008 	.word	0x00000008

00000568 <opj_v4dwt_interleave_partial_h>:
     568:	e3530000 	cmp	r3, #0
     56c:	012fff1e 	bxeq	lr
     570:	e92d4ff0 	push	{r4, r5, r6, r7, r8, r9, sl, fp, lr}
     574:	e3a06000 	mov	r6, #0
     578:	e24dd024 	sub	sp, sp, #36	; 0x24
     57c:	e1a04000 	mov	r4, r0
     580:	e1a08001 	mov	r8, r1
     584:	e1a05002 	mov	r5, r2
     588:	e1a0b006 	mov	fp, r6
     58c:	e3a0a001 	mov	sl, #1
     590:	e3a09008 	mov	r9, #8
     594:	e0833002 	add	r3, r3, r2
     598:	e58d301c 	str	r3, [sp, #28]
     59c:	e5941010 	ldr	r1, [r4, #16]
     5a0:	e594300c 	ldr	r3, [r4, #12]
     5a4:	e5942000 	ldr	r2, [r4]
     5a8:	e0833081 	add	r3, r3, r1, lsl #1
     5ac:	e2857001 	add	r7, r5, #1
     5b0:	e0863203 	add	r3, r6, r3, lsl #4
     5b4:	e0823003 	add	r3, r2, r3
     5b8:	e58da010 	str	sl, [sp, #16]
     5bc:	e98d0a08 	stmib	sp, {r3, r9, fp}
     5c0:	e1a02005 	mov	r2, r5
     5c4:	e58d7000 	str	r7, [sp]
     5c8:	e1a00008 	mov	r0, r8
     5cc:	e5943014 	ldr	r3, [r4, #20]
     5d0:	ebfffffe 	bl	0 <opj_sparse_array_int32_read>
     5d4:	e3500000 	cmp	r0, #0
     5d8:	0a00001d 	beq	654 <opj_v4dwt_interleave_partial_h+0xec>
     5dc:	e5941018 	ldr	r1, [r4, #24]
     5e0:	e594300c 	ldr	r3, [r4, #12]
     5e4:	e594c000 	ldr	ip, [r4]
     5e8:	e1a02281 	lsl	r2, r1, #5
     5ec:	e0633e03 	rsb	r3, r3, r3, lsl #28
     5f0:	e2822010 	add	r2, r2, #16
     5f4:	e0822203 	add	r2, r2, r3, lsl #4
     5f8:	e594001c 	ldr	r0, [r4, #28]
     5fc:	e5943008 	ldr	r3, [r4, #8]
     600:	e0822006 	add	r2, r2, r6
     604:	e08cc002 	add	ip, ip, r2
     608:	e0831001 	add	r1, r3, r1
     60c:	e58da010 	str	sl, [sp, #16]
     610:	e0833000 	add	r3, r3, r0
     614:	e58db00c 	str	fp, [sp, #12]
     618:	e58d9008 	str	r9, [sp, #8]
     61c:	e58d7000 	str	r7, [sp]
     620:	e1a02005 	mov	r2, r5
     624:	e58dc004 	str	ip, [sp, #4]
     628:	e1a00008 	mov	r0, r8
     62c:	ebfffffe 	bl	0 <opj_sparse_array_int32_read>
     630:	e3500000 	cmp	r0, #0
     634:	0a00000b 	beq	668 <opj_v4dwt_interleave_partial_h+0x100>
     638:	e59d301c 	ldr	r3, [sp, #28]
     63c:	e1a05007 	mov	r5, r7
     640:	e1530007 	cmp	r3, r7
     644:	e2866004 	add	r6, r6, #4
     648:	1affffd3 	bne	59c <opj_v4dwt_interleave_partial_h+0x34>
     64c:	e28dd024 	add	sp, sp, #36	; 0x24
     650:	e8bd8ff0 	pop	{r4, r5, r6, r7, r8, r9, sl, fp, pc}
     654:	e59f3020 	ldr	r3, [pc, #32]	; 67c <opj_v4dwt_interleave_partial_h+0x114>
     658:	e59f2020 	ldr	r2, [pc, #32]	; 680 <opj_v4dwt_interleave_partial_h+0x118>
     65c:	e59f1020 	ldr	r1, [pc, #32]	; 684 <opj_v4dwt_interleave_partial_h+0x11c>
     660:	e59f0020 	ldr	r0, [pc, #32]	; 688 <opj_v4dwt_interleave_partial_h+0x120>
     664:	ebfffffe 	bl	0 <__assert_func>
     668:	e59f300c 	ldr	r3, [pc, #12]	; 67c <opj_v4dwt_interleave_partial_h+0x114>
     66c:	e59f200c 	ldr	r2, [pc, #12]	; 680 <opj_v4dwt_interleave_partial_h+0x118>
     670:	e59f1014 	ldr	r1, [pc, #20]	; 68c <opj_v4dwt_interleave_partial_h+0x124>
     674:	e59f000c 	ldr	r0, [pc, #12]	; 688 <opj_v4dwt_interleave_partial_h+0x120>
     678:	ebfffffe 	bl	0 <__assert_func>
     67c:	00000020 	.word	0x00000020
     680:	0000002c 	.word	0x0000002c
     684:	000008bf 	.word	0x000008bf
     688:	00000008 	.word	0x00000008
     68c:	000008c6 	.word	0x000008c6

00000690 <opj_dwt_get_band_coordinates.isra.2>:
     690:	e92d4ff0 	push	{r4, r5, r6, r7, r8, r9, sl, fp, lr}
     694:	e24dd02c 	sub	sp, sp, #44	; 0x2c
     698:	e0401001 	sub	r1, r0, r1
     69c:	e59d605c 	ldr	r6, [sp, #92]	; 0x5c
     6a0:	e2027001 	and	r7, r2, #1
     6a4:	e3560000 	cmp	r6, #0
     6a8:	e1a020a2 	lsr	r2, r2, #1
     6ac:	e59da058 	ldr	sl, [sp, #88]	; 0x58
     6b0:	e59de060 	ldr	lr, [sp, #96]	; 0x60
     6b4:	e59d0064 	ldr	r0, [sp, #100]	; 0x64
     6b8:	e59dc068 	ldr	ip, [sp, #104]	; 0x68
     6bc:	0a000002 	beq	6cc <opj_dwt_get_band_coordinates.isra.2+0x3c>
     6c0:	e3510000 	cmp	r1, #0
     6c4:	1a000060 	bne	84c <opj_dwt_get_band_coordinates.isra.2+0x1bc>
     6c8:	e5863000 	str	r3, [r6]
     6cc:	e35e0000 	cmp	lr, #0
     6d0:	0a000003 	beq	6e4 <opj_dwt_get_band_coordinates.isra.2+0x54>
     6d4:	e3510000 	cmp	r1, #0
     6d8:	1a000040 	bne	7e0 <opj_dwt_get_band_coordinates.isra.2+0x150>
     6dc:	e59d3050 	ldr	r3, [sp, #80]	; 0x50
     6e0:	e58e3000 	str	r3, [lr]
     6e4:	e3500000 	cmp	r0, #0
     6e8:	0a000003 	beq	6fc <opj_dwt_get_band_coordinates.isra.2+0x6c>
     6ec:	e3510000 	cmp	r1, #0
     6f0:	1a00001f 	bne	774 <opj_dwt_get_band_coordinates.isra.2+0xe4>
     6f4:	e59d3054 	ldr	r3, [sp, #84]	; 0x54
     6f8:	e5803000 	str	r3, [r0]
     6fc:	e35c0000 	cmp	ip, #0
     700:	0a000002 	beq	710 <opj_dwt_get_band_coordinates.isra.2+0x80>
     704:	e3510000 	cmp	r1, #0
     708:	1a000002 	bne	718 <opj_dwt_get_band_coordinates.isra.2+0x88>
     70c:	e58ca000 	str	sl, [ip]
     710:	e28dd02c 	add	sp, sp, #44	; 0x2c
     714:	e8bd8ff0 	pop	{r4, r5, r6, r7, r8, r9, sl, fp, pc}
     718:	e2413001 	sub	r3, r1, #1
     71c:	e1a02312 	lsl	r2, r2, r3
     720:	e152000a 	cmp	r2, sl
     724:	23a0a000 	movcs	sl, #0
     728:	2afffff7 	bcs	70c <opj_dwt_get_band_coordinates.isra.2+0x7c>
     72c:	e3a04001 	mov	r4, #1
     730:	e241e020 	sub	lr, r1, #32
     734:	e2616020 	rsb	r6, r1, #32
     738:	e1a03e14 	lsl	r3, r4, lr
     73c:	e1a00114 	lsl	r0, r4, r1
     740:	e1833634 	orr	r3, r3, r4, lsr r6
     744:	e2500001 	subs	r0, r0, #1
     748:	e2c33000 	sbc	r3, r3, #0
     74c:	e58d0020 	str	r0, [sp, #32]
     750:	e58d3024 	str	r3, [sp, #36]	; 0x24
     754:	e1cd42d0 	ldrd	r4, [sp, #32]
     758:	e04a2002 	sub	r2, sl, r2
     75c:	e0944002 	adds	r4, r4, r2
     760:	e2a55000 	adc	r5, r5, #0
     764:	e1a01134 	lsr	r1, r4, r1
     768:	e1811615 	orr	r1, r1, r5, lsl r6
     76c:	e181ae35 	orr	sl, r1, r5, lsr lr
     770:	eaffffe5 	b	70c <opj_dwt_get_band_coordinates.isra.2+0x7c>
     774:	e2413001 	sub	r3, r1, #1
     778:	e1a07317 	lsl	r7, r7, r3
     77c:	e59d3054 	ldr	r3, [sp, #84]	; 0x54
     780:	e1570003 	cmp	r7, r3
     784:	23a03000 	movcs	r3, #0
     788:	258d3054 	strcs	r3, [sp, #84]	; 0x54
     78c:	2affffd8 	bcs	6f4 <opj_dwt_get_band_coordinates.isra.2+0x64>
     790:	e3a06001 	mov	r6, #1
     794:	e2413020 	sub	r3, r1, #32
     798:	e261e020 	rsb	lr, r1, #32
     79c:	e1a04316 	lsl	r4, r6, r3
     7a0:	e1a05116 	lsl	r5, r6, r1
     7a4:	e1844e36 	orr	r4, r4, r6, lsr lr
     7a8:	e2555001 	subs	r5, r5, #1
     7ac:	e2c44000 	sbc	r4, r4, #0
     7b0:	e58d5018 	str	r5, [sp, #24]
     7b4:	e59d5054 	ldr	r5, [sp, #84]	; 0x54
     7b8:	e58d401c 	str	r4, [sp, #28]
     7bc:	e0457007 	sub	r7, r5, r7
     7c0:	e1cd41d8 	ldrd	r4, [sp, #24]
     7c4:	e0944007 	adds	r4, r4, r7
     7c8:	e2a55000 	adc	r5, r5, #0
     7cc:	e1a07134 	lsr	r7, r4, r1
     7d0:	e1877e15 	orr	r7, r7, r5, lsl lr
     7d4:	e1873335 	orr	r3, r7, r5, lsr r3
     7d8:	e58d3054 	str	r3, [sp, #84]	; 0x54
     7dc:	eaffffc4 	b	6f4 <opj_dwt_get_band_coordinates.isra.2+0x64>
     7e0:	e2413001 	sub	r3, r1, #1
     7e4:	e59d4050 	ldr	r4, [sp, #80]	; 0x50
     7e8:	e1a03312 	lsl	r3, r2, r3
     7ec:	e1530004 	cmp	r3, r4
     7f0:	23a03000 	movcs	r3, #0
     7f4:	258d3050 	strcs	r3, [sp, #80]	; 0x50
     7f8:	2affffb7 	bcs	6dc <opj_dwt_get_band_coordinates.isra.2+0x4c>
     7fc:	e3a09001 	mov	r9, #1
     800:	e2416020 	sub	r6, r1, #32
     804:	e2618020 	rsb	r8, r1, #32
     808:	e1a04619 	lsl	r4, r9, r6
     80c:	e1a05119 	lsl	r5, r9, r1
     810:	e1844839 	orr	r4, r4, r9, lsr r8
     814:	e2555001 	subs	r5, r5, #1
     818:	e2c44000 	sbc	r4, r4, #0
     81c:	e58d5010 	str	r5, [sp, #16]
     820:	e59d5050 	ldr	r5, [sp, #80]	; 0x50
     824:	e58d4014 	str	r4, [sp, #20]
     828:	e0453003 	sub	r3, r5, r3
     82c:	e1cd41d0 	ldrd	r4, [sp, #16]
     830:	e0944003 	adds	r4, r4, r3
     834:	e2a55000 	adc	r5, r5, #0
     838:	e1a03134 	lsr	r3, r4, r1
     83c:	e1833815 	orr	r3, r3, r5, lsl r8
     840:	e1833635 	orr	r3, r3, r5, lsr r6
     844:	e58d3050 	str	r3, [sp, #80]	; 0x50
     848:	eaffffa3 	b	6dc <opj_dwt_get_band_coordinates.isra.2+0x4c>
     84c:	e2414001 	sub	r4, r1, #1
     850:	e1a04417 	lsl	r4, r7, r4
     854:	e1540003 	cmp	r4, r3
     858:	23a03000 	movcs	r3, #0
     85c:	2affff99 	bcs	6c8 <opj_dwt_get_band_coordinates.isra.2+0x38>
     860:	e3a0b001 	mov	fp, #1
     864:	e2418020 	sub	r8, r1, #32
     868:	e2619020 	rsb	r9, r1, #32
     86c:	e58d8004 	str	r8, [sp, #4]
     870:	e1a0881b 	lsl	r8, fp, r8
     874:	e1a0511b 	lsl	r5, fp, r1
     878:	e188b93b 	orr	fp, r8, fp, lsr r9
     87c:	e2555001 	subs	r5, r5, #1
     880:	e0433004 	sub	r3, r3, r4
     884:	e2cb4000 	sbc	r4, fp, #0
     888:	e58d5008 	str	r5, [sp, #8]
     88c:	e58d400c 	str	r4, [sp, #12]
     890:	e1cd40d8 	ldrd	r4, [sp, #8]
     894:	e59d8004 	ldr	r8, [sp, #4]
     898:	e0944003 	adds	r4, r4, r3
     89c:	e2a55000 	adc	r5, r5, #0
     8a0:	e1a03134 	lsr	r3, r4, r1
     8a4:	e1833915 	orr	r3, r3, r5, lsl r9
     8a8:	e1833835 	orr	r3, r3, r5, lsr r8
     8ac:	eaffff85 	b	6c8 <opj_dwt_get_band_coordinates.isra.2+0x38>

000008b0 <opj_int_fix_mul.part.3>:
     8b0:	e92d4010 	push	{r4, lr}
     8b4:	e3a010fb 	mov	r1, #251	; 0xfb
     8b8:	e59f3008 	ldr	r3, [pc, #8]	; 8c8 <opj_int_fix_mul.part.3+0x18>
     8bc:	e59f2008 	ldr	r2, [pc, #8]	; 8cc <opj_int_fix_mul.part.3+0x1c>
     8c0:	e59f0008 	ldr	r0, [pc, #8]	; 8d0 <opj_int_fix_mul.part.3+0x20>
     8c4:	ebfffffe 	bl	0 <__assert_func>
     8c8:	00000024 	.word	0x00000024
     8cc:	0000004c 	.word	0x0000004c
     8d0:	0000005c 	.word	0x0000005c

000008d4 <opj_dwt_init_sparse_array.isra.4>:
     8d4:	e0813181 	add	r3, r1, r1, lsl #3
     8d8:	e92d4ff0 	push	{r4, r5, r6, r7, r8, r9, sl, fp, lr}
     8dc:	e1a04001 	mov	r4, r1
     8e0:	e24dd044 	sub	sp, sp, #68	; 0x44
     8e4:	e0843083 	add	r3, r4, r3, lsl #1
     8e8:	e58d1034 	str	r1, [sp, #52]	; 0x34
     8ec:	e1a03183 	lsl	r3, r3, #3
     8f0:	e5901000 	ldr	r1, [r0]
     8f4:	e2433098 	sub	r3, r3, #152	; 0x98
     8f8:	e0812003 	add	r2, r1, r3
     8fc:	e7913003 	ldr	r3, [r1, r3]
     900:	e592c004 	ldr	ip, [r2, #4]
     904:	e592100c 	ldr	r1, [r2, #12]
     908:	e1a08000 	mov	r8, r0
     90c:	e5920008 	ldr	r0, [r2, #8]
     910:	e041100c 	sub	r1, r1, ip
     914:	e0400003 	sub	r0, r0, r3
     918:	e3510040 	cmp	r1, #64	; 0x40
     91c:	31a03001 	movcc	r3, r1
     920:	23a03040 	movcs	r3, #64	; 0x40
     924:	e3500040 	cmp	r0, #64	; 0x40
     928:	31a02000 	movcc	r2, r0
     92c:	23a02040 	movcs	r2, #64	; 0x40
     930:	ebfffffe 	bl	0 <opj_sparse_array_int32_create>
     934:	e2503000 	subs	r3, r0, #0
     938:	e58d301c 	str	r3, [sp, #28]
     93c:	0a000073 	beq	b10 <opj_dwt_init_sparse_array.isra.4+0x23c>
     940:	e3540000 	cmp	r4, #0
     944:	0a000071 	beq	b10 <opj_dwt_init_sparse_array.isra.4+0x23c>
     948:	e3e03097 	mvn	r3, #151	; 0x97
     94c:	e3a07001 	mov	r7, #1
     950:	e58d3024 	str	r3, [sp, #36]	; 0x24
     954:	e3a03000 	mov	r3, #0
     958:	e58d3038 	str	r3, [sp, #56]	; 0x38
     95c:	e59d2024 	ldr	r2, [sp, #36]	; 0x24
     960:	e5983000 	ldr	r3, [r8]
     964:	e2822098 	add	r2, r2, #152	; 0x98
     968:	e0836002 	add	r6, r3, r2
     96c:	e58d203c 	str	r2, [sp, #60]	; 0x3c
     970:	e5963018 	ldr	r3, [r6, #24]
     974:	e58d602c 	str	r6, [sp, #44]	; 0x2c
     978:	e3530000 	cmp	r3, #0
     97c:	0a00005b 	beq	af0 <opj_dwt_init_sparse_array.isra.4+0x21c>
     980:	e5961014 	ldr	r1, [r6, #20]
     984:	e5962010 	ldr	r2, [r6, #16]
     988:	e3a00000 	mov	r0, #0
     98c:	e58d0030 	str	r0, [sp, #48]	; 0x30
     990:	e0020291 	mul	r2, r1, r2
     994:	e3520000 	cmp	r2, #0
     998:	13a03000 	movne	r3, #0
     99c:	158d3028 	strne	r3, [sp, #40]	; 0x28
     9a0:	0a00004c 	beq	ad8 <opj_dwt_init_sparse_array.isra.4+0x204>
     9a4:	e59d3028 	ldr	r3, [sp, #40]	; 0x28
     9a8:	e0835103 	add	r5, r3, r3, lsl #2
     9ac:	e5963030 	ldr	r3, [r6, #48]	; 0x30
     9b0:	e0835185 	add	r5, r3, r5, lsl #3
     9b4:	e5951010 	ldr	r1, [r5, #16]
     9b8:	e5953014 	ldr	r3, [r5, #20]
     9bc:	e0030391 	mul	r3, r1, r3
     9c0:	e3530000 	cmp	r3, #0
     9c4:	0a00003c 	beq	abc <opj_dwt_init_sparse_array.isra.4+0x1e8>
     9c8:	e3a04000 	mov	r4, #0
     9cc:	e58d8020 	str	r8, [sp, #32]
     9d0:	e0641204 	rsb	r1, r4, r4, lsl #4
     9d4:	e5952018 	ldr	r2, [r5, #24]
     9d8:	e59d001c 	ldr	r0, [sp, #28]
     9dc:	e0821101 	add	r1, r2, r1, lsl #2
     9e0:	e5919038 	ldr	r9, [r1, #56]	; 0x38
     9e4:	e3590000 	cmp	r9, #0
     9e8:	0a00002b 	beq	a9c <opj_dwt_init_sparse_array.isra.4+0x1c8>
     9ec:	e5913008 	ldr	r3, [r1, #8]
     9f0:	e591e010 	ldr	lr, [r1, #16]
     9f4:	e596b01c 	ldr	fp, [r6, #28]
     9f8:	e596a02c 	ldr	sl, [r6, #44]	; 0x2c
     9fc:	e591200c 	ldr	r2, [r1, #12]
     a00:	e591c014 	ldr	ip, [r1, #20]
     a04:	e04ee003 	sub	lr, lr, r3
     a08:	e043100b 	sub	r1, r3, fp
     a0c:	e5963020 	ldr	r3, [r6, #32]
     a10:	e31a0001 	tst	sl, #1
     a14:	e04cc002 	sub	ip, ip, r2
     a18:	e0422003 	sub	r2, r2, r3
     a1c:	0a000007 	beq	a40 <opj_dwt_init_sparse_array.isra.4+0x16c>
     a20:	e59d3020 	ldr	r3, [sp, #32]
     a24:	e593b000 	ldr	fp, [r3]
     a28:	e59d3024 	ldr	r3, [sp, #36]	; 0x24
     a2c:	e08b8003 	add	r8, fp, r3
     a30:	e79bb003 	ldr	fp, [fp, r3]
     a34:	e5983008 	ldr	r3, [r8, #8]
     a38:	e043300b 	sub	r3, r3, fp
     a3c:	e0811003 	add	r1, r1, r3
     a40:	e31a0002 	tst	sl, #2
     a44:	e08e3001 	add	r3, lr, r1
     a48:	0a000007 	beq	a6c <opj_dwt_init_sparse_array.isra.4+0x198>
     a4c:	e59d8020 	ldr	r8, [sp, #32]
     a50:	e59db024 	ldr	fp, [sp, #36]	; 0x24
     a54:	e598a000 	ldr	sl, [r8]
     a58:	e08aa00b 	add	sl, sl, fp
     a5c:	e59ab00c 	ldr	fp, [sl, #12]
     a60:	e59aa004 	ldr	sl, [sl, #4]
     a64:	e04bb00a 	sub	fp, fp, sl
     a68:	e082200b 	add	r2, r2, fp
     a6c:	e08cc002 	add	ip, ip, r2
     a70:	e58d7010 	str	r7, [sp, #16]
     a74:	e58dc000 	str	ip, [sp]
     a78:	e58de00c 	str	lr, [sp, #12]
     a7c:	e58d7008 	str	r7, [sp, #8]
     a80:	e58d9004 	str	r9, [sp, #4]
     a84:	ebfffffe 	bl	0 <opj_sparse_array_int32_write>
     a88:	e3500000 	cmp	r0, #0
     a8c:	0a000022 	beq	b1c <opj_dwt_init_sparse_array.isra.4+0x248>
     a90:	e5953010 	ldr	r3, [r5, #16]
     a94:	e5952014 	ldr	r2, [r5, #20]
     a98:	e0030293 	mul	r3, r3, r2
     a9c:	e2844001 	add	r4, r4, #1
     aa0:	e1540003 	cmp	r4, r3
     aa4:	3affffc9 	bcc	9d0 <opj_dwt_init_sparse_array.isra.4+0xfc>
     aa8:	e59d202c 	ldr	r2, [sp, #44]	; 0x2c
     aac:	e59d8020 	ldr	r8, [sp, #32]
     ab0:	e5923010 	ldr	r3, [r2, #16]
     ab4:	e5922014 	ldr	r2, [r2, #20]
     ab8:	e0020392 	mul	r2, r2, r3
     abc:	e59d3028 	ldr	r3, [sp, #40]	; 0x28
     ac0:	e2833001 	add	r3, r3, #1
     ac4:	e1530002 	cmp	r3, r2
     ac8:	e58d3028 	str	r3, [sp, #40]	; 0x28
     acc:	3affffb4 	bcc	9a4 <opj_dwt_init_sparse_array.isra.4+0xd0>
     ad0:	e59d302c 	ldr	r3, [sp, #44]	; 0x2c
     ad4:	e5933018 	ldr	r3, [r3, #24]
     ad8:	e59d1030 	ldr	r1, [sp, #48]	; 0x30
     adc:	e2866024 	add	r6, r6, #36	; 0x24
     ae0:	e2811001 	add	r1, r1, #1
     ae4:	e1510003 	cmp	r1, r3
     ae8:	e58d1030 	str	r1, [sp, #48]	; 0x30
     aec:	3affffa8 	bcc	994 <opj_dwt_init_sparse_array.isra.4+0xc0>
     af0:	e59d3038 	ldr	r3, [sp, #56]	; 0x38
     af4:	e59d2034 	ldr	r2, [sp, #52]	; 0x34
     af8:	e2833001 	add	r3, r3, #1
     afc:	e58d3038 	str	r3, [sp, #56]	; 0x38
     b00:	e1520003 	cmp	r2, r3
     b04:	e59d303c 	ldr	r3, [sp, #60]	; 0x3c
     b08:	e58d3024 	str	r3, [sp, #36]	; 0x24
     b0c:	1affff92 	bne	95c <opj_dwt_init_sparse_array.isra.4+0x88>
     b10:	e59d001c 	ldr	r0, [sp, #28]
     b14:	e28dd044 	add	sp, sp, #68	; 0x44
     b18:	e8bd8ff0 	pop	{r4, r5, r6, r7, r8, r9, sl, fp, pc}
     b1c:	e1a09000 	mov	r9, r0
     b20:	e59d001c 	ldr	r0, [sp, #28]
     b24:	ebfffffe 	bl	0 <opj_sparse_array_int32_free>
     b28:	e58d901c 	str	r9, [sp, #28]
     b2c:	e59d001c 	ldr	r0, [sp, #28]
     b30:	e28dd044 	add	sp, sp, #68	; 0x44
     b34:	e8bd8ff0 	pop	{r4, r5, r6, r7, r8, r9, sl, fp, pc}

00000b38 <opj_idwt53_v.constprop.6>:
     b38:	e92d4ff0 	push	{r4, r5, r6, r7, r8, r9, sl, fp, lr}
     b3c:	e1a07000 	mov	r7, r0
     b40:	e590300c 	ldr	r3, [r0, #12]
     b44:	e1c040d4 	ldrd	r4, [r0, #4]
     b48:	e3530000 	cmp	r3, #0
     b4c:	e24dd064 	sub	sp, sp, #100	; 0x64
     b50:	e1a0b001 	mov	fp, r1
     b54:	e1a06002 	mov	r6, r2
     b58:	e0854004 	add	r4, r5, r4
     b5c:	1a000003 	bne	b70 <opj_idwt53_v.constprop.6+0x38>
     b60:	e3540001 	cmp	r4, #1
     b64:	ca000012 	bgt	bb4 <opj_idwt53_v.constprop.6+0x7c>
     b68:	e28dd064 	add	sp, sp, #100	; 0x64
     b6c:	e8bd8ff0 	pop	{r4, r5, r6, r7, r8, r9, sl, fp, pc}
     b70:	e3540001 	cmp	r4, #1
     b74:	0a0000ae 	beq	e34 <opj_idwt53_v.constprop.6+0x2fc>
     b78:	e3540002 	cmp	r4, #2
     b7c:	0a0000ce 	beq	ebc <opj_idwt53_v.constprop.6+0x384>
     b80:	dafffff8 	ble	b68 <opj_idwt53_v.constprop.6+0x30>
     b84:	e2818020 	add	r8, r1, #32
     b88:	e58d6000 	str	r6, [sp]
     b8c:	e1a0300b 	mov	r3, fp
     b90:	e1a02004 	mov	r2, r4
     b94:	e28bb004 	add	fp, fp, #4
     b98:	e1a01005 	mov	r1, r5
     b9c:	e5970000 	ldr	r0, [r7]
     ba0:	ebfffd8f 	bl	1e4 <opj_idwt3_v_cas1>
     ba4:	e15b0008 	cmp	fp, r8
     ba8:	1afffff6 	bne	b88 <opj_idwt53_v.constprop.6+0x50>
     bac:	e28dd064 	add	sp, sp, #100	; 0x64
     bb0:	e8bd8ff0 	pop	{r4, r5, r6, r7, r8, r9, sl, fp, pc}
     bb4:	e5907000 	ldr	r7, [r0]
     bb8:	e244e001 	sub	lr, r4, #1
     bbc:	e1a08102 	lsl	r8, r2, #2
     bc0:	e1a03127 	lsr	r3, r7, #2
     bc4:	e203c001 	and	ip, r3, #1
     bc8:	e044200c 	sub	r2, r4, ip
     bcc:	e3c21001 	bic	r1, r2, #1
     bd0:	e1a000ce 	asr	r0, lr, #1
     bd4:	e08ca001 	add	sl, ip, r1
     bd8:	e58de01c 	str	lr, [sp, #28]
     bdc:	e58d1044 	str	r1, [sp, #68]	; 0x44
     be0:	e1a0100b 	mov	r1, fp
     be4:	e00b089e 	mul	fp, lr, r8
     be8:	e00e0695 	mul	lr, r5, r6
     bec:	e0000098 	mul	r0, r8, r0
     bf0:	e2443004 	sub	r3, r4, #4
     bf4:	e58de010 	str	lr, [sp, #16]
     bf8:	e02e1598 	mla	lr, r8, r5, r1
     bfc:	e58d0014 	str	r0, [sp, #20]
     c00:	e005089a 	mul	r5, sl, r8
     c04:	e087010c 	add	r0, r7, ip, lsl #2
     c08:	e58dc03c 	str	ip, [sp, #60]	; 0x3c
     c0c:	e58d2038 	str	r2, [sp, #56]	; 0x38
     c10:	e00c089c 	mul	ip, ip, r8
     c14:	e2449107 	sub	r9, r4, #-1073741823	; 0xc0000001
     c18:	e1a020a2 	lsr	r2, r2, #1
     c1c:	e1a030a3 	lsr	r3, r3, #1
     c20:	e58de05c 	str	lr, [sp, #92]	; 0x5c
     c24:	e1a09109 	lsl	r9, r9, #2
     c28:	e0802182 	add	r2, r0, r2, lsl #3
     c2c:	e287e008 	add	lr, r7, #8
     c30:	e2422008 	sub	r2, r2, #8
     c34:	e58d5008 	str	r5, [sp, #8]
     c38:	e58dc040 	str	ip, [sp, #64]	; 0x40
     c3c:	e2835001 	add	r5, r3, #1
     c40:	e249c004 	sub	ip, r9, #4
     c44:	e08e3183 	add	r3, lr, r3, lsl #3
     c48:	e3580000 	cmp	r8, #0
     c4c:	e58d200c 	str	r2, [sp, #12]
     c50:	e2402008 	sub	r2, r0, #8
     c54:	e59d0014 	ldr	r0, [sp, #20]
     c58:	e58d3014 	str	r3, [sp, #20]
     c5c:	e087300c 	add	r3, r7, ip
     c60:	e58d304c 	str	r3, [sp, #76]	; 0x4c
     c64:	b1a0300b 	movlt	r3, fp
     c68:	a3a03000 	movge	r3, #0
     c6c:	e2476004 	sub	r6, r7, #4
     c70:	e58d3024 	str	r3, [sp, #36]	; 0x24
     c74:	a1a0300b 	movge	r3, fp
     c78:	b3a03000 	movlt	r3, #0
     c7c:	e58d3020 	str	r3, [sp, #32]
     c80:	e0863104 	add	r3, r6, r4, lsl #2
     c84:	e58d6058 	str	r6, [sp, #88]	; 0x58
     c88:	e58d3054 	str	r3, [sp, #84]	; 0x54
     c8c:	e59d605c 	ldr	r6, [sp, #92]	; 0x5c
     c90:	e2813020 	add	r3, r1, #32
     c94:	e58d2048 	str	r2, [sp, #72]	; 0x48
     c98:	e58d3028 	str	r3, [sp, #40]	; 0x28
     c9c:	e2402004 	sub	r2, r0, #4
     ca0:	e2483004 	sub	r3, r8, #4
     ca4:	e087a10a 	add	sl, r7, sl, lsl #2
     ca8:	e0879009 	add	r9, r7, r9
     cac:	e58d2050 	str	r2, [sp, #80]	; 0x50
     cb0:	e58d3034 	str	r3, [sp, #52]	; 0x34
     cb4:	e0872185 	add	r2, r7, r5, lsl #3
     cb8:	e2043001 	and	r3, r4, #1
     cbc:	e58d2030 	str	r2, [sp, #48]	; 0x30
     cc0:	e58d3018 	str	r3, [sp, #24]
     cc4:	e58d402c 	str	r4, [sp, #44]	; 0x2c
     cc8:	e1a0e001 	mov	lr, r1
     ccc:	e4962004 	ldr	r2, [r6], #4
     cd0:	e59d002c 	ldr	r0, [sp, #44]	; 0x2c
     cd4:	e49ec004 	ldr	ip, [lr], #4
     cd8:	e2823001 	add	r3, r2, #1
     cdc:	e3500003 	cmp	r0, #3
     ce0:	e04cc0c3 	sub	ip, ip, r3, asr #1
     ce4:	da000070 	ble	eac <opj_idwt53_v.constprop.6+0x374>
     ce8:	e59d3034 	ldr	r3, [sp, #52]	; 0x34
     cec:	e1a00007 	mov	r0, r7
     cf0:	e083500e 	add	r5, r3, lr
     cf4:	e59d3010 	ldr	r3, [sp, #16]
     cf8:	e2800008 	add	r0, r0, #8
     cfc:	e7954103 	ldr	r4, [r5, r3, lsl #2]
     d00:	e695b008 	ldr	fp, [r5], r8
     d04:	e0843002 	add	r3, r4, r2
     d08:	e2833002 	add	r3, r3, #2
     d0c:	e500c008 	str	ip, [r0, #-8]
     d10:	e04b3143 	sub	r3, fp, r3, asr #2
     d14:	e08cb003 	add	fp, ip, r3
     d18:	e1a0c003 	mov	ip, r3
     d1c:	e08220cb 	add	r2, r2, fp, asr #1
     d20:	e5002004 	str	r2, [r0, #-4]
     d24:	e59d2014 	ldr	r2, [sp, #20]
     d28:	e1500002 	cmp	r0, r2
     d2c:	e1a02004 	mov	r2, r4
     d30:	1affffef 	bne	cf4 <opj_idwt53_v.constprop.6+0x1bc>
     d34:	e59d2030 	ldr	r2, [sp, #48]	; 0x30
     d38:	e59d0018 	ldr	r0, [sp, #24]
     d3c:	e5823000 	str	r3, [r2]
     d40:	e3500000 	cmp	r0, #0
     d44:	00833004 	addeq	r3, r3, r4
     d48:	05893000 	streq	r3, [r9]
     d4c:	0a000008 	beq	d74 <opj_idwt53_v.constprop.6+0x23c>
     d50:	e59d0050 	ldr	r0, [sp, #80]	; 0x50
     d54:	e2842001 	add	r2, r4, #1
     d58:	e79e0000 	ldr	r0, [lr, r0]
     d5c:	e04020c2 	sub	r2, r0, r2, asr #1
     d60:	e0833002 	add	r3, r3, r2
     d64:	e5892000 	str	r2, [r9]
     d68:	e59d204c 	ldr	r2, [sp, #76]	; 0x4c
     d6c:	e08430c3 	add	r3, r4, r3, asr #1
     d70:	e5823000 	str	r3, [r2]
     d74:	e59d3020 	ldr	r3, [sp, #32]
     d78:	e59d2024 	ldr	r2, [sp, #36]	; 0x24
     d7c:	e0813003 	add	r3, r1, r3
     d80:	e0812002 	add	r2, r1, r2
     d84:	e1520009 	cmp	r2, r9
     d88:	91570003 	cmpls	r7, r3
     d8c:	e59d201c 	ldr	r2, [sp, #28]
     d90:	83a03001 	movhi	r3, #1
     d94:	93a03000 	movls	r3, #0
     d98:	e3520008 	cmp	r2, #8
     d9c:	93a03000 	movls	r3, #0
     da0:	82033001 	andhi	r3, r3, #1
     da4:	e3530000 	cmp	r3, #0
     da8:	0a00001a 	beq	e18 <opj_idwt53_v.constprop.6+0x2e0>
     dac:	e59d303c 	ldr	r3, [sp, #60]	; 0x3c
     db0:	e3530000 	cmp	r3, #0
     db4:	15973000 	ldrne	r3, [r7]
     db8:	150e3004 	strne	r3, [lr, #-4]
     dbc:	e59d3040 	ldr	r3, [sp, #64]	; 0x40
     dc0:	e0810003 	add	r0, r1, r3
     dc4:	e59d3048 	ldr	r3, [sp, #72]	; 0x48
     dc8:	e5b34008 	ldr	r4, [r3, #8]!
     dcc:	e59dc00c 	ldr	ip, [sp, #12]
     dd0:	e1a02000 	mov	r2, r0
     dd4:	e15c0003 	cmp	ip, r3
     dd8:	e593c004 	ldr	ip, [r3, #4]
     ddc:	e6824008 	str	r4, [r2], r8
     de0:	e788c000 	str	ip, [r8, r0]
     de4:	e0880002 	add	r0, r8, r2
     de8:	1afffff6 	bne	dc8 <opj_idwt53_v.constprop.6+0x290>
     dec:	e59d3038 	ldr	r3, [sp, #56]	; 0x38
     df0:	e59d2044 	ldr	r2, [sp, #68]	; 0x44
     df4:	e1530002 	cmp	r3, r2
     df8:	159d2008 	ldrne	r2, [sp, #8]
     dfc:	159a3000 	ldrne	r3, [sl]
     e00:	17813002 	strne	r3, [r1, r2]
     e04:	e59d3028 	ldr	r3, [sp, #40]	; 0x28
     e08:	e1a0100e 	mov	r1, lr
     e0c:	e153000e 	cmp	r3, lr
     e10:	1affffac 	bne	cc8 <opj_idwt53_v.constprop.6+0x190>
     e14:	eaffff53 	b	b68 <opj_idwt53_v.constprop.6+0x30>
     e18:	e59d3058 	ldr	r3, [sp, #88]	; 0x58
     e1c:	e59d0054 	ldr	r0, [sp, #84]	; 0x54
     e20:	e5b32004 	ldr	r2, [r3, #4]!
     e24:	e1500003 	cmp	r0, r3
     e28:	e6812008 	str	r2, [r1], r8
     e2c:	1afffffb 	bne	e20 <opj_idwt53_v.constprop.6+0x2e8>
     e30:	eafffff3 	b	e04 <opj_idwt53_v.constprop.6+0x2cc>
     e34:	e8910026 	ldm	r1, {r1, r2, r5}
     e38:	e59b400c 	ldr	r4, [fp, #12]
     e3c:	e59be010 	ldr	lr, [fp, #16]
     e40:	e59bc014 	ldr	ip, [fp, #20]
     e44:	e59b0018 	ldr	r0, [fp, #24]
     e48:	e59b301c 	ldr	r3, [fp, #28]
     e4c:	e0811fa1 	add	r1, r1, r1, lsr #31
     e50:	e0822fa2 	add	r2, r2, r2, lsr #31
     e54:	e0855fa5 	add	r5, r5, r5, lsr #31
     e58:	e0844fa4 	add	r4, r4, r4, lsr #31
     e5c:	e08eefae 	add	lr, lr, lr, lsr #31
     e60:	e08ccfac 	add	ip, ip, ip, lsr #31
     e64:	e0800fa0 	add	r0, r0, r0, lsr #31
     e68:	e0833fa3 	add	r3, r3, r3, lsr #31
     e6c:	e1a010c1 	asr	r1, r1, #1
     e70:	e1a020c2 	asr	r2, r2, #1
     e74:	e1a050c5 	asr	r5, r5, #1
     e78:	e1a040c4 	asr	r4, r4, #1
     e7c:	e1a0e0ce 	asr	lr, lr, #1
     e80:	e1a0c0cc 	asr	ip, ip, #1
     e84:	e1a000c0 	asr	r0, r0, #1
     e88:	e1a030c3 	asr	r3, r3, #1
     e8c:	e88b0026 	stm	fp, {r1, r2, r5}
     e90:	e58b400c 	str	r4, [fp, #12]
     e94:	e58be010 	str	lr, [fp, #16]
     e98:	e58bc014 	str	ip, [fp, #20]
     e9c:	e58b0018 	str	r0, [fp, #24]
     ea0:	e58b301c 	str	r3, [fp, #28]
     ea4:	e28dd064 	add	sp, sp, #100	; 0x64
     ea8:	e8bd8ff0 	pop	{r4, r5, r6, r7, r8, r9, sl, fp, pc}
     eac:	e1a04002 	mov	r4, r2
     eb0:	e1a0300c 	mov	r3, ip
     eb4:	e1a02007 	mov	r2, r7
     eb8:	eaffff9e 	b	d38 <opj_idwt53_v.constprop.6+0x200>
     ebc:	e1a02102 	lsl	r2, r2, #2
     ec0:	e5903000 	ldr	r3, [r0]
     ec4:	e0050592 	mul	r5, r2, r5
     ec8:	e5912000 	ldr	r2, [r1]
     ecc:	e281c004 	add	ip, r1, #4
     ed0:	e7910005 	ldr	r0, [r1, r5]
     ed4:	e2811008 	add	r1, r1, #8
     ed8:	e2800001 	add	r0, r0, #1
     edc:	e28be010 	add	lr, fp, #16
     ee0:	e04220c0 	sub	r2, r2, r0, asr #1
     ee4:	e5832004 	str	r2, [r3, #4]
     ee8:	e79b0005 	ldr	r0, [fp, r5]
     eec:	e0822000 	add	r2, r2, r0
     ef0:	e5832000 	str	r2, [r3]
     ef4:	e58b2000 	str	r2, [fp]
     ef8:	e5932004 	ldr	r2, [r3, #4]
     efc:	e78b2106 	str	r2, [fp, r6, lsl #2]
     f00:	e79c0005 	ldr	r0, [ip, r5]
     f04:	e59b2004 	ldr	r2, [fp, #4]
     f08:	e2800001 	add	r0, r0, #1
     f0c:	e04220c0 	sub	r2, r2, r0, asr #1
     f10:	e5832004 	str	r2, [r3, #4]
     f14:	e79c0005 	ldr	r0, [ip, r5]
     f18:	e0822000 	add	r2, r2, r0
     f1c:	e5832000 	str	r2, [r3]
     f20:	e58b2004 	str	r2, [fp, #4]
     f24:	e5932004 	ldr	r2, [r3, #4]
     f28:	e28b000c 	add	r0, fp, #12
     f2c:	e78c2106 	str	r2, [ip, r6, lsl #2]
     f30:	e791c005 	ldr	ip, [r1, r5]
     f34:	e59b2008 	ldr	r2, [fp, #8]
     f38:	e28cc001 	add	ip, ip, #1
     f3c:	e04220cc 	sub	r2, r2, ip, asr #1
     f40:	e5832004 	str	r2, [r3, #4]
     f44:	e791c005 	ldr	ip, [r1, r5]
     f48:	e082200c 	add	r2, r2, ip
     f4c:	e5832000 	str	r2, [r3]
     f50:	e58b2008 	str	r2, [fp, #8]
     f54:	e5932004 	ldr	r2, [r3, #4]
     f58:	e28bc014 	add	ip, fp, #20
     f5c:	e7812106 	str	r2, [r1, r6, lsl #2]
     f60:	e7901005 	ldr	r1, [r0, r5]
     f64:	e59b200c 	ldr	r2, [fp, #12]
     f68:	e2811001 	add	r1, r1, #1
     f6c:	e04220c1 	sub	r2, r2, r1, asr #1
     f70:	e5832004 	str	r2, [r3, #4]
     f74:	e7901005 	ldr	r1, [r0, r5]
     f78:	e0822001 	add	r2, r2, r1
     f7c:	e5832000 	str	r2, [r3]
     f80:	e58b200c 	str	r2, [fp, #12]
     f84:	e5932004 	ldr	r2, [r3, #4]
     f88:	e7802106 	str	r2, [r0, r6, lsl #2]
     f8c:	e79e1005 	ldr	r1, [lr, r5]
     f90:	e59b2010 	ldr	r2, [fp, #16]
     f94:	e2811001 	add	r1, r1, #1
     f98:	e28b0018 	add	r0, fp, #24
     f9c:	e04220c1 	sub	r2, r2, r1, asr #1
     fa0:	e5832004 	str	r2, [r3, #4]
     fa4:	e79e1005 	ldr	r1, [lr, r5]
     fa8:	e0822001 	add	r2, r2, r1
     fac:	e5832000 	str	r2, [r3]
     fb0:	e58b2010 	str	r2, [fp, #16]
     fb4:	e5932004 	ldr	r2, [r3, #4]
     fb8:	e78e2106 	str	r2, [lr, r6, lsl #2]
     fbc:	e79c1005 	ldr	r1, [ip, r5]
     fc0:	e59b2014 	ldr	r2, [fp, #20]
     fc4:	e2811001 	add	r1, r1, #1
     fc8:	e04220c1 	sub	r2, r2, r1, asr #1
     fcc:	e5832004 	str	r2, [r3, #4]
     fd0:	e79c1005 	ldr	r1, [ip, r5]
     fd4:	e0822001 	add	r2, r2, r1
     fd8:	e5832000 	str	r2, [r3]
     fdc:	e58b2014 	str	r2, [fp, #20]
     fe0:	e5932004 	ldr	r2, [r3, #4]
     fe4:	e28b101c 	add	r1, fp, #28
     fe8:	e78c2106 	str	r2, [ip, r6, lsl #2]
     fec:	e790c005 	ldr	ip, [r0, r5]
     ff0:	e59b2018 	ldr	r2, [fp, #24]
     ff4:	e28cc001 	add	ip, ip, #1
     ff8:	e04220cc 	sub	r2, r2, ip, asr #1
     ffc:	e5832004 	str	r2, [r3, #4]
    1000:	e790c005 	ldr	ip, [r0, r5]
    1004:	e082200c 	add	r2, r2, ip
    1008:	e5832000 	str	r2, [r3]
    100c:	e58b2018 	str	r2, [fp, #24]
    1010:	e5932004 	ldr	r2, [r3, #4]
    1014:	e7802106 	str	r2, [r0, r6, lsl #2]
    1018:	e7910005 	ldr	r0, [r1, r5]
    101c:	e59b201c 	ldr	r2, [fp, #28]
    1020:	e2800001 	add	r0, r0, #1
    1024:	e04220c0 	sub	r2, r2, r0, asr #1
    1028:	e5832004 	str	r2, [r3, #4]
    102c:	e7910005 	ldr	r0, [r1, r5]
    1030:	e0822000 	add	r2, r2, r0
    1034:	e5832000 	str	r2, [r3]
    1038:	e58b201c 	str	r2, [fp, #28]
    103c:	e5933004 	ldr	r3, [r3, #4]
    1040:	e7813106 	str	r3, [r1, r6, lsl #2]
    1044:	eafffec7 	b	b68 <opj_idwt53_v.constprop.6+0x30>

00001048 <opj_v4dwt_decode>:
    1048:	e92d4ff0 	push	{r4, r5, r6, r7, r8, r9, sl, fp, lr}
    104c:	e1a04000 	mov	r4, r0
    1050:	e590500c 	ldr	r5, [r0, #12]
    1054:	e24dd014 	sub	sp, sp, #20
    1058:	e3550000 	cmp	r5, #0
    105c:	e590e008 	ldr	lr, [r0, #8]
    1060:	e590a004 	ldr	sl, [r0, #4]
    1064:	1a000008 	bne	108c <opj_v4dwt_decode+0x44>
    1068:	e35a0000 	cmp	sl, #0
    106c:	da00006b 	ble	1220 <opj_v4dwt_decode+0x1d8>
    1070:	e3a08010 	mov	r8, #16
    1074:	e3a03001 	mov	r3, #1
    1078:	e1a07008 	mov	r7, r8
    107c:	e3a09020 	mov	r9, #32
    1080:	e1a06005 	mov	r6, r5
    1084:	e58d300c 	str	r3, [sp, #12]
    1088:	ea000008 	b	10b0 <opj_v4dwt_decode+0x68>
    108c:	e35e0000 	cmp	lr, #0
    1090:	da00005f 	ble	1214 <opj_v4dwt_decode+0x1cc>
    1094:	e3a09010 	mov	r9, #16
    1098:	e24aa001 	sub	sl, sl, #1
    109c:	e1a06009 	mov	r6, r9
    10a0:	e3a08020 	mov	r8, #32
    10a4:	e3a05001 	mov	r5, #1
    10a8:	e3a07000 	mov	r7, #0
    10ac:	e58d700c 	str	r7, [sp, #12]
    10b0:	e1c421d0 	ldrd	r2, [r4, #16]
    10b4:	e5941000 	ldr	r1, [r4]
    10b8:	e1520003 	cmp	r2, r3
    10bc:	e081c006 	add	ip, r1, r6
    10c0:	2a000011 	bcs	110c <opj_v4dwt_decode+0xc4>
    10c4:	eddf7a58 	vldr	s15, [pc, #352]	; 122c <opj_v4dwt_decode+0x1e4>
    10c8:	e08c0282 	add	r0, ip, r2, lsl #5
    10cc:	e08cc283 	add	ip, ip, r3, lsl #5
    10d0:	edd05a01 	vldr	s11, [r0, #4]
    10d4:	ed906a02 	vldr	s12, [r0, #8]
    10d8:	edd06a03 	vldr	s13, [r0, #12]
    10dc:	ed907a00 	vldr	s14, [r0]
    10e0:	ee655aa7 	vmul.f32	s11, s11, s15
    10e4:	ee266a27 	vmul.f32	s12, s12, s15
    10e8:	ee666aa7 	vmul.f32	s13, s13, s15
    10ec:	ee277a27 	vmul.f32	s14, s14, s15
    10f0:	e2800020 	add	r0, r0, #32
    10f4:	ed405a07 	vstr	s11, [r0, #-28]	; 0xffffffe4
    10f8:	ed006a06 	vstr	s12, [r0, #-24]	; 0xffffffe8
    10fc:	ed406a05 	vstr	s13, [r0, #-20]	; 0xffffffec
    1100:	ed007a08 	vstr	s14, [r0, #-32]	; 0xffffffe0
    1104:	e15c0000 	cmp	ip, r0
    1108:	1afffff0 	bne	10d0 <opj_v4dwt_decode+0x88>
    110c:	e594c018 	ldr	ip, [r4, #24]
    1110:	e594b01c 	ldr	fp, [r4, #28]
    1114:	e0810007 	add	r0, r1, r7
    1118:	e15c000b 	cmp	ip, fp
    111c:	2a000011 	bcs	1168 <opj_v4dwt_decode+0x120>
    1120:	eddf7a42 	vldr	s15, [pc, #264]	; 1230 <opj_v4dwt_decode+0x1e8>
    1124:	e080c28c 	add	ip, r0, ip, lsl #5
    1128:	e080b28b 	add	fp, r0, fp, lsl #5
    112c:	eddc5a01 	vldr	s11, [ip, #4]
    1130:	ed9c6a02 	vldr	s12, [ip, #8]
    1134:	eddc6a03 	vldr	s13, [ip, #12]
    1138:	ed9c7a00 	vldr	s14, [ip]
    113c:	ee655aa7 	vmul.f32	s11, s11, s15
    1140:	ee266a27 	vmul.f32	s12, s12, s15
    1144:	ee666aa7 	vmul.f32	s13, s13, s15
    1148:	ee277a27 	vmul.f32	s14, s14, s15
    114c:	e28cc020 	add	ip, ip, #32
    1150:	ed4c5a07 	vstr	s11, [ip, #-28]	; 0xffffffe4
    1154:	ed0c6a06 	vstr	s12, [ip, #-24]	; 0xffffffe8
    1158:	ed4c6a05 	vstr	s13, [ip, #-20]	; 0xffffffec
    115c:	ed0c7a08 	vstr	s14, [ip, #-32]	; 0xffffffe0
    1160:	e15c000b 	cmp	ip, fp
    1164:	1afffff0 	bne	112c <opj_v4dwt_decode+0xe4>
    1168:	e15e000a 	cmp	lr, sl
    116c:	a1a0e00a 	movge	lr, sl
    1170:	e58de000 	str	lr, [sp]
    1174:	e0811008 	add	r1, r1, r8
    1178:	ed9f0a2d 	vldr	s0, [pc, #180]	; 1234 <opj_v4dwt_decode+0x1ec>
    117c:	ebfffca8 	bl	424 <opj_v4dwt_decode_step2>
    1180:	e1c420d4 	ldrd	r2, [r4, #4]
    1184:	e59da00c 	ldr	sl, [sp, #12]
    1188:	e5940000 	ldr	r0, [r4]
    118c:	e043300a 	sub	r3, r3, sl
    1190:	e1530002 	cmp	r3, r2
    1194:	a1a03002 	movge	r3, r2
    1198:	e0801009 	add	r1, r0, r9
    119c:	e58d3000 	str	r3, [sp]
    11a0:	e0800006 	add	r0, r0, r6
    11a4:	e1c421d8 	ldrd	r2, [r4, #24]
    11a8:	ed9f0a22 	vldr	s0, [pc, #136]	; 1238 <opj_v4dwt_decode+0x1f0>
    11ac:	ebfffc9c 	bl	424 <opj_v4dwt_decode_step2>
    11b0:	e5943004 	ldr	r3, [r4, #4]
    11b4:	e5942008 	ldr	r2, [r4, #8]
    11b8:	e0435005 	sub	r5, r3, r5
    11bc:	e1550002 	cmp	r5, r2
    11c0:	e5940000 	ldr	r0, [r4]
    11c4:	a1a05002 	movge	r5, r2
    11c8:	e0801008 	add	r1, r0, r8
    11cc:	e58d5000 	str	r5, [sp]
    11d0:	e0800007 	add	r0, r0, r7
    11d4:	ed9f0a18 	vldr	s0, [pc, #96]	; 123c <opj_v4dwt_decode+0x1f4>
    11d8:	e1c421d0 	ldrd	r2, [r4, #16]
    11dc:	ebfffc90 	bl	424 <opj_v4dwt_decode_step2>
    11e0:	e1c420d4 	ldrd	r2, [r4, #4]
    11e4:	e5940000 	ldr	r0, [r4]
    11e8:	ed9f0a14 	vldr	s0, [pc, #80]	; 1240 <opj_v4dwt_decode+0x1f8>
    11ec:	e043300a 	sub	r3, r3, sl
    11f0:	e1530002 	cmp	r3, r2
    11f4:	a1a03002 	movge	r3, r2
    11f8:	e58d3000 	str	r3, [sp]
    11fc:	e0801009 	add	r1, r0, r9
    1200:	e1c421d8 	ldrd	r2, [r4, #24]
    1204:	e0800006 	add	r0, r0, r6
    1208:	ebfffc85 	bl	424 <opj_v4dwt_decode_step2>
    120c:	e28dd014 	add	sp, sp, #20
    1210:	e8bd8ff0 	pop	{r4, r5, r6, r7, r8, r9, sl, fp, pc}
    1214:	e35a0001 	cmp	sl, #1
    1218:	caffff9d 	bgt	1094 <opj_v4dwt_decode+0x4c>
    121c:	eafffffa 	b	120c <opj_v4dwt_decode+0x1c4>
    1220:	e35e0001 	cmp	lr, #1
    1224:	caffff91 	bgt	1070 <opj_v4dwt_decode+0x28>
    1228:	eafffff7 	b	120c <opj_v4dwt_decode+0x1c4>
    122c:	3f9d7658 	.word	0x3f9d7658
    1230:	3fd01800 	.word	0x3fd01800
    1234:	bee31355 	.word	0xbee31355
    1238:	bf620676 	.word	0xbf620676
    123c:	3d5901ae 	.word	0x3d5901ae
    1240:	3fcb0673 	.word	0x3fcb0673

00001244 <opj_dwt_encode_1_real>:
    1244:	e92d4ff0 	push	{r4, r5, r6, r7, r8, r9, sl, fp, lr}
    1248:	e2538000 	subs	r8, r3, #0
    124c:	e24dd01c 	sub	sp, sp, #28
    1250:	e1a0c001 	mov	ip, r1
    1254:	e1a0e002 	mov	lr, r2
    1258:	1a000032 	bne	1328 <opj_dwt_encode_1_real+0xe4>
    125c:	e3520001 	cmp	r2, #1
    1260:	d3510000 	cmple	r1, #0
    1264:	da000032 	ble	1334 <opj_dwt_encode_1_real+0xf0>
    1268:	e3510000 	cmp	r1, #0
    126c:	da00026a 	ble	1c1c <opj_dwt_encode_1_real+0x9d8>
    1270:	e2423001 	sub	r3, r2, #1
    1274:	e58d3014 	str	r3, [sp, #20]
    1278:	e59f7a08 	ldr	r7, [pc, #2568]	; 1c88 <opj_dwt_encode_1_real+0xa44>
    127c:	e0809183 	add	r9, r0, r3, lsl #3
    1280:	e1a01008 	mov	r1, r8
    1284:	e3a0aa01 	mov	sl, #4096	; 0x1000
    1288:	e3a0b000 	mov	fp, #0
    128c:	e2406004 	sub	r6, r0, #4
    1290:	ea00001c 	b	1308 <opj_dwt_encode_1_real+0xc4>
    1294:	e5994000 	ldr	r4, [r9]
    1298:	e0844003 	add	r4, r4, r3
    129c:	e1a0200a 	mov	r2, sl
    12a0:	e1a0300b 	mov	r3, fp
    12a4:	e0e32497 	smlal	r2, r3, r7, r4
    12a8:	e1a05003 	mov	r5, r3
    12ac:	e1a036a2 	lsr	r3, r2, #13
    12b0:	e1833985 	orr	r3, r3, r5, lsl #19
    12b4:	e58d3000 	str	r3, [sp]
    12b8:	e1a036c5 	asr	r3, r5, #13
    12bc:	e58d3004 	str	r3, [sp, #4]
    12c0:	e1cd40d0 	ldrd	r4, [sp]
    12c4:	e3e02102 	mvn	r2, #-2147483648	; 0x80000000
    12c8:	e3a03000 	mov	r3, #0
    12cc:	e1520004 	cmp	r2, r4
    12d0:	e0d33005 	sbcs	r3, r3, r5
    12d4:	ba00025f 	blt	1c58 <opj_dwt_encode_1_real+0xa14>
    12d8:	e3a02102 	mov	r2, #-2147483648	; 0x80000000
    12dc:	e3e03000 	mvn	r3, #0
    12e0:	e1540002 	cmp	r4, r2
    12e4:	e0d53003 	sbcs	r3, r5, r3
    12e8:	ba000259 	blt	1c54 <opj_dwt_encode_1_real+0xa10>
    12ec:	e7963181 	ldr	r3, [r6, r1, lsl #3]
    12f0:	e59d2000 	ldr	r2, [sp]
    12f4:	e151000c 	cmp	r1, ip
    12f8:	e0432002 	sub	r2, r3, r2
    12fc:	e7862181 	str	r2, [r6, r1, lsl #3]
    1300:	e1a02006 	mov	r2, r6
    1304:	0a000049 	beq	1430 <opj_dwt_encode_1_real+0x1ec>
    1308:	e151000e 	cmp	r1, lr
    130c:	b7903181 	ldrlt	r3, [r0, r1, lsl #3]
    1310:	e2811001 	add	r1, r1, #1
    1314:	a5993000 	ldrge	r3, [r9]
    1318:	e151000e 	cmp	r1, lr
    131c:	aaffffdc 	bge	1294 <opj_dwt_encode_1_real+0x50>
    1320:	e7904181 	ldr	r4, [r0, r1, lsl #3]
    1324:	eaffffdb 	b	1298 <opj_dwt_encode_1_real+0x54>
    1328:	e3510001 	cmp	r1, #1
    132c:	d3520000 	cmple	r2, #0
    1330:	ca000001 	bgt	133c <opj_dwt_encode_1_real+0xf8>
    1334:	e28dd01c 	add	sp, sp, #28
    1338:	e8bd8ff0 	pop	{r4, r5, r6, r7, r8, r9, sl, fp, pc}
    133c:	e3510000 	cmp	r1, #0
    1340:	da000238 	ble	1c28 <opj_dwt_encode_1_real+0x9e4>
    1344:	e2423001 	sub	r3, r2, #1
    1348:	e58d3014 	str	r3, [sp, #20]
    134c:	e0807183 	add	r7, r0, r3, lsl #3
    1350:	e2403004 	sub	r3, r0, #4
    1354:	e58d300c 	str	r3, [sp, #12]
    1358:	e2803004 	add	r3, r0, #4
    135c:	e59f6924 	ldr	r6, [pc, #2340]	; 1c88 <opj_dwt_encode_1_real+0xa44>
    1360:	e2877004 	add	r7, r7, #4
    1364:	e3a01000 	mov	r1, #0
    1368:	e58d3010 	str	r3, [sp, #16]
    136c:	e3a0aa01 	mov	sl, #4096	; 0x1000
    1370:	e3a0b000 	mov	fp, #0
    1374:	e3e08102 	mvn	r8, #-2147483648	; 0x80000000
    1378:	e3a09000 	mov	r9, #0
    137c:	ea00001e 	b	13fc <opj_dwt_encode_1_real+0x1b8>
    1380:	e59d3010 	ldr	r3, [sp, #16]
    1384:	e3510000 	cmp	r1, #0
    1388:	e7934181 	ldr	r4, [r3, r1, lsl #3]
    138c:	0a000023 	beq	1420 <opj_dwt_encode_1_real+0x1dc>
    1390:	e59d300c 	ldr	r3, [sp, #12]
    1394:	e7933181 	ldr	r3, [r3, r1, lsl #3]
    1398:	e0834004 	add	r4, r3, r4
    139c:	e1a0200a 	mov	r2, sl
    13a0:	e1a0300b 	mov	r3, fp
    13a4:	e0e32496 	smlal	r2, r3, r6, r4
    13a8:	e1a05003 	mov	r5, r3
    13ac:	e1a036a2 	lsr	r3, r2, #13
    13b0:	e1833985 	orr	r3, r3, r5, lsl #19
    13b4:	e58d3000 	str	r3, [sp]
    13b8:	e1a036c5 	asr	r3, r5, #13
    13bc:	e58d3004 	str	r3, [sp, #4]
    13c0:	e1cd40d0 	ldrd	r4, [sp]
    13c4:	e1580004 	cmp	r8, r4
    13c8:	e0d93005 	sbcs	r3, r9, r5
    13cc:	ba000221 	blt	1c58 <opj_dwt_encode_1_real+0xa14>
    13d0:	e3a02102 	mov	r2, #-2147483648	; 0x80000000
    13d4:	e3e03000 	mvn	r3, #0
    13d8:	e1540002 	cmp	r4, r2
    13dc:	e0d53003 	sbcs	r3, r5, r3
    13e0:	ba00021b 	blt	1c54 <opj_dwt_encode_1_real+0xa10>
    13e4:	e7903181 	ldr	r3, [r0, r1, lsl #3]
    13e8:	e0432004 	sub	r2, r3, r4
    13ec:	e7802181 	str	r2, [r0, r1, lsl #3]
    13f0:	e2811001 	add	r1, r1, #1
    13f4:	e15c0001 	cmp	ip, r1
    13f8:	0a0000d0 	beq	1740 <opj_dwt_encode_1_real+0x4fc>
    13fc:	e15e0001 	cmp	lr, r1
    1400:	caffffde 	bgt	1380 <opj_dwt_encode_1_real+0x13c>
    1404:	e3510000 	cmp	r1, #0
    1408:	e5973000 	ldr	r3, [r7]
    140c:	0a000004 	beq	1424 <opj_dwt_encode_1_real+0x1e0>
    1410:	e15e0001 	cmp	lr, r1
    1414:	e1a04003 	mov	r4, r3
    1418:	baffffde 	blt	1398 <opj_dwt_encode_1_real+0x154>
    141c:	eaffffdb 	b	1390 <opj_dwt_encode_1_real+0x14c>
    1420:	e1a03004 	mov	r3, r4
    1424:	e1a04003 	mov	r4, r3
    1428:	e5903004 	ldr	r3, [r0, #4]
    142c:	eaffffd9 	b	1398 <opj_dwt_encode_1_real+0x154>
    1430:	e35e0000 	cmp	lr, #0
    1434:	da0001f4 	ble	1c0c <opj_dwt_encode_1_real+0x9c8>
    1438:	e24c3001 	sub	r3, ip, #1
    143c:	e58d300c 	str	r3, [sp, #12]
    1440:	e1a03083 	lsl	r3, r3, #1
    1444:	e35c0000 	cmp	ip, #0
    1448:	e2833001 	add	r3, r3, #1
    144c:	e5904004 	ldr	r4, [r0, #4]
    1450:	e0801103 	add	r1, r0, r3, lsl #2
    1454:	d7903103 	ldrle	r3, [r0, r3, lsl #2]
    1458:	d59f582c 	ldrle	r5, [pc, #2092]	; 1c8c <opj_dwt_encode_1_real+0xa48>
    145c:	c59f5828 	ldrgt	r5, [pc, #2088]	; 1c8c <opj_dwt_encode_1_real+0xa48>
    1460:	d0844003 	addle	r4, r4, r3
    1464:	c1a04084 	lslgt	r4, r4, #1
    1468:	e3a02a01 	mov	r2, #4096	; 0x1000
    146c:	e3a03000 	mov	r3, #0
    1470:	e0e32495 	smlal	r2, r3, r5, r4
    1474:	e5904000 	ldr	r4, [r0]
    1478:	e1a07003 	mov	r7, r3
    147c:	e1a026a2 	lsr	r2, r2, #13
    1480:	e1822983 	orr	r2, r2, r3, lsl #19
    1484:	e0443002 	sub	r3, r4, r2
    1488:	e35e0001 	cmp	lr, #1
    148c:	e5803000 	str	r3, [r0]
    1490:	0a00001e 	beq	1510 <opj_dwt_encode_1_real+0x2cc>
    1494:	e2809004 	add	r9, r0, #4
    1498:	e59f77ec 	ldr	r7, [pc, #2028]	; 1c8c <opj_dwt_encode_1_real+0xa48>
    149c:	e3a06001 	mov	r6, #1
    14a0:	e240a004 	sub	sl, r0, #4
    14a4:	e3a04a01 	mov	r4, #4096	; 0x1000
    14a8:	e3a05000 	mov	r5, #0
    14ac:	e58d8010 	str	r8, [sp, #16]
    14b0:	e58d9000 	str	r9, [sp]
    14b4:	ea00000d 	b	14f0 <opj_dwt_encode_1_real+0x2ac>
    14b8:	e5913000 	ldr	r3, [r1]
    14bc:	e1a02003 	mov	r2, r3
    14c0:	e0833002 	add	r3, r3, r2
    14c4:	e1a08004 	mov	r8, r4
    14c8:	e1a09005 	mov	r9, r5
    14cc:	e0e98397 	smlal	r8, r9, r7, r3
    14d0:	e790b186 	ldr	fp, [r0, r6, lsl #3]
    14d4:	e1a026a8 	lsr	r2, r8, #13
    14d8:	e1822989 	orr	r2, r2, r9, lsl #19
    14dc:	e04b3002 	sub	r3, fp, r2
    14e0:	e7803186 	str	r3, [r0, r6, lsl #3]
    14e4:	e2866001 	add	r6, r6, #1
    14e8:	e15e0006 	cmp	lr, r6
    14ec:	0a000006 	beq	150c <opj_dwt_encode_1_real+0x2c8>
    14f0:	e15c0006 	cmp	ip, r6
    14f4:	baffffef 	blt	14b8 <opj_dwt_encode_1_real+0x274>
    14f8:	159d2000 	ldrne	r2, [sp]
    14fc:	e79a3186 	ldr	r3, [sl, r6, lsl #3]
    1500:	05912000 	ldreq	r2, [r1]
    1504:	17922186 	ldrne	r2, [r2, r6, lsl #3]
    1508:	eaffffec 	b	14c0 <opj_dwt_encode_1_real+0x27c>
    150c:	e59d8010 	ldr	r8, [sp, #16]
    1510:	e35c0000 	cmp	ip, #0
    1514:	da00005e 	ble	1694 <opj_dwt_encode_1_real+0x450>
    1518:	e24e1001 	sub	r1, lr, #1
    151c:	e15c000e 	cmp	ip, lr
    1520:	e59f6768 	ldr	r6, [pc, #1896]	; 1c90 <opj_dwt_encode_1_real+0xa4c>
    1524:	b1a0700c 	movlt	r7, ip
    1528:	a1a0700e 	movge	r7, lr
    152c:	e0801181 	add	r1, r0, r1, lsl #3
    1530:	e3a03000 	mov	r3, #0
    1534:	e2402004 	sub	r2, r0, #4
    1538:	e3a0aa01 	mov	sl, #4096	; 0x1000
    153c:	e3a0b000 	mov	fp, #0
    1540:	e58d8000 	str	r8, [sp]
    1544:	e7904183 	ldr	r4, [r0, r3, lsl #3]
    1548:	e2833001 	add	r3, r3, #1
    154c:	e153000e 	cmp	r3, lr
    1550:	e1a0800a 	mov	r8, sl
    1554:	a5915000 	ldrge	r5, [r1]
    1558:	b7905183 	ldrlt	r5, [r0, r3, lsl #3]
    155c:	e1a0900b 	mov	r9, fp
    1560:	e0844005 	add	r4, r4, r5
    1564:	e7925183 	ldr	r5, [r2, r3, lsl #3]
    1568:	e0e98496 	smlal	r8, r9, r6, r4
    156c:	e1530007 	cmp	r3, r7
    1570:	e1a046a8 	lsr	r4, r8, #13
    1574:	e1844989 	orr	r4, r4, r9, lsl #19
    1578:	e0854004 	add	r4, r5, r4
    157c:	e7824183 	str	r4, [r2, r3, lsl #3]
    1580:	baffffef 	blt	1544 <opj_dwt_encode_1_real+0x300>
    1584:	e153000c 	cmp	r3, ip
    1588:	e59d8000 	ldr	r8, [sp]
    158c:	a59d300c 	ldrge	r3, [sp, #12]
    1590:	aa000019 	bge	15fc <opj_dwt_encode_1_real+0x3b8>
    1594:	e59f96f4 	ldr	r9, [pc, #1780]	; 1c90 <opj_dwt_encode_1_real+0xa4c>
    1598:	e3a06a01 	mov	r6, #4096	; 0x1000
    159c:	e3a07000 	mov	r7, #0
    15a0:	e2833001 	add	r3, r3, #1
    15a4:	e15e0003 	cmp	lr, r3
    15a8:	e5914000 	ldr	r4, [r1]
    15ac:	ca000056 	bgt	170c <opj_dwt_encode_1_real+0x4c8>
    15b0:	e1a04084 	lsl	r4, r4, #1
    15b4:	e1a0a006 	mov	sl, r6
    15b8:	e1a0b007 	mov	fp, r7
    15bc:	e0eba499 	smlal	sl, fp, r9, r4
    15c0:	e1a0400a 	mov	r4, sl
    15c4:	e1a0500b 	mov	r5, fp
    15c8:	e792a183 	ldr	sl, [r2, r3, lsl #3]
    15cc:	e1cd40f0 	strd	r4, [sp]
    15d0:	e59d5004 	ldr	r5, [sp, #4]
    15d4:	e1a046a4 	lsr	r4, r4, #13
    15d8:	e15c0003 	cmp	ip, r3
    15dc:	e1844985 	orr	r4, r4, r5, lsl #19
    15e0:	e08a4004 	add	r4, sl, r4
    15e4:	e7824183 	str	r4, [r2, r3, lsl #3]
    15e8:	caffffec 	bgt	15a0 <opj_dwt_encode_1_real+0x35c>
    15ec:	e35e0000 	cmp	lr, #0
    15f0:	da0000ed 	ble	19ac <opj_dwt_encode_1_real+0x768>
    15f4:	e24c3001 	sub	r3, ip, #1
    15f8:	e58d300c 	str	r3, [sp, #12]
    15fc:	e0801183 	add	r1, r0, r3, lsl #3
    1600:	e35c0000 	cmp	ip, #0
    1604:	e2811004 	add	r1, r1, #4
    1608:	da000021 	ble	1694 <opj_dwt_encode_1_real+0x450>
    160c:	e15c000e 	cmp	ip, lr
    1610:	e2809004 	add	r9, r0, #4
    1614:	e59f7678 	ldr	r7, [pc, #1656]	; 1c94 <opj_dwt_encode_1_real+0xa50>
    1618:	b1a0300c 	movlt	r3, ip
    161c:	a1a0300e 	movge	r3, lr
    1620:	e3a06000 	mov	r6, #0
    1624:	e3a0aa01 	mov	sl, #4096	; 0x1000
    1628:	e3a0b000 	mov	fp, #0
    162c:	e58d800c 	str	r8, [sp, #12]
    1630:	e58d9000 	str	r9, [sp]
    1634:	ea00000e 	b	1674 <opj_dwt_encode_1_real+0x430>
    1638:	e7924186 	ldr	r4, [r2, r6, lsl #3]
    163c:	e59d5000 	ldr	r5, [sp]
    1640:	e7955186 	ldr	r5, [r5, r6, lsl #3]
    1644:	e0844005 	add	r4, r4, r5
    1648:	e1a0800a 	mov	r8, sl
    164c:	e1a0900b 	mov	r9, fp
    1650:	e0e98497 	smlal	r8, r9, r7, r4
    1654:	e7905186 	ldr	r5, [r0, r6, lsl #3]
    1658:	e1a046a8 	lsr	r4, r8, #13
    165c:	e1844989 	orr	r4, r4, r9, lsl #19
    1660:	e0854004 	add	r4, r5, r4
    1664:	e7804186 	str	r4, [r0, r6, lsl #3]
    1668:	e2866001 	add	r6, r6, #1
    166c:	e1560003 	cmp	r6, r3
    1670:	aa000161 	bge	1bfc <opj_dwt_encode_1_real+0x9b8>
    1674:	e3560000 	cmp	r6, #0
    1678:	05904004 	ldreq	r4, [r0, #4]
    167c:	0affffee 	beq	163c <opj_dwt_encode_1_real+0x3f8>
    1680:	e15c0006 	cmp	ip, r6
    1684:	aaffffeb 	bge	1638 <opj_dwt_encode_1_real+0x3f4>
    1688:	e5915000 	ldr	r5, [r1]
    168c:	e1a04005 	mov	r4, r5
    1690:	eaffffeb 	b	1644 <opj_dwt_encode_1_real+0x400>
    1694:	e3a06000 	mov	r6, #0
    1698:	e2409004 	sub	r9, r0, #4
    169c:	e59f75f0 	ldr	r7, [pc, #1520]	; 1c94 <opj_dwt_encode_1_real+0xa50>
    16a0:	e3a04a01 	mov	r4, #4096	; 0x1000
    16a4:	e3a05000 	mov	r5, #0
    16a8:	e58d8000 	str	r8, [sp]
    16ac:	e1a0b009 	mov	fp, r9
    16b0:	ea00000d 	b	16ec <opj_dwt_encode_1_real+0x4a8>
    16b4:	e5913000 	ldr	r3, [r1]
    16b8:	e1a02003 	mov	r2, r3
    16bc:	e0833002 	add	r3, r3, r2
    16c0:	e1a08004 	mov	r8, r4
    16c4:	e1a09005 	mov	r9, r5
    16c8:	e0e98397 	smlal	r8, r9, r7, r3
    16cc:	e790a186 	ldr	sl, [r0, r6, lsl #3]
    16d0:	e1a026a8 	lsr	r2, r8, #13
    16d4:	e1822989 	orr	r2, r2, r9, lsl #19
    16d8:	e08a3002 	add	r3, sl, r2
    16dc:	e7803186 	str	r3, [r0, r6, lsl #3]
    16e0:	e2866001 	add	r6, r6, #1
    16e4:	e15e0006 	cmp	lr, r6
    16e8:	da0000ac 	ble	19a0 <opj_dwt_encode_1_real+0x75c>
    16ec:	e3560000 	cmp	r6, #0
    16f0:	05903004 	ldreq	r3, [r0, #4]
    16f4:	0a000002 	beq	1704 <opj_dwt_encode_1_real+0x4c0>
    16f8:	e156000c 	cmp	r6, ip
    16fc:	caffffec 	bgt	16b4 <opj_dwt_encode_1_real+0x470>
    1700:	e79b3186 	ldr	r3, [fp, r6, lsl #3]
    1704:	e5912000 	ldr	r2, [r1]
    1708:	eaffffeb 	b	16bc <opj_dwt_encode_1_real+0x478>
    170c:	e7905183 	ldr	r5, [r0, r3, lsl #3]
    1710:	e1a0a006 	mov	sl, r6
    1714:	e0844005 	add	r4, r4, r5
    1718:	e1a0b007 	mov	fp, r7
    171c:	e0eba499 	smlal	sl, fp, r9, r4
    1720:	e7925183 	ldr	r5, [r2, r3, lsl #3]
    1724:	e15c0003 	cmp	ip, r3
    1728:	e1a046aa 	lsr	r4, sl, #13
    172c:	e184498b 	orr	r4, r4, fp, lsl #19
    1730:	e0854004 	add	r4, r5, r4
    1734:	e7824183 	str	r4, [r2, r3, lsl #3]
    1738:	caffff98 	bgt	15a0 <opj_dwt_encode_1_real+0x35c>
    173c:	eaffffac 	b	15f4 <opj_dwt_encode_1_real+0x3b0>
    1740:	e35e0000 	cmp	lr, #0
    1744:	da000033 	ble	1818 <opj_dwt_encode_1_real+0x5d4>
    1748:	e24c3001 	sub	r3, ip, #1
    174c:	e15c000e 	cmp	ip, lr
    1750:	e59f8534 	ldr	r8, [pc, #1332]	; 1c8c <opj_dwt_encode_1_real+0xa48>
    1754:	e58d300c 	str	r3, [sp, #12]
    1758:	e0801183 	add	r1, r0, r3, lsl #3
    175c:	b1a0900c 	movlt	r9, ip
    1760:	a1a0900e 	movge	r9, lr
    1764:	e3a03000 	mov	r3, #0
    1768:	e2402004 	sub	r2, r0, #4
    176c:	e3a06a01 	mov	r6, #4096	; 0x1000
    1770:	e3a07000 	mov	r7, #0
    1774:	e7904183 	ldr	r4, [r0, r3, lsl #3]
    1778:	e2833001 	add	r3, r3, #1
    177c:	e153000c 	cmp	r3, ip
    1780:	e1a0a006 	mov	sl, r6
    1784:	a5915000 	ldrge	r5, [r1]
    1788:	b7905183 	ldrlt	r5, [r0, r3, lsl #3]
    178c:	e1a0b007 	mov	fp, r7
    1790:	e0844005 	add	r4, r4, r5
    1794:	e7925183 	ldr	r5, [r2, r3, lsl #3]
    1798:	e0eba498 	smlal	sl, fp, r8, r4
    179c:	e1530009 	cmp	r3, r9
    17a0:	e1a046aa 	lsr	r4, sl, #13
    17a4:	e184498b 	orr	r4, r4, fp, lsl #19
    17a8:	e0454004 	sub	r4, r5, r4
    17ac:	e7824183 	str	r4, [r2, r3, lsl #3]
    17b0:	baffffef 	blt	1774 <opj_dwt_encode_1_real+0x530>
    17b4:	e153000e 	cmp	r3, lr
    17b8:	aa000045 	bge	18d4 <opj_dwt_encode_1_real+0x690>
    17bc:	e59f84c8 	ldr	r8, [pc, #1224]	; 1c8c <opj_dwt_encode_1_real+0xa48>
    17c0:	e0802183 	add	r2, r0, r3, lsl #3
    17c4:	e3a06a01 	mov	r6, #4096	; 0x1000
    17c8:	e3a07000 	mov	r7, #0
    17cc:	e2833001 	add	r3, r3, #1
    17d0:	e15c0003 	cmp	ip, r3
    17d4:	e5914000 	ldr	r4, [r1]
    17d8:	da00002d 	ble	1894 <opj_dwt_encode_1_real+0x650>
    17dc:	e5925008 	ldr	r5, [r2, #8]
    17e0:	e1a0a006 	mov	sl, r6
    17e4:	e0844005 	add	r4, r4, r5
    17e8:	e1a0b007 	mov	fp, r7
    17ec:	e0eba498 	smlal	sl, fp, r8, r4
    17f0:	e5929004 	ldr	r9, [r2, #4]
    17f4:	e15e0003 	cmp	lr, r3
    17f8:	e1a046aa 	lsr	r4, sl, #13
    17fc:	e184498b 	orr	r4, r4, fp, lsl #19
    1800:	e0494004 	sub	r4, r9, r4
    1804:	e5824004 	str	r4, [r2, #4]
    1808:	e2822008 	add	r2, r2, #8
    180c:	caffffee 	bgt	17cc <opj_dwt_encode_1_real+0x588>
    1810:	e24e3001 	sub	r3, lr, #1
    1814:	e58d3014 	str	r3, [sp, #20]
    1818:	e59d3014 	ldr	r3, [sp, #20]
    181c:	e35e0000 	cmp	lr, #0
    1820:	e0802183 	add	r2, r0, r3, lsl #3
    1824:	e2822004 	add	r2, r2, #4
    1828:	d3a03000 	movle	r3, #0
    182c:	ca00002b 	bgt	18e0 <opj_dwt_encode_1_real+0x69c>
    1830:	e59f8458 	ldr	r8, [pc, #1112]	; 1c90 <opj_dwt_encode_1_real+0xa4c>
    1834:	e2409004 	sub	r9, r0, #4
    1838:	e3a06a01 	mov	r6, #4096	; 0x1000
    183c:	e3a07000 	mov	r7, #0
    1840:	ea00000e 	b	1880 <opj_dwt_encode_1_real+0x63c>
    1844:	e15e0003 	cmp	lr, r3
    1848:	b1a04001 	movlt	r4, r1
    184c:	a7994183 	ldrge	r4, [r9, r3, lsl #3]
    1850:	e0844001 	add	r4, r4, r1
    1854:	e1a0a006 	mov	sl, r6
    1858:	e1a0b007 	mov	fp, r7
    185c:	e0eba498 	smlal	sl, fp, r8, r4
    1860:	e7901183 	ldr	r1, [r0, r3, lsl #3]
    1864:	e1a046aa 	lsr	r4, sl, #13
    1868:	e184498b 	orr	r4, r4, fp, lsl #19
    186c:	e0811004 	add	r1, r1, r4
    1870:	e7801183 	str	r1, [r0, r3, lsl #3]
    1874:	e2833001 	add	r3, r3, #1
    1878:	e15c0003 	cmp	ip, r3
    187c:	da00006e 	ble	1a3c <opj_dwt_encode_1_real+0x7f8>
    1880:	e3530000 	cmp	r3, #0
    1884:	e5921000 	ldr	r1, [r2]
    1888:	1affffed 	bne	1844 <opj_dwt_encode_1_real+0x600>
    188c:	e5904004 	ldr	r4, [r0, #4]
    1890:	eaffffee 	b	1850 <opj_dwt_encode_1_real+0x60c>
    1894:	e1a04084 	lsl	r4, r4, #1
    1898:	e1a0a006 	mov	sl, r6
    189c:	e1a0b007 	mov	fp, r7
    18a0:	e0eba498 	smlal	sl, fp, r8, r4
    18a4:	e5929004 	ldr	r9, [r2, #4]
    18a8:	e15e0003 	cmp	lr, r3
    18ac:	e1a046aa 	lsr	r4, sl, #13
    18b0:	e184498b 	orr	r4, r4, fp, lsl #19
    18b4:	e0494004 	sub	r4, r9, r4
    18b8:	e5824004 	str	r4, [r2, #4]
    18bc:	e2822008 	add	r2, r2, #8
    18c0:	caffffc1 	bgt	17cc <opj_dwt_encode_1_real+0x588>
    18c4:	e35c0000 	cmp	ip, #0
    18c8:	da0000e7 	ble	1c6c <opj_dwt_encode_1_real+0xa28>
    18cc:	e24e3001 	sub	r3, lr, #1
    18d0:	e58d3014 	str	r3, [sp, #20]
    18d4:	e59d3014 	ldr	r3, [sp, #20]
    18d8:	e0802183 	add	r2, r0, r3, lsl #3
    18dc:	e2822004 	add	r2, r2, #4
    18e0:	e15c000e 	cmp	ip, lr
    18e4:	e2801004 	add	r1, r0, #4
    18e8:	e59f73a0 	ldr	r7, [pc, #928]	; 1c90 <opj_dwt_encode_1_real+0xa4c>
    18ec:	b1a0600c 	movlt	r6, ip
    18f0:	a1a0600e 	movge	r6, lr
    18f4:	e3a03000 	mov	r3, #0
    18f8:	e3a0aa01 	mov	sl, #4096	; 0x1000
    18fc:	e3a0b000 	mov	fp, #0
    1900:	e2408004 	sub	r8, r0, #4
    1904:	e58d0000 	str	r0, [sp]
    1908:	e58d100c 	str	r1, [sp, #12]
    190c:	ea00000d 	b	1948 <opj_dwt_encode_1_real+0x704>
    1910:	e7985189 	ldr	r5, [r8, r9, lsl #3]
    1914:	e1a0000a 	mov	r0, sl
    1918:	e0844005 	add	r4, r4, r5
    191c:	e1a0100b 	mov	r1, fp
    1920:	e0e10497 	smlal	r0, r1, r7, r4
    1924:	e2833001 	add	r3, r3, #1
    1928:	e1a046a0 	lsr	r4, r0, #13
    192c:	e59d0000 	ldr	r0, [sp]
    1930:	e1844981 	orr	r4, r4, r1, lsl #19
    1934:	e1530006 	cmp	r3, r6
    1938:	e7901189 	ldr	r1, [r0, r9, lsl #3]
    193c:	e0814004 	add	r4, r1, r4
    1940:	e7804189 	str	r4, [r0, r9, lsl #3]
    1944:	aa00003a 	bge	1a34 <opj_dwt_encode_1_real+0x7f0>
    1948:	e59d500c 	ldr	r5, [sp, #12]
    194c:	e3530000 	cmp	r3, #0
    1950:	e1a09003 	mov	r9, r3
    1954:	e7954183 	ldr	r4, [r5, r3, lsl #3]
    1958:	1affffec 	bne	1910 <opj_dwt_encode_1_real+0x6cc>
    195c:	e59d9000 	ldr	r9, [sp]
    1960:	e1a0000a 	mov	r0, sl
    1964:	e1a0100b 	mov	r1, fp
    1968:	e5993004 	ldr	r3, [r9, #4]
    196c:	e3560001 	cmp	r6, #1
    1970:	e0844003 	add	r4, r4, r3
    1974:	e5993000 	ldr	r3, [r9]
    1978:	e0e10497 	smlal	r0, r1, r7, r4
    197c:	e1a046a0 	lsr	r4, r0, #13
    1980:	e1844981 	orr	r4, r4, r1, lsl #19
    1984:	e0833004 	add	r3, r3, r4
    1988:	e5893000 	str	r3, [r9]
    198c:	da000026 	ble	1a2c <opj_dwt_encode_1_real+0x7e8>
    1990:	e3a03001 	mov	r3, #1
    1994:	e5954008 	ldr	r4, [r5, #8]
    1998:	e1a09003 	mov	r9, r3
    199c:	eaffffdb 	b	1910 <opj_dwt_encode_1_real+0x6cc>
    19a0:	e35c0000 	cmp	ip, #0
    19a4:	e59d8000 	ldr	r8, [sp]
    19a8:	da00000e 	ble	19e8 <opj_dwt_encode_1_real+0x7a4>
    19ac:	e59f72e4 	ldr	r7, [pc, #740]	; 1c98 <opj_dwt_encode_1_real+0xa54>
    19b0:	e3a06000 	mov	r6, #0
    19b4:	e2801004 	add	r1, r0, #4
    19b8:	e3a04a01 	mov	r4, #4096	; 0x1000
    19bc:	e3a05000 	mov	r5, #0
    19c0:	e7913186 	ldr	r3, [r1, r6, lsl #3]
    19c4:	e1a0a004 	mov	sl, r4
    19c8:	e1a0b005 	mov	fp, r5
    19cc:	e0eba397 	smlal	sl, fp, r7, r3
    19d0:	e1a036aa 	lsr	r3, sl, #13
    19d4:	e183398b 	orr	r3, r3, fp, lsl #19
    19d8:	e7813186 	str	r3, [r1, r6, lsl #3]
    19dc:	e2866001 	add	r6, r6, #1
    19e0:	e15c0006 	cmp	ip, r6
    19e4:	cafffff5 	bgt	19c0 <opj_dwt_encode_1_real+0x77c>
    19e8:	e35e0000 	cmp	lr, #0
    19ec:	dafffe50 	ble	1334 <opj_dwt_encode_1_real+0xf0>
    19f0:	e59f22a4 	ldr	r2, [pc, #676]	; 1c9c <opj_dwt_encode_1_real+0xa58>
    19f4:	e3a06a01 	mov	r6, #4096	; 0x1000
    19f8:	e3a07000 	mov	r7, #0
    19fc:	e7903188 	ldr	r3, [r0, r8, lsl #3]
    1a00:	e1a04006 	mov	r4, r6
    1a04:	e1a05007 	mov	r5, r7
    1a08:	e0e54392 	smlal	r4, r5, r2, r3
    1a0c:	e1a036a4 	lsr	r3, r4, #13
    1a10:	e1833985 	orr	r3, r3, r5, lsl #19
    1a14:	e7803188 	str	r3, [r0, r8, lsl #3]
    1a18:	e2888001 	add	r8, r8, #1
    1a1c:	e15e0008 	cmp	lr, r8
    1a20:	1afffff5 	bne	19fc <opj_dwt_encode_1_real+0x7b8>
    1a24:	e28dd01c 	add	sp, sp, #28
    1a28:	e8bd8ff0 	pop	{r4, r5, r6, r7, r8, r9, sl, fp, pc}
    1a2c:	e1a00009 	mov	r0, r9
    1a30:	e3a03001 	mov	r3, #1
    1a34:	e15c0003 	cmp	ip, r3
    1a38:	caffff7c 	bgt	1830 <opj_dwt_encode_1_real+0x5ec>
    1a3c:	e35e0000 	cmp	lr, #0
    1a40:	da000080 	ble	1c48 <opj_dwt_encode_1_real+0xa04>
    1a44:	e24c1001 	sub	r1, ip, #1
    1a48:	e15c000e 	cmp	ip, lr
    1a4c:	e59f8240 	ldr	r8, [pc, #576]	; 1c94 <opj_dwt_encode_1_real+0xa50>
    1a50:	b1a0900c 	movlt	r9, ip
    1a54:	a1a0900e 	movge	r9, lr
    1a58:	e0801181 	add	r1, r0, r1, lsl #3
    1a5c:	e3a03000 	mov	r3, #0
    1a60:	e2402004 	sub	r2, r0, #4
    1a64:	e3a06a01 	mov	r6, #4096	; 0x1000
    1a68:	e3a07000 	mov	r7, #0
    1a6c:	e7904183 	ldr	r4, [r0, r3, lsl #3]
    1a70:	e2833001 	add	r3, r3, #1
    1a74:	e153000c 	cmp	r3, ip
    1a78:	ba000043 	blt	1b8c <opj_dwt_encode_1_real+0x948>
    1a7c:	e5915000 	ldr	r5, [r1]
    1a80:	e1a0a006 	mov	sl, r6
    1a84:	e0844005 	add	r4, r4, r5
    1a88:	e1a0b007 	mov	fp, r7
    1a8c:	e0eba498 	smlal	sl, fp, r8, r4
    1a90:	e7925183 	ldr	r5, [r2, r3, lsl #3]
    1a94:	e1530009 	cmp	r3, r9
    1a98:	e1a046aa 	lsr	r4, sl, #13
    1a9c:	e184498b 	orr	r4, r4, fp, lsl #19
    1aa0:	e0854004 	add	r4, r5, r4
    1aa4:	e7824183 	str	r4, [r2, r3, lsl #3]
    1aa8:	baffffef 	blt	1a6c <opj_dwt_encode_1_real+0x828>
    1aac:	e153000e 	cmp	r3, lr
    1ab0:	aa000011 	bge	1afc <opj_dwt_encode_1_real+0x8b8>
    1ab4:	e59f81d8 	ldr	r8, [pc, #472]	; 1c94 <opj_dwt_encode_1_real+0xa50>
    1ab8:	e3a06a01 	mov	r6, #4096	; 0x1000
    1abc:	e3a07000 	mov	r7, #0
    1ac0:	e2833001 	add	r3, r3, #1
    1ac4:	e15c0003 	cmp	ip, r3
    1ac8:	e5914000 	ldr	r4, [r1]
    1acc:	ca00003d 	bgt	1bc8 <opj_dwt_encode_1_real+0x984>
    1ad0:	e1a04084 	lsl	r4, r4, #1
    1ad4:	e1a0a006 	mov	sl, r6
    1ad8:	e1a0b007 	mov	fp, r7
    1adc:	e0eba498 	smlal	sl, fp, r8, r4
    1ae0:	e7929183 	ldr	r9, [r2, r3, lsl #3]
    1ae4:	e15e0003 	cmp	lr, r3
    1ae8:	e1a046aa 	lsr	r4, sl, #13
    1aec:	e184498b 	orr	r4, r4, fp, lsl #19
    1af0:	e0894004 	add	r4, r9, r4
    1af4:	e7824183 	str	r4, [r2, r3, lsl #3]
    1af8:	cafffff0 	bgt	1ac0 <opj_dwt_encode_1_real+0x87c>
    1afc:	e35c0000 	cmp	ip, #0
    1b00:	da00000f 	ble	1b44 <opj_dwt_encode_1_real+0x900>
    1b04:	e59f118c 	ldr	r1, [pc, #396]	; 1c98 <opj_dwt_encode_1_real+0xa54>
    1b08:	e3a03000 	mov	r3, #0
    1b0c:	e3a06a01 	mov	r6, #4096	; 0x1000
    1b10:	e3a07000 	mov	r7, #0
    1b14:	e7902183 	ldr	r2, [r0, r3, lsl #3]
    1b18:	e1a04006 	mov	r4, r6
    1b1c:	e1a05007 	mov	r5, r7
    1b20:	e0e54291 	smlal	r4, r5, r1, r2
    1b24:	e1a026a4 	lsr	r2, r4, #13
    1b28:	e1822985 	orr	r2, r2, r5, lsl #19
    1b2c:	e7802183 	str	r2, [r0, r3, lsl #3]
    1b30:	e2833001 	add	r3, r3, #1
    1b34:	e15c0003 	cmp	ip, r3
    1b38:	cafffff5 	bgt	1b14 <opj_dwt_encode_1_real+0x8d0>
    1b3c:	e35e0000 	cmp	lr, #0
    1b40:	dafffdfb 	ble	1334 <opj_dwt_encode_1_real+0xf0>
    1b44:	e2801004 	add	r1, r0, #4
    1b48:	e59fc14c 	ldr	ip, [pc, #332]	; 1c9c <opj_dwt_encode_1_real+0xa58>
    1b4c:	e3a03000 	mov	r3, #0
    1b50:	e3a06a01 	mov	r6, #4096	; 0x1000
    1b54:	e3a07000 	mov	r7, #0
    1b58:	e1a04001 	mov	r4, r1
    1b5c:	e7942183 	ldr	r2, [r4, r3, lsl #3]
    1b60:	e1a00006 	mov	r0, r6
    1b64:	e1a01007 	mov	r1, r7
    1b68:	e0e1029c 	smlal	r0, r1, ip, r2
    1b6c:	e1a026a0 	lsr	r2, r0, #13
    1b70:	e1822981 	orr	r2, r2, r1, lsl #19
    1b74:	e7842183 	str	r2, [r4, r3, lsl #3]
    1b78:	e2833001 	add	r3, r3, #1
    1b7c:	e15e0003 	cmp	lr, r3
    1b80:	cafffff5 	bgt	1b5c <opj_dwt_encode_1_real+0x918>
    1b84:	e28dd01c 	add	sp, sp, #28
    1b88:	e8bd8ff0 	pop	{r4, r5, r6, r7, r8, r9, sl, fp, pc}
    1b8c:	e7905183 	ldr	r5, [r0, r3, lsl #3]
    1b90:	e1a0a006 	mov	sl, r6
    1b94:	e0844005 	add	r4, r4, r5
    1b98:	e1a0b007 	mov	fp, r7
    1b9c:	e0eba498 	smlal	sl, fp, r8, r4
    1ba0:	e7925183 	ldr	r5, [r2, r3, lsl #3]
    1ba4:	e1530009 	cmp	r3, r9
    1ba8:	e1a046aa 	lsr	r4, sl, #13
    1bac:	e184498b 	orr	r4, r4, fp, lsl #19
    1bb0:	e0854004 	add	r4, r5, r4
    1bb4:	e7824183 	str	r4, [r2, r3, lsl #3]
    1bb8:	baffffab 	blt	1a6c <opj_dwt_encode_1_real+0x828>
    1bbc:	e153000e 	cmp	r3, lr
    1bc0:	baffffbb 	blt	1ab4 <opj_dwt_encode_1_real+0x870>
    1bc4:	eaffffce 	b	1b04 <opj_dwt_encode_1_real+0x8c0>
    1bc8:	e7905183 	ldr	r5, [r0, r3, lsl #3]
    1bcc:	e1a0a006 	mov	sl, r6
    1bd0:	e0844005 	add	r4, r4, r5
    1bd4:	e1a0b007 	mov	fp, r7
    1bd8:	e0eba498 	smlal	sl, fp, r8, r4
    1bdc:	e7929183 	ldr	r9, [r2, r3, lsl #3]
    1be0:	e15e0003 	cmp	lr, r3
    1be4:	e1a046aa 	lsr	r4, sl, #13
    1be8:	e184498b 	orr	r4, r4, fp, lsl #19
    1bec:	e0894004 	add	r4, r9, r4
    1bf0:	e7824183 	str	r4, [r2, r3, lsl #3]
    1bf4:	caffffb1 	bgt	1ac0 <opj_dwt_encode_1_real+0x87c>
    1bf8:	eaffffc1 	b	1b04 <opj_dwt_encode_1_real+0x8c0>
    1bfc:	e15e0006 	cmp	lr, r6
    1c00:	e59d800c 	ldr	r8, [sp, #12]
    1c04:	cafffea3 	bgt	1698 <opj_dwt_encode_1_real+0x454>
    1c08:	eaffff67 	b	19ac <opj_dwt_encode_1_real+0x768>
    1c0c:	e59d3014 	ldr	r3, [sp, #20]
    1c10:	e0801183 	add	r1, r0, r3, lsl #3
    1c14:	e3a03000 	mov	r3, #0
    1c18:	eafffe5d 	b	1594 <opj_dwt_encode_1_real+0x350>
    1c1c:	e3520000 	cmp	r2, #0
    1c20:	cafffe04 	bgt	1438 <opj_dwt_encode_1_real+0x1f4>
    1c24:	eafffdc2 	b	1334 <opj_dwt_encode_1_real+0xf0>
    1c28:	e3520000 	cmp	r2, #0
    1c2c:	dafffdc0 	ble	1334 <opj_dwt_encode_1_real+0xf0>
    1c30:	e24c3001 	sub	r3, ip, #1
    1c34:	e1a02003 	mov	r2, r3
    1c38:	e58d300c 	str	r3, [sp, #12]
    1c3c:	e0801182 	add	r1, r0, r2, lsl #3
    1c40:	e3a03000 	mov	r3, #0
    1c44:	eafffedc 	b	17bc <opj_dwt_encode_1_real+0x578>
    1c48:	e35c0000 	cmp	ip, #0
    1c4c:	caffffac 	bgt	1b04 <opj_dwt_encode_1_real+0x8c0>
    1c50:	eafffdb7 	b	1334 <opj_dwt_encode_1_real+0xf0>
    1c54:	ebfffb15 	bl	8b0 <opj_int_fix_mul.part.3>
    1c58:	e59f3040 	ldr	r3, [pc, #64]	; 1ca0 <opj_dwt_encode_1_real+0xa5c>
    1c5c:	e59f2040 	ldr	r2, [pc, #64]	; 1ca4 <opj_dwt_encode_1_real+0xa60>
    1c60:	e3a010fa 	mov	r1, #250	; 0xfa
    1c64:	e59f003c 	ldr	r0, [pc, #60]	; 1ca8 <opj_dwt_encode_1_real+0xa64>
    1c68:	ebfffffe 	bl	0 <__assert_func>
    1c6c:	e35e0000 	cmp	lr, #0
    1c70:	c2402004 	subgt	r2, r0, #4
    1c74:	c59d300c 	ldrgt	r3, [sp, #12]
    1c78:	c0801183 	addgt	r1, r0, r3, lsl #3
    1c7c:	c3a03000 	movgt	r3, #0
    1c80:	caffff8b 	bgt	1ab4 <opj_dwt_encode_1_real+0x870>
    1c84:	eafffdaa 	b	1334 <opj_dwt_encode_1_real+0xf0>
    1c88:	000032c1 	.word	0x000032c1
    1c8c:	000001b2 	.word	0x000001b2
    1c90:	00001c41 	.word	0x00001c41
    1c94:	00000e31 	.word	0x00000e31
    1c98:	000013ae 	.word	0x000013ae
    1c9c:	00001a03 	.word	0x00001a03
    1ca0:	0000006c 	.word	0x0000006c
    1ca4:	0000004c 	.word	0x0000004c
    1ca8:	0000005c 	.word	0x0000005c

00001cac <opj_dwt_decode_h_func>:
    1cac:	e92d4ff0 	push	{r4, r5, r6, r7, r8, r9, sl, fp, lr}
    1cb0:	e1a04000 	mov	r4, r0
    1cb4:	e590901c 	ldr	r9, [r0, #28]
    1cb8:	e5902020 	ldr	r2, [r0, #32]
    1cbc:	e24dd00c 	sub	sp, sp, #12
    1cc0:	e1590002 	cmp	r9, r2
    1cc4:	e5900000 	ldr	r0, [r0]
    1cc8:	2a000058 	bcs	1e30 <opj_dwt_decode_h_func+0x184>
    1ccc:	e1a01000 	mov	r1, r0
    1cd0:	ea000004 	b	1ce8 <opj_dwt_decode_h_func+0x3c>
    1cd4:	e35e0001 	cmp	lr, #1
    1cd8:	ca000059 	bgt	1e44 <opj_dwt_decode_h_func+0x198>
    1cdc:	e2899001 	add	r9, r9, #1
    1ce0:	e1590002 	cmp	r9, r2
    1ce4:	2a000050 	bcs	1e2c <opj_dwt_decode_h_func+0x180>
    1ce8:	e5943014 	ldr	r3, [r4, #20]
    1cec:	e594c00c 	ldr	ip, [r4, #12]
    1cf0:	e5940018 	ldr	r0, [r4, #24]
    1cf4:	e0030993 	mul	r3, r3, r9
    1cf8:	e5945008 	ldr	r5, [r4, #8]
    1cfc:	e594e004 	ldr	lr, [r4, #4]
    1d00:	e0807103 	add	r7, r0, r3, lsl #2
    1d04:	e35c0000 	cmp	ip, #0
    1d08:	e58d7000 	str	r7, [sp]
    1d0c:	e085e00e 	add	lr, r5, lr
    1d10:	0affffef 	beq	1cd4 <opj_dwt_decode_h_func+0x28>
    1d14:	e35e0001 	cmp	lr, #1
    1d18:	0a000078 	beq	1f00 <opj_dwt_decode_h_func+0x254>
    1d1c:	e35e0002 	cmp	lr, #2
    1d20:	0a00007c 	beq	1f18 <opj_dwt_decode_h_func+0x26c>
    1d24:	daffffec 	ble	1cdc <opj_dwt_decode_h_func+0x30>
    1d28:	e0878105 	add	r8, r7, r5, lsl #2
    1d2c:	e797c105 	ldr	ip, [r7, r5, lsl #2]
    1d30:	e5982004 	ldr	r2, [r8, #4]
    1d34:	e7905103 	ldr	r5, [r0, r3, lsl #2]
    1d38:	e082000c 	add	r0, r2, ip
    1d3c:	e1e0b00e 	mvn	fp, lr
    1d40:	e2800002 	add	r0, r0, #2
    1d44:	e20b3001 	and	r3, fp, #1
    1d48:	e24eb002 	sub	fp, lr, #2
    1d4c:	e04bb003 	sub	fp, fp, r3
    1d50:	e0450140 	sub	r0, r5, r0, asr #2
    1d54:	e08cc000 	add	ip, ip, r0
    1d58:	e20e3001 	and	r3, lr, #1
    1d5c:	e35b0001 	cmp	fp, #1
    1d60:	e581c000 	str	ip, [r1]
    1d64:	e58d3004 	str	r3, [sp, #4]
    1d68:	da00007d 	ble	1f64 <opj_dwt_decode_h_func+0x2b8>
    1d6c:	e24bb002 	sub	fp, fp, #2
    1d70:	e2886004 	add	r6, r8, #4
    1d74:	e1a0b0ab 	lsr	fp, fp, #1
    1d78:	e1a05001 	mov	r5, r1
    1d7c:	e088810b 	add	r8, r8, fp, lsl #2
    1d80:	e2888008 	add	r8, r8, #8
    1d84:	e5b6c004 	ldr	ip, [r6, #4]!
    1d88:	e5b7a004 	ldr	sl, [r7, #4]!
    1d8c:	e08c3002 	add	r3, ip, r2
    1d90:	e2833002 	add	r3, r3, #2
    1d94:	e1580006 	cmp	r8, r6
    1d98:	e04a3143 	sub	r3, sl, r3, asr #2
    1d9c:	e083a000 	add	sl, r3, r0
    1da0:	e5850004 	str	r0, [r5, #4]
    1da4:	e08220ca 	add	r2, r2, sl, asr #1
    1da8:	e5a52008 	str	r2, [r5, #8]!
    1dac:	e1a00003 	mov	r0, r3
    1db0:	e1a0200c 	mov	r2, ip
    1db4:	1afffff2 	bne	1d84 <opj_dwt_decode_h_func+0xd8>
    1db8:	e1a0b18b 	lsl	fp, fp, #3
    1dbc:	e28bb00c 	add	fp, fp, #12
    1dc0:	e59d2004 	ldr	r2, [sp, #4]
    1dc4:	e24e0107 	sub	r0, lr, #-1073741823	; 0xc0000001
    1dc8:	e3520000 	cmp	r2, #0
    1dcc:	e781300b 	str	r3, [r1, fp]
    1dd0:	e1a02100 	lsl	r2, r0, #2
    1dd4:	108c3003 	addne	r3, ip, r3
    1dd8:	e0815002 	add	r5, r1, r2
    1ddc:	17813100 	strne	r3, [r1, r0, lsl #2]
    1de0:	1a000009 	bne	1e0c <opj_dwt_decode_h_func+0x160>
    1de4:	e1a0e0ce 	asr	lr, lr, #1
    1de8:	e59d7000 	ldr	r7, [sp]
    1dec:	e24ee107 	sub	lr, lr, #-1073741823	; 0xc0000001
    1df0:	e28c6001 	add	r6, ip, #1
    1df4:	e797e10e 	ldr	lr, [r7, lr, lsl #2]
    1df8:	e04ee0c6 	sub	lr, lr, r6, asr #1
    1dfc:	e08e3003 	add	r3, lr, r3
    1e00:	e08cc0c3 	add	ip, ip, r3, asr #1
    1e04:	e505c004 	str	ip, [r5, #-4]
    1e08:	e781e100 	str	lr, [r1, r0, lsl #2]
    1e0c:	e2822004 	add	r2, r2, #4
    1e10:	e59d0000 	ldr	r0, [sp]
    1e14:	ebfffffe 	bl	0 <memcpy>
    1e18:	e5942020 	ldr	r2, [r4, #32]
    1e1c:	e2899001 	add	r9, r9, #1
    1e20:	e1590002 	cmp	r9, r2
    1e24:	e5941000 	ldr	r1, [r4]
    1e28:	3affffae 	bcc	1ce8 <opj_dwt_decode_h_func+0x3c>
    1e2c:	e1a00001 	mov	r0, r1
    1e30:	ebfffffe 	bl	0 <opj_aligned_free>
    1e34:	e1a00004 	mov	r0, r4
    1e38:	e28dd00c 	add	sp, sp, #12
    1e3c:	e8bd4ff0 	pop	{r4, r5, r6, r7, r8, r9, sl, fp, lr}
    1e40:	eafffffe 	b	0 <opj_free>
    1e44:	e7972105 	ldr	r2, [r7, r5, lsl #2]
    1e48:	e7906103 	ldr	r6, [r0, r3, lsl #2]
    1e4c:	e24e8003 	sub	r8, lr, #3
    1e50:	e2823001 	add	r3, r2, #1
    1e54:	e3580000 	cmp	r8, #0
    1e58:	e1a00007 	mov	r0, r7
    1e5c:	e0875105 	add	r5, r7, r5, lsl #2
    1e60:	e04660c3 	sub	r6, r6, r3, asr #1
    1e64:	da00003a 	ble	1f54 <opj_dwt_decode_h_func+0x2a8>
    1e68:	e281a004 	add	sl, r1, #4
    1e6c:	e5b57004 	ldr	r7, [r5, #4]!
    1e70:	e5b0b004 	ldr	fp, [r0, #4]!
    1e74:	e0873002 	add	r3, r7, r2
    1e78:	e2833002 	add	r3, r3, #2
    1e7c:	e781610c 	str	r6, [r1, ip, lsl #2]
    1e80:	e04b3143 	sub	r3, fp, r3, asr #2
    1e84:	e083b006 	add	fp, r3, r6
    1e88:	e1a06003 	mov	r6, r3
    1e8c:	e08220cb 	add	r2, r2, fp, asr #1
    1e90:	e78a210c 	str	r2, [sl, ip, lsl #2]
    1e94:	e28cc002 	add	ip, ip, #2
    1e98:	e15c0008 	cmp	ip, r8
    1e9c:	e1a02007 	mov	r2, r7
    1ea0:	bafffff1 	blt	1e6c <opj_dwt_decode_h_func+0x1c0>
    1ea4:	e24e0004 	sub	r0, lr, #4
    1ea8:	e1a000a0 	lsr	r0, r0, #1
    1eac:	e2800001 	add	r0, r0, #1
    1eb0:	e0810180 	add	r0, r1, r0, lsl #3
    1eb4:	e24ec107 	sub	ip, lr, #-1073741823	; 0xc0000001
    1eb8:	e31e0001 	tst	lr, #1
    1ebc:	e5803000 	str	r3, [r0]
    1ec0:	e1a0210c 	lsl	r2, ip, #2
    1ec4:	00873003 	addeq	r3, r7, r3
    1ec8:	e0815002 	add	r5, r1, r2
    1ecc:	0781310c 	streq	r3, [r1, ip, lsl #2]
    1ed0:	0affffcd 	beq	1e0c <opj_dwt_decode_h_func+0x160>
    1ed4:	e24ee001 	sub	lr, lr, #1
    1ed8:	e59d0000 	ldr	r0, [sp]
    1edc:	e1a0e0ce 	asr	lr, lr, #1
    1ee0:	e2876001 	add	r6, r7, #1
    1ee4:	e790010e 	ldr	r0, [r0, lr, lsl #2]
    1ee8:	e04000c6 	sub	r0, r0, r6, asr #1
    1eec:	e0803003 	add	r3, r0, r3
    1ef0:	e781010c 	str	r0, [r1, ip, lsl #2]
    1ef4:	e08770c3 	add	r7, r7, r3, asr #1
    1ef8:	e5057004 	str	r7, [r5, #-4]
    1efc:	eaffffc2 	b	1e0c <opj_dwt_decode_h_func+0x160>
    1f00:	e7902103 	ldr	r2, [r0, r3, lsl #2]
    1f04:	e0822fa2 	add	r2, r2, r2, lsr #31
    1f08:	e1a020c2 	asr	r2, r2, #1
    1f0c:	e7802103 	str	r2, [r0, r3, lsl #2]
    1f10:	e5942020 	ldr	r2, [r4, #32]
    1f14:	eaffff70 	b	1cdc <opj_dwt_decode_h_func+0x30>
    1f18:	e797c105 	ldr	ip, [r7, r5, lsl #2]
    1f1c:	e7902103 	ldr	r2, [r0, r3, lsl #2]
    1f20:	e28cc001 	add	ip, ip, #1
    1f24:	e04220cc 	sub	r2, r2, ip, asr #1
    1f28:	e5812004 	str	r2, [r1, #4]
    1f2c:	e797c105 	ldr	ip, [r7, r5, lsl #2]
    1f30:	e591e004 	ldr	lr, [r1, #4]
    1f34:	e08c2002 	add	r2, ip, r2
    1f38:	e5812000 	str	r2, [r1]
    1f3c:	e5912000 	ldr	r2, [r1]
    1f40:	e7802103 	str	r2, [r0, r3, lsl #2]
    1f44:	e587e004 	str	lr, [r7, #4]
    1f48:	e5942020 	ldr	r2, [r4, #32]
    1f4c:	e5941000 	ldr	r1, [r4]
    1f50:	eaffff61 	b	1cdc <opj_dwt_decode_h_func+0x30>
    1f54:	e1a03006 	mov	r3, r6
    1f58:	e1a07002 	mov	r7, r2
    1f5c:	e1a00001 	mov	r0, r1
    1f60:	eaffffd3 	b	1eb4 <opj_dwt_decode_h_func+0x208>
    1f64:	e1a03000 	mov	r3, r0
    1f68:	e1a0c002 	mov	ip, r2
    1f6c:	e3a0b004 	mov	fp, #4
    1f70:	eaffff92 	b	1dc0 <opj_dwt_decode_h_func+0x114>

00001f74 <opj_idwt53_v>:
    1f74:	e92d4ff0 	push	{r4, r5, r6, r7, r8, r9, sl, fp, lr}
    1f78:	e1a09000 	mov	r9, r0
    1f7c:	e9900150 	ldmib	r0, {r4, r6, r8}
    1f80:	e24dd06c 	sub	sp, sp, #108	; 0x6c
    1f84:	e1a0b001 	mov	fp, r1
    1f88:	e1a07002 	mov	r7, r2
    1f8c:	e3580000 	cmp	r8, #0
    1f90:	e1a05003 	mov	r5, r3
    1f94:	e0864004 	add	r4, r6, r4
    1f98:	1a000003 	bne	1fac <opj_idwt53_v+0x38>
    1f9c:	e3540001 	cmp	r4, #1
    1fa0:	ca000014 	bgt	1ff8 <opj_idwt53_v+0x84>
    1fa4:	e28dd06c 	add	sp, sp, #108	; 0x6c
    1fa8:	e8bd8ff0 	pop	{r4, r5, r6, r7, r8, r9, sl, fp, pc}
    1fac:	e3540001 	cmp	r4, #1
    1fb0:	0a0000b7 	beq	2294 <opj_idwt53_v+0x320>
    1fb4:	e3540002 	cmp	r4, #2
    1fb8:	0a0000d0 	beq	2300 <opj_idwt53_v+0x38c>
    1fbc:	dafffff8 	ble	1fa4 <opj_idwt53_v+0x30>
    1fc0:	e3530000 	cmp	r3, #0
    1fc4:	dafffff6 	ble	1fa4 <opj_idwt53_v+0x30>
    1fc8:	e3a08000 	mov	r8, #0
    1fcc:	e58d7000 	str	r7, [sp]
    1fd0:	e1a0300b 	mov	r3, fp
    1fd4:	e2888001 	add	r8, r8, #1
    1fd8:	e1a02004 	mov	r2, r4
    1fdc:	e1a01006 	mov	r1, r6
    1fe0:	e5990000 	ldr	r0, [r9]
    1fe4:	ebfff87e 	bl	1e4 <opj_idwt3_v_cas1>
    1fe8:	e1550008 	cmp	r5, r8
    1fec:	e28bb004 	add	fp, fp, #4
    1ff0:	1afffff5 	bne	1fcc <opj_idwt53_v+0x58>
    1ff4:	eaffffea 	b	1fa4 <opj_idwt53_v+0x30>
    1ff8:	e3530000 	cmp	r3, #0
    1ffc:	daffffe8 	ble	1fa4 <opj_idwt53_v+0x30>
    2000:	e5909000 	ldr	r9, [r0]
    2004:	e1a0a102 	lsl	sl, r2, #2
    2008:	e244c001 	sub	ip, r4, #1
    200c:	e1a03129 	lsr	r3, r9, #2
    2010:	e2033001 	and	r3, r3, #1
    2014:	e0442003 	sub	r2, r4, r3
    2018:	e3c21001 	bic	r1, r2, #1
    201c:	e58db034 	str	fp, [sp, #52]	; 0x34
    2020:	e58d1044 	str	r1, [sp, #68]	; 0x44
    2024:	e083b001 	add	fp, r3, r1
    2028:	e1a000cc 	asr	r0, ip, #1
    202c:	e59d1034 	ldr	r1, [sp, #52]	; 0x34
    2030:	e000009a 	mul	r0, sl, r0
    2034:	e021169a 	mla	r1, sl, r6, r1
    2038:	e244e004 	sub	lr, r4, #4
    203c:	e58db00c 	str	fp, [sp, #12]
    2040:	e58d3038 	str	r3, [sp, #56]	; 0x38
    2044:	e58d1018 	str	r1, [sp, #24]
    2048:	e58d001c 	str	r0, [sp, #28]
    204c:	e1a0b0ae 	lsr	fp, lr, #1
    2050:	e59d000c 	ldr	r0, [sp, #12]
    2054:	e0060796 	mul	r6, r6, r7
    2058:	e59de038 	ldr	lr, [sp, #56]	; 0x38
    205c:	e2491004 	sub	r1, r9, #4
    2060:	e58d1060 	str	r1, [sp, #96]	; 0x60
    2064:	e59d1018 	ldr	r1, [sp, #24]
    2068:	e58d2048 	str	r2, [sp, #72]	; 0x48
    206c:	e1a020a2 	lsr	r2, r2, #1
    2070:	e58d6014 	str	r6, [sp, #20]
    2074:	e2411004 	sub	r1, r1, #4
    2078:	e006009a 	mul	r6, sl, r0
    207c:	e2443107 	sub	r3, r4, #-1073741823	; 0xc0000001
    2080:	e089010e 	add	r0, r9, lr, lsl #2
    2084:	e58dc020 	str	ip, [sp, #32]
    2088:	e0802182 	add	r2, r0, r2, lsl #3
    208c:	e00c0c9a 	mul	ip, sl, ip
    2090:	e58d1064 	str	r1, [sp, #100]	; 0x64
    2094:	e59d100c 	ldr	r1, [sp, #12]
    2098:	e1a03103 	lsl	r3, r3, #2
    209c:	e2422008 	sub	r2, r2, #8
    20a0:	e35a0000 	cmp	sl, #0
    20a4:	e2437004 	sub	r7, r3, #4
    20a8:	e00e0a9e 	mul	lr, lr, sl
    20ac:	e0893003 	add	r3, r9, r3
    20b0:	e58d2018 	str	r2, [sp, #24]
    20b4:	e2402008 	sub	r2, r0, #8
    20b8:	e59d001c 	ldr	r0, [sp, #28]
    20bc:	e58d300c 	str	r3, [sp, #12]
    20c0:	e58d6010 	str	r6, [sp, #16]
    20c4:	b1a0300c 	movlt	r3, ip
    20c8:	a3a03000 	movge	r3, #0
    20cc:	e28b6001 	add	r6, fp, #1
    20d0:	e0891101 	add	r1, r9, r1, lsl #2
    20d4:	e58d302c 	str	r3, [sp, #44]	; 0x2c
    20d8:	e58d1030 	str	r1, [sp, #48]	; 0x30
    20dc:	e58d204c 	str	r2, [sp, #76]	; 0x4c
    20e0:	a1a0300c 	movge	r3, ip
    20e4:	e2402004 	sub	r2, r0, #4
    20e8:	b3a03000 	movlt	r3, #0
    20ec:	e2491004 	sub	r1, r9, #4
    20f0:	e58de050 	str	lr, [sp, #80]	; 0x50
    20f4:	e58d2058 	str	r2, [sp, #88]	; 0x58
    20f8:	e58d3028 	str	r3, [sp, #40]	; 0x28
    20fc:	e0892186 	add	r2, r9, r6, lsl #3
    2100:	e0813104 	add	r3, r1, r4, lsl #2
    2104:	e289e008 	add	lr, r9, #8
    2108:	e58d203c 	str	r2, [sp, #60]	; 0x3c
    210c:	e58d305c 	str	r3, [sp, #92]	; 0x5c
    2110:	e08e218b 	add	r2, lr, fp, lsl #3
    2114:	e24a3004 	sub	r3, sl, #4
    2118:	e58d201c 	str	r2, [sp, #28]
    211c:	e58d3040 	str	r3, [sp, #64]	; 0x40
    2120:	e0892007 	add	r2, r9, r7
    2124:	e2043001 	and	r3, r4, #1
    2128:	e58d2054 	str	r2, [sp, #84]	; 0x54
    212c:	e58d3024 	str	r3, [sp, #36]	; 0x24
    2130:	e59d6064 	ldr	r6, [sp, #100]	; 0x64
    2134:	e59d7030 	ldr	r7, [sp, #48]	; 0x30
    2138:	e59d1034 	ldr	r1, [sp, #52]	; 0x34
    213c:	e58d4030 	str	r4, [sp, #48]	; 0x30
    2140:	e58d5034 	str	r5, [sp, #52]	; 0x34
    2144:	e1a04001 	mov	r4, r1
    2148:	e5b62004 	ldr	r2, [r6, #4]!
    214c:	e59d0030 	ldr	r0, [sp, #48]	; 0x30
    2150:	e494c004 	ldr	ip, [r4], #4
    2154:	e2823001 	add	r3, r2, #1
    2158:	e3500003 	cmp	r0, #3
    215c:	e04cc0c3 	sub	ip, ip, r3, asr #1
    2160:	da000062 	ble	22f0 <opj_idwt53_v+0x37c>
    2164:	e59d3040 	ldr	r3, [sp, #64]	; 0x40
    2168:	e1a00009 	mov	r0, r9
    216c:	e0835004 	add	r5, r3, r4
    2170:	e59d3014 	ldr	r3, [sp, #20]
    2174:	e2800008 	add	r0, r0, #8
    2178:	e795e103 	ldr	lr, [r5, r3, lsl #2]
    217c:	e695b00a 	ldr	fp, [r5], sl
    2180:	e08e3002 	add	r3, lr, r2
    2184:	e2833002 	add	r3, r3, #2
    2188:	e500c008 	str	ip, [r0, #-8]
    218c:	e04b3143 	sub	r3, fp, r3, asr #2
    2190:	e083b00c 	add	fp, r3, ip
    2194:	e1a0c003 	mov	ip, r3
    2198:	e08220cb 	add	r2, r2, fp, asr #1
    219c:	e5002004 	str	r2, [r0, #-4]
    21a0:	e59d201c 	ldr	r2, [sp, #28]
    21a4:	e1500002 	cmp	r0, r2
    21a8:	e1a0200e 	mov	r2, lr
    21ac:	1affffef 	bne	2170 <opj_idwt53_v+0x1fc>
    21b0:	e59d203c 	ldr	r2, [sp, #60]	; 0x3c
    21b4:	e59d0024 	ldr	r0, [sp, #36]	; 0x24
    21b8:	e5823000 	str	r3, [r2]
    21bc:	e3500000 	cmp	r0, #0
    21c0:	0a00003e 	beq	22c0 <opj_idwt53_v+0x34c>
    21c4:	e59d0058 	ldr	r0, [sp, #88]	; 0x58
    21c8:	e28e2001 	add	r2, lr, #1
    21cc:	e7940000 	ldr	r0, [r4, r0]
    21d0:	e04020c2 	sub	r2, r0, r2, asr #1
    21d4:	e59d000c 	ldr	r0, [sp, #12]
    21d8:	e0823003 	add	r3, r2, r3
    21dc:	e5802000 	str	r2, [r0]
    21e0:	e59d2054 	ldr	r2, [sp, #84]	; 0x54
    21e4:	e08e30c3 	add	r3, lr, r3, asr #1
    21e8:	e5823000 	str	r3, [r2]
    21ec:	e59d3028 	ldr	r3, [sp, #40]	; 0x28
    21f0:	e59d202c 	ldr	r2, [sp, #44]	; 0x2c
    21f4:	e0813003 	add	r3, r1, r3
    21f8:	e0812002 	add	r2, r1, r2
    21fc:	e1520000 	cmp	r2, r0
    2200:	91590003 	cmpls	r9, r3
    2204:	e59d2020 	ldr	r2, [sp, #32]
    2208:	83a03001 	movhi	r3, #1
    220c:	93a03000 	movls	r3, #0
    2210:	e3520008 	cmp	r2, #8
    2214:	93a03000 	movls	r3, #0
    2218:	82033001 	andhi	r3, r3, #1
    221c:	e3530000 	cmp	r3, #0
    2220:	0a00002b 	beq	22d4 <opj_idwt53_v+0x360>
    2224:	e59d3038 	ldr	r3, [sp, #56]	; 0x38
    2228:	e3530000 	cmp	r3, #0
    222c:	15993000 	ldrne	r3, [r9]
    2230:	15043004 	strne	r3, [r4, #-4]
    2234:	e59d3050 	ldr	r3, [sp, #80]	; 0x50
    2238:	e0810003 	add	r0, r1, r3
    223c:	e59d304c 	ldr	r3, [sp, #76]	; 0x4c
    2240:	e5b3e008 	ldr	lr, [r3, #8]!
    2244:	e59dc018 	ldr	ip, [sp, #24]
    2248:	e1a02000 	mov	r2, r0
    224c:	e15c0003 	cmp	ip, r3
    2250:	e593c004 	ldr	ip, [r3, #4]
    2254:	e682e00a 	str	lr, [r2], sl
    2258:	e78ac000 	str	ip, [sl, r0]
    225c:	e08a0002 	add	r0, sl, r2
    2260:	1afffff6 	bne	2240 <opj_idwt53_v+0x2cc>
    2264:	e59d3044 	ldr	r3, [sp, #68]	; 0x44
    2268:	e59d2048 	ldr	r2, [sp, #72]	; 0x48
    226c:	e1530002 	cmp	r3, r2
    2270:	159d2010 	ldrne	r2, [sp, #16]
    2274:	15973000 	ldrne	r3, [r7]
    2278:	17813002 	strne	r3, [r1, r2]
    227c:	e59d3034 	ldr	r3, [sp, #52]	; 0x34
    2280:	e2888001 	add	r8, r8, #1
    2284:	e1530008 	cmp	r3, r8
    2288:	e1a01004 	mov	r1, r4
    228c:	1affffac 	bne	2144 <opj_idwt53_v+0x1d0>
    2290:	eaffff43 	b	1fa4 <opj_idwt53_v+0x30>
    2294:	e3530000 	cmp	r3, #0
    2298:	daffff41 	ble	1fa4 <opj_idwt53_v+0x30>
    229c:	e3a02000 	mov	r2, #0
    22a0:	e59b3000 	ldr	r3, [fp]
    22a4:	e2822001 	add	r2, r2, #1
    22a8:	e1550002 	cmp	r5, r2
    22ac:	e0833fa3 	add	r3, r3, r3, lsr #31
    22b0:	e1a030c3 	asr	r3, r3, #1
    22b4:	e48b3004 	str	r3, [fp], #4
    22b8:	1afffff8 	bne	22a0 <opj_idwt53_v+0x32c>
    22bc:	eaffff38 	b	1fa4 <opj_idwt53_v+0x30>
    22c0:	e59d200c 	ldr	r2, [sp, #12]
    22c4:	e08e3003 	add	r3, lr, r3
    22c8:	e1a00002 	mov	r0, r2
    22cc:	e5823000 	str	r3, [r2]
    22d0:	eaffffc5 	b	21ec <opj_idwt53_v+0x278>
    22d4:	e59d3060 	ldr	r3, [sp, #96]	; 0x60
    22d8:	e59d005c 	ldr	r0, [sp, #92]	; 0x5c
    22dc:	e5b32004 	ldr	r2, [r3, #4]!
    22e0:	e1500003 	cmp	r0, r3
    22e4:	e681200a 	str	r2, [r1], sl
    22e8:	1afffffb 	bne	22dc <opj_idwt53_v+0x368>
    22ec:	eaffffe2 	b	227c <opj_idwt53_v+0x308>
    22f0:	e1a0e002 	mov	lr, r2
    22f4:	e1a0300c 	mov	r3, ip
    22f8:	e1a02009 	mov	r2, r9
    22fc:	eaffffac 	b	21b4 <opj_idwt53_v+0x240>
    2300:	e3530000 	cmp	r3, #0
    2304:	e5900000 	ldr	r0, [r0]
    2308:	daffff25 	ble	1fa4 <opj_idwt53_v+0x30>
    230c:	e1a07102 	lsl	r7, r2, #2
    2310:	e247e004 	sub	lr, r7, #4
    2314:	e0261697 	mla	r6, r7, r6, r1
    2318:	e081e00e 	add	lr, r1, lr
    231c:	e2466004 	sub	r6, r6, #4
    2320:	e2411004 	sub	r1, r1, #4
    2324:	e3a0c000 	mov	ip, #0
    2328:	e5b62004 	ldr	r2, [r6, #4]!
    232c:	e5b13004 	ldr	r3, [r1, #4]!
    2330:	e2822001 	add	r2, r2, #1
    2334:	e28cc001 	add	ip, ip, #1
    2338:	e04330c2 	sub	r3, r3, r2, asr #1
    233c:	e5803004 	str	r3, [r0, #4]
    2340:	e5962000 	ldr	r2, [r6]
    2344:	e155000c 	cmp	r5, ip
    2348:	e0833002 	add	r3, r3, r2
    234c:	e5803000 	str	r3, [r0]
    2350:	e5813000 	str	r3, [r1]
    2354:	e5903004 	ldr	r3, [r0, #4]
    2358:	e5ae3004 	str	r3, [lr, #4]!
    235c:	1afffff1 	bne	2328 <opj_idwt53_v+0x3b4>
    2360:	eaffff0f 	b	1fa4 <opj_idwt53_v+0x30>

00002364 <opj_dwt_decode_v_func>:
    2364:	e92d4070 	push	{r4, r5, r6, lr}
    2368:	e1a04000 	mov	r4, r0
    236c:	e590501c 	ldr	r5, [r0, #28]
    2370:	e5903020 	ldr	r3, [r0, #32]
    2374:	e2856008 	add	r6, r5, #8
    2378:	e1530006 	cmp	r3, r6
    237c:	3a00001a 	bcc	23ec <opj_dwt_decode_v_func+0x88>
    2380:	e1a05105 	lsl	r5, r5, #2
    2384:	ea000000 	b	238c <opj_dwt_decode_v_func+0x28>
    2388:	e1a06002 	mov	r6, r2
    238c:	e5941018 	ldr	r1, [r4, #24]
    2390:	e5942014 	ldr	r2, [r4, #20]
    2394:	e0811005 	add	r1, r1, r5
    2398:	e1a00004 	mov	r0, r4
    239c:	ebfff9e5 	bl	b38 <opj_idwt53_v.constprop.6>
    23a0:	e5943020 	ldr	r3, [r4, #32]
    23a4:	e2862008 	add	r2, r6, #8
    23a8:	e1530002 	cmp	r3, r2
    23ac:	e2855020 	add	r5, r5, #32
    23b0:	2afffff4 	bcs	2388 <opj_dwt_decode_v_func+0x24>
    23b4:	e1560003 	cmp	r6, r3
    23b8:	3a000004 	bcc	23d0 <opj_dwt_decode_v_func+0x6c>
    23bc:	e5940000 	ldr	r0, [r4]
    23c0:	ebfffffe 	bl	0 <opj_aligned_free>
    23c4:	e1a00004 	mov	r0, r4
    23c8:	e8bd4070 	pop	{r4, r5, r6, lr}
    23cc:	eafffffe 	b	0 <opj_free>
    23d0:	e5941018 	ldr	r1, [r4, #24]
    23d4:	e0433006 	sub	r3, r3, r6
    23d8:	e0811106 	add	r1, r1, r6, lsl #2
    23dc:	e5942014 	ldr	r2, [r4, #20]
    23e0:	e1a00004 	mov	r0, r4
    23e4:	ebfffee2 	bl	1f74 <opj_idwt53_v>
    23e8:	eafffff3 	b	23bc <opj_dwt_decode_v_func+0x58>
    23ec:	e1a06005 	mov	r6, r5
    23f0:	eaffffef 	b	23b4 <opj_dwt_decode_v_func+0x50>

000023f4 <opj_dwt_encode>:
    23f4:	e92d4ff0 	push	{r4, r5, r6, r7, r8, r9, sl, fp, lr}
    23f8:	e24dd09c 	sub	sp, sp, #156	; 0x9c
    23fc:	e5908014 	ldr	r8, [r0, #20]
    2400:	e5903024 	ldr	r3, [r0, #36]	; 0x24
    2404:	e2485001 	sub	r5, r8, #1
    2408:	e3550000 	cmp	r5, #0
    240c:	e5907008 	ldr	r7, [r0, #8]
    2410:	e5906000 	ldr	r6, [r0]
    2414:	e58d3020 	str	r3, [sp, #32]
    2418:	e590401c 	ldr	r4, [r0, #28]
    241c:	0a0002eb 	beq	2fd0 <opj_dwt_encode+0xbdc>
    2420:	e1a0c005 	mov	ip, r5
    2424:	e1a02004 	mov	r2, r4
    2428:	e3a00000 	mov	r0, #0
    242c:	e59230a0 	ldr	r3, [r2, #160]	; 0xa0
    2430:	e5929098 	ldr	r9, [r2, #152]	; 0x98
    2434:	e59210a4 	ldr	r1, [r2, #164]	; 0xa4
    2438:	e592e09c 	ldr	lr, [r2, #156]	; 0x9c
    243c:	e0433009 	sub	r3, r3, r9
    2440:	e041100e 	sub	r1, r1, lr
    2444:	e1530001 	cmp	r3, r1
    2448:	31a03001 	movcc	r3, r1
    244c:	e1500003 	cmp	r0, r3
    2450:	31a00003 	movcc	r0, r3
    2454:	e25cc001 	subs	ip, ip, #1
    2458:	e2822098 	add	r2, r2, #152	; 0x98
    245c:	1afffff2 	bne	242c <opj_dwt_encode+0x38>
    2460:	e3700107 	cmn	r0, #-1073741823	; 0xc0000001
    2464:	9a000002 	bls	2474 <opj_dwt_encode+0x80>
    2468:	e3a00000 	mov	r0, #0
    246c:	e28dd09c 	add	sp, sp, #156	; 0x9c
    2470:	e8bd8ff0 	pop	{r4, r5, r6, r7, r8, r9, sl, fp, pc}
    2474:	e1a09100 	lsl	r9, r0, #2
    2478:	e1a00009 	mov	r0, r9
    247c:	ebfffffe 	bl	0 <opj_malloc>
    2480:	e3590000 	cmp	r9, #0
    2484:	e1a0e000 	mov	lr, r0
    2488:	e16f0f10 	clz	r0, r0
    248c:	e1a002a0 	lsr	r0, r0, #5
    2490:	03a00000 	moveq	r0, #0
    2494:	e3500000 	cmp	r0, #0
    2498:	1afffff2 	bne	2468 <opj_dwt_encode+0x74>
    249c:	e2483002 	sub	r3, r8, #2
    24a0:	e3550000 	cmp	r5, #0
    24a4:	e58d3038 	str	r3, [sp, #56]	; 0x38
    24a8:	0a0001ea 	beq	2c58 <opj_dwt_encode+0x864>
    24ac:	e0852185 	add	r2, r5, r5, lsl #3
    24b0:	e1a0312e 	lsr	r3, lr, #2
    24b4:	e2033001 	and	r3, r3, #1
    24b8:	e0471006 	sub	r1, r7, r6
    24bc:	e0855082 	add	r5, r5, r2, lsl #1
    24c0:	e1a02003 	mov	r2, r3
    24c4:	e58d3040 	str	r3, [sp, #64]	; 0x40
    24c8:	e1a03001 	mov	r3, r1
    24cc:	e0845185 	add	r5, r4, r5, lsl #3
    24d0:	e58d1084 	str	r1, [sp, #132]	; 0x84
    24d4:	e58d2090 	str	r2, [sp, #144]	; 0x90
    24d8:	e0010192 	mul	r1, r2, r1
    24dc:	e08e2102 	add	r2, lr, r2, lsl #2
    24e0:	e58d203c 	str	r2, [sp, #60]	; 0x3c
    24e4:	e2456e13 	sub	r6, r5, #304	; 0x130
    24e8:	e1a02103 	lsl	r2, r3, #2
    24ec:	e24e4004 	sub	r4, lr, #4
    24f0:	e1a03183 	lsl	r3, r3, #3
    24f4:	e58d3088 	str	r3, [sp, #136]	; 0x88
    24f8:	e28ea004 	add	sl, lr, #4
    24fc:	e28e3008 	add	r3, lr, #8
    2500:	e58d108c 	str	r1, [sp, #140]	; 0x8c
    2504:	e58d2010 	str	r2, [sp, #16]
    2508:	e58d3094 	str	r3, [sp, #148]	; 0x94
    250c:	e58da018 	str	sl, [sp, #24]
    2510:	e5961130 	ldr	r1, [r6, #304]	; 0x130
    2514:	e5962138 	ldr	r2, [r6, #312]	; 0x138
    2518:	e5963134 	ldr	r3, [r6, #308]	; 0x134
    251c:	e596013c 	ldr	r0, [r6, #316]	; 0x13c
    2520:	e596c0a4 	ldr	ip, [r6, #164]	; 0xa4
    2524:	e596509c 	ldr	r5, [r6, #156]	; 0x9c
    2528:	e0422001 	sub	r2, r2, r1
    252c:	e59670a0 	ldr	r7, [r6, #160]	; 0xa0
    2530:	e5968098 	ldr	r8, [r6, #152]	; 0x98
    2534:	e0400003 	sub	r0, r0, r3
    2538:	e2011001 	and	r1, r1, #1
    253c:	e2033001 	and	r3, r3, #1
    2540:	e58d2004 	str	r2, [sp, #4]
    2544:	e3520000 	cmp	r2, #0
    2548:	e04c2005 	sub	r2, ip, r5
    254c:	e58d1024 	str	r1, [sp, #36]	; 0x24
    2550:	e58d3008 	str	r3, [sp, #8]
    2554:	e58d000c 	str	r0, [sp, #12]
    2558:	e0401002 	sub	r1, r0, r2
    255c:	e0473008 	sub	r3, r7, r8
    2560:	da0000f2 	ble	2930 <opj_dwt_encode+0x53c>
    2564:	e1a09000 	mov	r9, r0
    2568:	e59d0040 	ldr	r0, [sp, #64]	; 0x40
    256c:	e3520000 	cmp	r2, #0
    2570:	e0490000 	sub	r0, r9, r0
    2574:	e58d0034 	str	r0, [sp, #52]	; 0x34
    2578:	e2415001 	sub	r5, r1, #1
    257c:	e16f5f15 	clz	r5, r5
    2580:	e1a052a5 	lsr	r5, r5, #5
    2584:	13a05000 	movne	r5, #0
    2588:	e59d7090 	ldr	r7, [sp, #144]	; 0x90
    258c:	e58d501c 	str	r5, [sp, #28]
    2590:	e59d5034 	ldr	r5, [sp, #52]	; 0x34
    2594:	e3c0c001 	bic	ip, r0, #1
    2598:	e59d8084 	ldr	r8, [sp, #132]	; 0x84
    259c:	e59d0010 	ldr	r0, [sp, #16]
    25a0:	e3520001 	cmp	r2, #1
    25a4:	d3510000 	cmple	r1, #0
    25a8:	e087700c 	add	r7, r7, ip
    25ac:	c3a0a001 	movgt	sl, #1
    25b0:	d3a0a000 	movle	sl, #0
    25b4:	e58dc060 	str	ip, [sp, #96]	; 0x60
    25b8:	e249c001 	sub	ip, r9, #1
    25bc:	e58da04c 	str	sl, [sp, #76]	; 0x4c
    25c0:	e1a0a0a5 	lsr	sl, r5, #1
    25c4:	e58da028 	str	sl, [sp, #40]	; 0x28
    25c8:	e00b0798 	mul	fp, r8, r7
    25cc:	e59da010 	ldr	sl, [sp, #16]
    25d0:	e008009c 	mul	r8, ip, r0
    25d4:	e58dc050 	str	ip, [sp, #80]	; 0x50
    25d8:	e59dc008 	ldr	ip, [sp, #8]
    25dc:	e35a0000 	cmp	sl, #0
    25e0:	e2495107 	sub	r5, r9, #-1073741823	; 0xc0000001
    25e4:	e1a0900a 	mov	r9, sl
    25e8:	e59da020 	ldr	sl, [sp, #32]
    25ec:	e1a00f0c 	lsl	r0, ip, #30
    25f0:	e02aa992 	mla	sl, r2, r9, sl
    25f4:	e040000c 	sub	r0, r0, ip
    25f8:	e1a0b10b 	lsl	fp, fp, #2
    25fc:	e242c001 	sub	ip, r2, #1
    2600:	e08e0100 	add	r0, lr, r0, lsl #2
    2604:	e58db068 	str	fp, [sp, #104]	; 0x68
    2608:	e08eb107 	add	fp, lr, r7, lsl #2
    260c:	e58da014 	str	sl, [sp, #20]
    2610:	e59d7028 	ldr	r7, [sp, #40]	; 0x28
    2614:	a1a0a008 	movge	sl, r8
    2618:	b3a0a000 	movlt	sl, #0
    261c:	e58dc078 	str	ip, [sp, #120]	; 0x78
    2620:	e58db064 	str	fp, [sp, #100]	; 0x64
    2624:	e241c001 	sub	ip, r1, #1
    2628:	e280b004 	add	fp, r0, #4
    262c:	a3a08000 	movge	r8, #0
    2630:	e58da054 	str	sl, [sp, #84]	; 0x54
    2634:	e58db074 	str	fp, [sp, #116]	; 0x74
    2638:	e242a001 	sub	sl, r2, #1
    263c:	e59db03c 	ldr	fp, [sp, #60]	; 0x3c
    2640:	e58d806c 	str	r8, [sp, #108]	; 0x6c
    2644:	e59d000c 	ldr	r0, [sp, #12]
    2648:	e08e818c 	add	r8, lr, ip, lsl #3
    264c:	e59dc008 	ldr	ip, [sp, #8]
    2650:	e08e918a 	add	r9, lr, sl, lsl #3
    2654:	e08b7187 	add	r7, fp, r7, lsl #3
    2658:	e58d705c 	str	r7, [sp, #92]	; 0x5c
    265c:	e2897004 	add	r7, r9, #4
    2660:	e58d7058 	str	r7, [sp, #88]	; 0x58
    2664:	e08e5105 	add	r5, lr, r5, lsl #2
    2668:	e2887004 	add	r7, r8, #4
    266c:	e08ec10c 	add	ip, lr, ip, lsl #2
    2670:	e0840100 	add	r0, r4, r0, lsl #2
    2674:	e1520001 	cmp	r2, r1
    2678:	e58d7028 	str	r7, [sp, #40]	; 0x28
    267c:	e58d902c 	str	r9, [sp, #44]	; 0x2c
    2680:	e58d8030 	str	r8, [sp, #48]	; 0x30
    2684:	e58d5070 	str	r5, [sp, #112]	; 0x70
    2688:	e58dc044 	str	ip, [sp, #68]	; 0x44
    268c:	e58d0048 	str	r0, [sp, #72]	; 0x48
    2690:	e58d6080 	str	r6, [sp, #128]	; 0x80
    2694:	e59d9020 	ldr	r9, [sp, #32]
    2698:	e59d6010 	ldr	r6, [sp, #16]
    269c:	e59da018 	ldr	sl, [sp, #24]
    26a0:	b1a0b002 	movlt	fp, r2
    26a4:	a1a0b001 	movge	fp, r1
    26a8:	e3a07000 	mov	r7, #0
    26ac:	e58d307c 	str	r3, [sp, #124]	; 0x7c
    26b0:	e59d300c 	ldr	r3, [sp, #12]
    26b4:	e1a0c107 	lsl	ip, r7, #2
    26b8:	e089500c 	add	r5, r9, ip
    26bc:	e3530000 	cmp	r3, #0
    26c0:	e1a00005 	mov	r0, r5
    26c4:	da000028 	ble	276c <opj_dwt_encode+0x378>
    26c8:	e59d806c 	ldr	r8, [sp, #108]	; 0x6c
    26cc:	e59d3054 	ldr	r3, [sp, #84]	; 0x54
    26d0:	e083300c 	add	r3, r3, ip
    26d4:	e08cc008 	add	ip, ip, r8
    26d8:	e59d8070 	ldr	r8, [sp, #112]	; 0x70
    26dc:	e0893003 	add	r3, r9, r3
    26e0:	e089c00c 	add	ip, r9, ip
    26e4:	e15c0008 	cmp	ip, r8
    26e8:	915e0003 	cmpls	lr, r3
    26ec:	e59dc050 	ldr	ip, [sp, #80]	; 0x50
    26f0:	83a03001 	movhi	r3, #1
    26f4:	93a03000 	movls	r3, #0
    26f8:	e35c0008 	cmp	ip, #8
    26fc:	93a03000 	movls	r3, #0
    2700:	82033001 	andhi	r3, r3, #1
    2704:	e3530000 	cmp	r3, #0
    2708:	0a000162 	beq	2c98 <opj_dwt_encode+0x8a4>
    270c:	e59d3040 	ldr	r3, [sp, #64]	; 0x40
    2710:	e59d003c 	ldr	r0, [sp, #60]	; 0x3c
    2714:	e3530000 	cmp	r3, #0
    2718:	17993107 	ldrne	r3, [r9, r7, lsl #2]
    271c:	158e3000 	strne	r3, [lr]
    2720:	e59d308c 	ldr	r3, [sp, #140]	; 0x8c
    2724:	e0873003 	add	r3, r7, r3
    2728:	e0893103 	add	r3, r9, r3, lsl #2
    272c:	e796c003 	ldr	ip, [r6, r3]
    2730:	e5938000 	ldr	r8, [r3]
    2734:	e8801100 	stm	r0, {r8, ip}
    2738:	e59dc05c 	ldr	ip, [sp, #92]	; 0x5c
    273c:	e2800008 	add	r0, r0, #8
    2740:	e15c0000 	cmp	ip, r0
    2744:	e59dc088 	ldr	ip, [sp, #136]	; 0x88
    2748:	e083300c 	add	r3, r3, ip
    274c:	1afffff6 	bne	272c <opj_dwt_encode+0x338>
    2750:	e59d3060 	ldr	r3, [sp, #96]	; 0x60
    2754:	e59d0034 	ldr	r0, [sp, #52]	; 0x34
    2758:	e1530000 	cmp	r3, r0
    275c:	159d3068 	ldrne	r3, [sp, #104]	; 0x68
    2760:	159d0064 	ldrne	r0, [sp, #100]	; 0x64
    2764:	17953003 	ldrne	r3, [r5, r3]
    2768:	15803000 	strne	r3, [r0]
    276c:	e59d3008 	ldr	r3, [sp, #8]
    2770:	e3530000 	cmp	r3, #0
    2774:	1a000150 	bne	2cbc <opj_dwt_encode+0x8c8>
    2778:	e59d304c 	ldr	r3, [sp, #76]	; 0x4c
    277c:	e3530000 	cmp	r3, #0
    2780:	0a00004c 	beq	28b8 <opj_dwt_encode+0x4c4>
    2784:	e3510000 	cmp	r1, #0
    2788:	da000048 	ble	28b0 <opj_dwt_encode+0x4bc>
    278c:	e3520000 	cmp	r2, #0
    2790:	e59d3008 	ldr	r3, [sp, #8]
    2794:	ca00002f 	bgt	2858 <opj_dwt_encode+0x464>
    2798:	e08e0183 	add	r0, lr, r3, lsl #3
    279c:	e58de018 	str	lr, [sp, #24]
    27a0:	e59dc02c 	ldr	ip, [sp, #44]	; 0x2c
    27a4:	e2833001 	add	r3, r3, #1
    27a8:	e1520003 	cmp	r2, r3
    27ac:	e5908004 	ldr	r8, [r0, #4]
    27b0:	e59cc000 	ldr	ip, [ip]
    27b4:	da000036 	ble	2894 <opj_dwt_encode+0x4a0>
    27b8:	e590e008 	ldr	lr, [r0, #8]
    27bc:	e1510003 	cmp	r1, r3
    27c0:	e08cc00e 	add	ip, ip, lr
    27c4:	e2800008 	add	r0, r0, #8
    27c8:	e048c0cc 	sub	ip, r8, ip, asr #1
    27cc:	e500c004 	str	ip, [r0, #-4]
    27d0:	cafffff2 	bgt	27a0 <opj_dwt_encode+0x3ac>
    27d4:	e59de018 	ldr	lr, [sp, #24]
    27d8:	e3510000 	cmp	r1, #0
    27dc:	e59e0004 	ldr	r0, [lr, #4]
    27e0:	d59d3028 	ldrle	r3, [sp, #40]	; 0x28
    27e4:	c59a3000 	ldrgt	r3, [sl]
    27e8:	e59ec000 	ldr	ip, [lr]
    27ec:	d5933000 	ldrle	r3, [r3]
    27f0:	e3520001 	cmp	r2, #1
    27f4:	e0803003 	add	r3, r0, r3
    27f8:	e2833002 	add	r3, r3, #2
    27fc:	e08c3143 	add	r3, ip, r3, asr #2
    2800:	e58e3000 	str	r3, [lr]
    2804:	c3a03001 	movgt	r3, #1
    2808:	ca00000a 	bgt	2838 <opj_dwt_encode+0x444>
    280c:	ea00002b 	b	28c0 <opj_dwt_encode+0x4cc>
    2810:	e59d0028 	ldr	r0, [sp, #40]	; 0x28
    2814:	e5900000 	ldr	r0, [r0]
    2818:	e1a08000 	mov	r8, r0
    281c:	e0800008 	add	r0, r0, r8
    2820:	e2800002 	add	r0, r0, #2
    2824:	e08c0140 	add	r0, ip, r0, asr #2
    2828:	e78e0183 	str	r0, [lr, r3, lsl #3]
    282c:	e2833001 	add	r3, r3, #1
    2830:	e1520003 	cmp	r2, r3
    2834:	0a000021 	beq	28c0 <opj_dwt_encode+0x4cc>
    2838:	e1510003 	cmp	r1, r3
    283c:	e79ec183 	ldr	ip, [lr, r3, lsl #3]
    2840:	bafffff2 	blt	2810 <opj_dwt_encode+0x41c>
    2844:	059d8028 	ldreq	r8, [sp, #40]	; 0x28
    2848:	e7940183 	ldr	r0, [r4, r3, lsl #3]
    284c:	179a8183 	ldrne	r8, [sl, r3, lsl #3]
    2850:	05988000 	ldreq	r8, [r8]
    2854:	eafffff0 	b	281c <opj_dwt_encode+0x428>
    2858:	e79ac183 	ldr	ip, [sl, r3, lsl #3]
    285c:	e79e8183 	ldr	r8, [lr, r3, lsl #3]
    2860:	e2833001 	add	r3, r3, #1
    2864:	e1520003 	cmp	r2, r3
    2868:	d59d002c 	ldrle	r0, [sp, #44]	; 0x2c
    286c:	c79e0183 	ldrgt	r0, [lr, r3, lsl #3]
    2870:	d5900000 	ldrle	r0, [r0]
    2874:	e153000b 	cmp	r3, fp
    2878:	e0880000 	add	r0, r8, r0
    287c:	e04c00c0 	sub	r0, ip, r0, asr #1
    2880:	e7840183 	str	r0, [r4, r3, lsl #3]
    2884:	bafffff3 	blt	2858 <opj_dwt_encode+0x464>
    2888:	e1510003 	cmp	r1, r3
    288c:	caffffc1 	bgt	2798 <opj_dwt_encode+0x3a4>
    2890:	eaffffd0 	b	27d8 <opj_dwt_encode+0x3e4>
    2894:	e1a0c08c 	lsl	ip, ip, #1
    2898:	e1510003 	cmp	r1, r3
    289c:	e048c0cc 	sub	ip, r8, ip, asr #1
    28a0:	e580c004 	str	ip, [r0, #4]
    28a4:	e2800008 	add	r0, r0, #8
    28a8:	caffffbc 	bgt	27a0 <opj_dwt_encode+0x3ac>
    28ac:	e59de018 	ldr	lr, [sp, #24]
    28b0:	e3520000 	cmp	r2, #0
    28b4:	caffffc7 	bgt	27d8 <opj_dwt_encode+0x3e4>
    28b8:	e3520000 	cmp	r2, #0
    28bc:	0a000007 	beq	28e0 <opj_dwt_encode+0x4ec>
    28c0:	e59dc044 	ldr	ip, [sp, #68]	; 0x44
    28c4:	e3a03000 	mov	r3, #0
    28c8:	e59d8078 	ldr	r8, [sp, #120]	; 0x78
    28cc:	e79c0183 	ldr	r0, [ip, r3, lsl #3]
    28d0:	e1580003 	cmp	r8, r3
    28d4:	e6850006 	str	r0, [r5], r6
    28d8:	e2833001 	add	r3, r3, #1
    28dc:	1afffff9 	bne	28c8 <opj_dwt_encode+0x4d4>
    28e0:	e3510000 	cmp	r1, #0
    28e4:	e59d0014 	ldr	r0, [sp, #20]
    28e8:	0a000006 	beq	2908 <opj_dwt_encode+0x514>
    28ec:	e3a03000 	mov	r3, #0
    28f0:	e59dc074 	ldr	ip, [sp, #116]	; 0x74
    28f4:	e79cc183 	ldr	ip, [ip, r3, lsl #3]
    28f8:	e2833001 	add	r3, r3, #1
    28fc:	e1510003 	cmp	r1, r3
    2900:	e680c006 	str	ip, [r0], r6
    2904:	1afffff9 	bne	28f0 <opj_dwt_encode+0x4fc>
    2908:	e59d3004 	ldr	r3, [sp, #4]
    290c:	e2877001 	add	r7, r7, #1
    2910:	e1530007 	cmp	r3, r7
    2914:	e59d3014 	ldr	r3, [sp, #20]
    2918:	e2833004 	add	r3, r3, #4
    291c:	e58d3014 	str	r3, [sp, #20]
    2920:	1affff62 	bne	26b0 <opj_dwt_encode+0x2bc>
    2924:	e59d307c 	ldr	r3, [sp, #124]	; 0x7c
    2928:	e59d6080 	ldr	r6, [sp, #128]	; 0x80
    292c:	e58da018 	str	sl, [sp, #24]
    2930:	e59d200c 	ldr	r2, [sp, #12]
    2934:	e3520000 	cmp	r2, #0
    2938:	e59d2004 	ldr	r2, [sp, #4]
    293c:	e0422003 	sub	r2, r2, r3
    2940:	da0000be 	ble	2c40 <opj_dwt_encode+0x84c>
    2944:	e59d8024 	ldr	r8, [sp, #36]	; 0x24
    2948:	e59d7004 	ldr	r7, [sp, #4]
    294c:	e243c001 	sub	ip, r3, #1
    2950:	e1a01f08 	lsl	r1, r8, #30
    2954:	e0411008 	sub	r1, r1, r8
    2958:	e3530000 	cmp	r3, #0
    295c:	e3c7a001 	bic	sl, r7, #1
    2960:	e2425001 	sub	r5, r2, #1
    2964:	e08e1101 	add	r1, lr, r1, lsl #2
    2968:	e16f5f15 	clz	r5, r5
    296c:	e1a052a5 	lsr	r5, r5, #5
    2970:	13a05000 	movne	r5, #0
    2974:	e3530001 	cmp	r3, #1
    2978:	d3520000 	cmple	r2, #0
    297c:	e08eb18c 	add	fp, lr, ip, lsl #3
    2980:	e58d5008 	str	r5, [sp, #8]
    2984:	e2811004 	add	r1, r1, #4
    2988:	c3a05001 	movgt	r5, #1
    298c:	d3a05000 	movle	r5, #0
    2990:	e1a080a7 	lsr	r8, r7, #1
    2994:	e58da034 	str	sl, [sp, #52]	; 0x34
    2998:	e58d502c 	str	r5, [sp, #44]	; 0x2c
    299c:	e1a0a10a 	lsl	sl, sl, #2
    29a0:	e59d5004 	ldr	r5, [sp, #4]
    29a4:	e58d1028 	str	r1, [sp, #40]	; 0x28
    29a8:	e28b1004 	add	r1, fp, #4
    29ac:	e58d1030 	str	r1, [sp, #48]	; 0x30
    29b0:	e08e100a 	add	r1, lr, sl
    29b4:	e1a07103 	lsl	r7, r3, #2
    29b8:	e58d1048 	str	r1, [sp, #72]	; 0x48
    29bc:	e08e1188 	add	r1, lr, r8, lsl #3
    29c0:	e59d8024 	ldr	r8, [sp, #36]	; 0x24
    29c4:	e2420001 	sub	r0, r2, #1
    29c8:	e1a05105 	lsl	r5, r5, #2
    29cc:	e58d1044 	str	r1, [sp, #68]	; 0x44
    29d0:	e2471004 	sub	r1, r7, #4
    29d4:	e58d1058 	str	r1, [sp, #88]	; 0x58
    29d8:	e2451004 	sub	r1, r5, #4
    29dc:	e1530002 	cmp	r3, r2
    29e0:	e08e9180 	add	r9, lr, r0, lsl #3
    29e4:	e58da04c 	str	sl, [sp, #76]	; 0x4c
    29e8:	e58d1054 	str	r1, [sp, #84]	; 0x54
    29ec:	e59d7004 	ldr	r7, [sp, #4]
    29f0:	e08e1108 	add	r1, lr, r8, lsl #2
    29f4:	e59d5020 	ldr	r5, [sp, #32]
    29f8:	e59da018 	ldr	sl, [sp, #24]
    29fc:	e58db01c 	str	fp, [sp, #28]
    2a00:	e58d1024 	str	r1, [sp, #36]	; 0x24
    2a04:	e2899004 	add	r9, r9, #4
    2a08:	e3a01000 	mov	r1, #0
    2a0c:	e08eb180 	add	fp, lr, r0, lsl #3
    2a10:	b1a0c003 	movlt	ip, r3
    2a14:	a1a0c002 	movge	ip, r2
    2a18:	e58d1014 	str	r1, [sp, #20]
    2a1c:	e2471001 	sub	r1, r7, #1
    2a20:	e58d1050 	str	r1, [sp, #80]	; 0x50
    2a24:	e58d605c 	str	r6, [sp, #92]	; 0x5c
    2a28:	e59d1004 	ldr	r1, [sp, #4]
    2a2c:	e3510000 	cmp	r1, #0
    2a30:	da00001e 	ble	2ab0 <opj_dwt_encode+0x6bc>
    2a34:	e59d0094 	ldr	r0, [sp, #148]	; 0x94
    2a38:	e2851008 	add	r1, r5, #8
    2a3c:	e1500005 	cmp	r0, r5
    2a40:	83a06000 	movhi	r6, #0
    2a44:	93a06001 	movls	r6, #1
    2a48:	e18e0005 	orr	r0, lr, r5
    2a4c:	e15e0001 	cmp	lr, r1
    2a50:	31a01006 	movcc	r1, r6
    2a54:	23861001 	orrcs	r1, r6, #1
    2a58:	e3100007 	tst	r0, #7
    2a5c:	e59d0050 	ldr	r0, [sp, #80]	; 0x50
    2a60:	13a01000 	movne	r1, #0
    2a64:	e3500005 	cmp	r0, #5
    2a68:	93a01000 	movls	r1, #0
    2a6c:	82011001 	andhi	r1, r1, #1
    2a70:	e3510000 	cmp	r1, #0
    2a74:	0a0000b5 	beq	2d50 <opj_dwt_encode+0x95c>
    2a78:	e2457008 	sub	r7, r5, #8
    2a7c:	e1a0600e 	mov	r6, lr
    2a80:	e1e700d8 	ldrd	r0, [r7, #8]!
    2a84:	e0c600f8 	strd	r0, [r6], #8
    2a88:	e59d1044 	ldr	r1, [sp, #68]	; 0x44
    2a8c:	e1510006 	cmp	r1, r6
    2a90:	1afffffa 	bne	2a80 <opj_dwt_encode+0x68c>
    2a94:	e59d1034 	ldr	r1, [sp, #52]	; 0x34
    2a98:	e59d0004 	ldr	r0, [sp, #4]
    2a9c:	e1510000 	cmp	r1, r0
    2aa0:	159d104c 	ldrne	r1, [sp, #76]	; 0x4c
    2aa4:	159d0048 	ldrne	r0, [sp, #72]	; 0x48
    2aa8:	17951001 	ldrne	r1, [r5, r1]
    2aac:	15801000 	strne	r1, [r0]
    2ab0:	e3580000 	cmp	r8, #0
    2ab4:	1a0000af 	bne	2d78 <opj_dwt_encode+0x984>
    2ab8:	e59d102c 	ldr	r1, [sp, #44]	; 0x2c
    2abc:	e3510000 	cmp	r1, #0
    2ac0:	0a000069 	beq	2c6c <opj_dwt_encode+0x878>
    2ac4:	e3520000 	cmp	r2, #0
    2ac8:	da000045 	ble	2be4 <opj_dwt_encode+0x7f0>
    2acc:	e3530000 	cmp	r3, #0
    2ad0:	e1a01008 	mov	r1, r8
    2ad4:	ca00002c 	bgt	2b8c <opj_dwt_encode+0x798>
    2ad8:	e08e0181 	add	r0, lr, r1, lsl #3
    2adc:	e58dc018 	str	ip, [sp, #24]
    2ae0:	e59d601c 	ldr	r6, [sp, #28]
    2ae4:	e2811001 	add	r1, r1, #1
    2ae8:	e1530001 	cmp	r3, r1
    2aec:	e5907004 	ldr	r7, [r0, #4]
    2af0:	e5966000 	ldr	r6, [r6]
    2af4:	da000033 	ble	2bc8 <opj_dwt_encode+0x7d4>
    2af8:	e590c008 	ldr	ip, [r0, #8]
    2afc:	e1520001 	cmp	r2, r1
    2b00:	e086600c 	add	r6, r6, ip
    2b04:	e2800008 	add	r0, r0, #8
    2b08:	e04760c6 	sub	r6, r7, r6, asr #1
    2b0c:	e5006004 	str	r6, [r0, #-4]
    2b10:	cafffff2 	bgt	2ae0 <opj_dwt_encode+0x6ec>
    2b14:	e59dc018 	ldr	ip, [sp, #24]
    2b18:	e3520000 	cmp	r2, #0
    2b1c:	e59e0004 	ldr	r0, [lr, #4]
    2b20:	d5991000 	ldrle	r1, [r9]
    2b24:	c59a1000 	ldrgt	r1, [sl]
    2b28:	e59e6000 	ldr	r6, [lr]
    2b2c:	e0801001 	add	r1, r0, r1
    2b30:	e2811002 	add	r1, r1, #2
    2b34:	e3530001 	cmp	r3, #1
    2b38:	e0861141 	add	r1, r6, r1, asr #2
    2b3c:	e58e1000 	str	r1, [lr]
    2b40:	c3a01001 	movgt	r1, #1
    2b44:	ca000009 	bgt	2b70 <opj_dwt_encode+0x77c>
    2b48:	ea000049 	b	2c74 <opj_dwt_encode+0x880>
    2b4c:	e5997000 	ldr	r7, [r9]
    2b50:	e1a00007 	mov	r0, r7
    2b54:	e0800007 	add	r0, r0, r7
    2b58:	e2800002 	add	r0, r0, #2
    2b5c:	e0860140 	add	r0, r6, r0, asr #2
    2b60:	e78e0181 	str	r0, [lr, r1, lsl #3]
    2b64:	e2811001 	add	r1, r1, #1
    2b68:	e1530001 	cmp	r3, r1
    2b6c:	0a000040 	beq	2c74 <opj_dwt_encode+0x880>
    2b70:	e1520001 	cmp	r2, r1
    2b74:	e79e6181 	ldr	r6, [lr, r1, lsl #3]
    2b78:	bafffff3 	blt	2b4c <opj_dwt_encode+0x758>
    2b7c:	e7947181 	ldr	r7, [r4, r1, lsl #3]
    2b80:	05990000 	ldreq	r0, [r9]
    2b84:	179a0181 	ldrne	r0, [sl, r1, lsl #3]
    2b88:	eafffff1 	b	2b54 <opj_dwt_encode+0x760>
    2b8c:	e79a6181 	ldr	r6, [sl, r1, lsl #3]
    2b90:	e79e7181 	ldr	r7, [lr, r1, lsl #3]
    2b94:	e2811001 	add	r1, r1, #1
    2b98:	e1530001 	cmp	r3, r1
    2b9c:	d59d001c 	ldrle	r0, [sp, #28]
    2ba0:	c79e0181 	ldrgt	r0, [lr, r1, lsl #3]
    2ba4:	d5900000 	ldrle	r0, [r0]
    2ba8:	e151000c 	cmp	r1, ip
    2bac:	e0870000 	add	r0, r7, r0
    2bb0:	e04600c0 	sub	r0, r6, r0, asr #1
    2bb4:	e7840181 	str	r0, [r4, r1, lsl #3]
    2bb8:	bafffff3 	blt	2b8c <opj_dwt_encode+0x798>
    2bbc:	e1520001 	cmp	r2, r1
    2bc0:	caffffc4 	bgt	2ad8 <opj_dwt_encode+0x6e4>
    2bc4:	eaffffd3 	b	2b18 <opj_dwt_encode+0x724>
    2bc8:	e1a06086 	lsl	r6, r6, #1
    2bcc:	e1520001 	cmp	r2, r1
    2bd0:	e04760c6 	sub	r6, r7, r6, asr #1
    2bd4:	e5806004 	str	r6, [r0, #4]
    2bd8:	e2800008 	add	r0, r0, #8
    2bdc:	caffffbf 	bgt	2ae0 <opj_dwt_encode+0x6ec>
    2be0:	e59dc018 	ldr	ip, [sp, #24]
    2be4:	e3530000 	cmp	r3, #0
    2be8:	caffffca 	bgt	2b18 <opj_dwt_encode+0x724>
    2bec:	e3520000 	cmp	r2, #0
    2bf0:	da000008 	ble	2c18 <opj_dwt_encode+0x824>
    2bf4:	e59d1058 	ldr	r1, [sp, #88]	; 0x58
    2bf8:	e0810005 	add	r0, r1, r5
    2bfc:	e3a01000 	mov	r1, #0
    2c00:	e59d6028 	ldr	r6, [sp, #40]	; 0x28
    2c04:	e7966181 	ldr	r6, [r6, r1, lsl #3]
    2c08:	e2811001 	add	r1, r1, #1
    2c0c:	e1520001 	cmp	r2, r1
    2c10:	e5a06004 	str	r6, [r0, #4]!
    2c14:	1afffff9 	bne	2c00 <opj_dwt_encode+0x80c>
    2c18:	e59d1014 	ldr	r1, [sp, #20]
    2c1c:	e59d000c 	ldr	r0, [sp, #12]
    2c20:	e2811001 	add	r1, r1, #1
    2c24:	e58d1014 	str	r1, [sp, #20]
    2c28:	e1500001 	cmp	r0, r1
    2c2c:	e59d1010 	ldr	r1, [sp, #16]
    2c30:	e0855001 	add	r5, r5, r1
    2c34:	1affff7b 	bne	2a28 <opj_dwt_encode+0x634>
    2c38:	e59d605c 	ldr	r6, [sp, #92]	; 0x5c
    2c3c:	e58da018 	str	sl, [sp, #24]
    2c40:	e59d3038 	ldr	r3, [sp, #56]	; 0x38
    2c44:	e2466098 	sub	r6, r6, #152	; 0x98
    2c48:	e2433001 	sub	r3, r3, #1
    2c4c:	e3730001 	cmn	r3, #1
    2c50:	e58d3038 	str	r3, [sp, #56]	; 0x38
    2c54:	1afffe2d 	bne	2510 <opj_dwt_encode+0x11c>
    2c58:	e1a0000e 	mov	r0, lr
    2c5c:	ebfffffe 	bl	0 <opj_free>
    2c60:	e3a00001 	mov	r0, #1
    2c64:	e28dd09c 	add	sp, sp, #156	; 0x9c
    2c68:	e8bd8ff0 	pop	{r4, r5, r6, r7, r8, r9, sl, fp, pc}
    2c6c:	e3530001 	cmp	r3, #1
    2c70:	1affffe8 	bne	2c18 <opj_dwt_encode+0x824>
    2c74:	e2450004 	sub	r0, r5, #4
    2c78:	e3a01000 	mov	r1, #0
    2c7c:	e59d6024 	ldr	r6, [sp, #36]	; 0x24
    2c80:	e7966181 	ldr	r6, [r6, r1, lsl #3]
    2c84:	e2811001 	add	r1, r1, #1
    2c88:	e1530001 	cmp	r3, r1
    2c8c:	e5a06004 	str	r6, [r0, #4]!
    2c90:	cafffff9 	bgt	2c7c <opj_dwt_encode+0x888>
    2c94:	eaffffd4 	b	2bec <opj_dwt_encode+0x7f8>
    2c98:	e1a03004 	mov	r3, r4
    2c9c:	e690c006 	ldr	ip, [r0], r6
    2ca0:	e5a3c004 	str	ip, [r3, #4]!
    2ca4:	e59dc048 	ldr	ip, [sp, #72]	; 0x48
    2ca8:	e15c0003 	cmp	ip, r3
    2cac:	1afffffa 	bne	2c9c <opj_dwt_encode+0x8a8>
    2cb0:	e59d3008 	ldr	r3, [sp, #8]
    2cb4:	e3530000 	cmp	r3, #0
    2cb8:	0afffeae 	beq	2778 <opj_dwt_encode+0x384>
    2cbc:	e59d301c 	ldr	r3, [sp, #28]
    2cc0:	e3530000 	cmp	r3, #0
    2cc4:	1a0000b4 	bne	2f9c <opj_dwt_encode+0xba8>
    2cc8:	e3510000 	cmp	r1, #0
    2ccc:	da0000c6 	ble	2fec <opj_dwt_encode+0xbf8>
    2cd0:	e3520000 	cmp	r2, #0
    2cd4:	da000016 	ble	2d34 <opj_dwt_encode+0x940>
    2cd8:	e3530000 	cmp	r3, #0
    2cdc:	e79ec183 	ldr	ip, [lr, r3, lsl #3]
    2ce0:	e79a8183 	ldr	r8, [sl, r3, lsl #3]
    2ce4:	0a0000b1 	beq	2fb0 <opj_dwt_encode+0xbbc>
    2ce8:	e7940183 	ldr	r0, [r4, r3, lsl #3]
    2cec:	e0880000 	add	r0, r8, r0
    2cf0:	e04c00c0 	sub	r0, ip, r0, asr #1
    2cf4:	e78e0183 	str	r0, [lr, r3, lsl #3]
    2cf8:	e2833001 	add	r3, r3, #1
    2cfc:	e153000b 	cmp	r3, fp
    2d00:	bafffff4 	blt	2cd8 <opj_dwt_encode+0x8e4>
    2d04:	e1510003 	cmp	r1, r3
    2d08:	ca000009 	bgt	2d34 <opj_dwt_encode+0x940>
    2d0c:	ea000077 	b	2ef0 <opj_dwt_encode+0xafc>
    2d10:	e1520003 	cmp	r2, r3
    2d14:	e1a00008 	mov	r0, r8
    2d18:	a7940183 	ldrge	r0, [r4, r3, lsl #3]
    2d1c:	e0800008 	add	r0, r0, r8
    2d20:	e04c00c0 	sub	r0, ip, r0, asr #1
    2d24:	e78e0183 	str	r0, [lr, r3, lsl #3]
    2d28:	e2833001 	add	r3, r3, #1
    2d2c:	e1510003 	cmp	r1, r3
    2d30:	da00006c 	ble	2ee8 <opj_dwt_encode+0xaf4>
    2d34:	e59d0058 	ldr	r0, [sp, #88]	; 0x58
    2d38:	e3530000 	cmp	r3, #0
    2d3c:	e79ec183 	ldr	ip, [lr, r3, lsl #3]
    2d40:	e5908000 	ldr	r8, [r0]
    2d44:	cafffff1 	bgt	2d10 <opj_dwt_encode+0x91c>
    2d48:	e59e0004 	ldr	r0, [lr, #4]
    2d4c:	eafffff2 	b	2d1c <opj_dwt_encode+0x928>
    2d50:	e59d6054 	ldr	r6, [sp, #84]	; 0x54
    2d54:	e2451004 	sub	r1, r5, #4
    2d58:	e24e0004 	sub	r0, lr, #4
    2d5c:	e0866005 	add	r6, r6, r5
    2d60:	e5b17004 	ldr	r7, [r1, #4]!
    2d64:	e1560001 	cmp	r6, r1
    2d68:	e5a07004 	str	r7, [r0, #4]!
    2d6c:	1afffffb 	bne	2d60 <opj_dwt_encode+0x96c>
    2d70:	e3580000 	cmp	r8, #0
    2d74:	0affff4f 	beq	2ab8 <opj_dwt_encode+0x6c4>
    2d78:	e59d1008 	ldr	r1, [sp, #8]
    2d7c:	e3510000 	cmp	r1, #0
    2d80:	1a000054 	bne	2ed8 <opj_dwt_encode+0xae4>
    2d84:	e3520000 	cmp	r2, #0
    2d88:	da00009b 	ble	2ffc <opj_dwt_encode+0xc08>
    2d8c:	e3530000 	cmp	r3, #0
    2d90:	da000016 	ble	2df0 <opj_dwt_encode+0x9fc>
    2d94:	e3510000 	cmp	r1, #0
    2d98:	e79e6181 	ldr	r6, [lr, r1, lsl #3]
    2d9c:	e79a7181 	ldr	r7, [sl, r1, lsl #3]
    2da0:	0a000044 	beq	2eb8 <opj_dwt_encode+0xac4>
    2da4:	e7940181 	ldr	r0, [r4, r1, lsl #3]
    2da8:	e0870000 	add	r0, r7, r0
    2dac:	e04600c0 	sub	r0, r6, r0, asr #1
    2db0:	e78e0181 	str	r0, [lr, r1, lsl #3]
    2db4:	e2811001 	add	r1, r1, #1
    2db8:	e151000c 	cmp	r1, ip
    2dbc:	bafffff4 	blt	2d94 <opj_dwt_encode+0x9a0>
    2dc0:	e1520001 	cmp	r2, r1
    2dc4:	ca000009 	bgt	2df0 <opj_dwt_encode+0x9fc>
    2dc8:	ea000011 	b	2e14 <opj_dwt_encode+0xa20>
    2dcc:	e1530001 	cmp	r3, r1
    2dd0:	e1a00007 	mov	r0, r7
    2dd4:	a7940181 	ldrge	r0, [r4, r1, lsl #3]
    2dd8:	e0800007 	add	r0, r0, r7
    2ddc:	e04600c0 	sub	r0, r6, r0, asr #1
    2de0:	e78e0181 	str	r0, [lr, r1, lsl #3]
    2de4:	e2811001 	add	r1, r1, #1
    2de8:	e1520001 	cmp	r2, r1
    2dec:	da000006 	ble	2e0c <opj_dwt_encode+0xa18>
    2df0:	e59d0030 	ldr	r0, [sp, #48]	; 0x30
    2df4:	e3510000 	cmp	r1, #0
    2df8:	e79e6181 	ldr	r6, [lr, r1, lsl #3]
    2dfc:	e5907000 	ldr	r7, [r0]
    2e00:	cafffff1 	bgt	2dcc <opj_dwt_encode+0x9d8>
    2e04:	e59e0004 	ldr	r0, [lr, #4]
    2e08:	eafffff2 	b	2dd8 <opj_dwt_encode+0x9e4>
    2e0c:	e3530000 	cmp	r3, #0
    2e10:	daffff77 	ble	2bf4 <opj_dwt_encode+0x800>
    2e14:	e3a01000 	mov	r1, #0
    2e18:	e79a6181 	ldr	r6, [sl, r1, lsl #3]
    2e1c:	e79e7181 	ldr	r7, [lr, r1, lsl #3]
    2e20:	e2811001 	add	r1, r1, #1
    2e24:	e1520001 	cmp	r2, r1
    2e28:	d59b0000 	ldrle	r0, [fp]
    2e2c:	c79e0181 	ldrgt	r0, [lr, r1, lsl #3]
    2e30:	e151000c 	cmp	r1, ip
    2e34:	e0870000 	add	r0, r7, r0
    2e38:	e2800002 	add	r0, r0, #2
    2e3c:	e0860140 	add	r0, r6, r0, asr #2
    2e40:	e7840181 	str	r0, [r4, r1, lsl #3]
    2e44:	bafffff3 	blt	2e18 <opj_dwt_encode+0xa24>
    2e48:	e1530001 	cmp	r3, r1
    2e4c:	daffff88 	ble	2c74 <opj_dwt_encode+0x880>
    2e50:	e08e6181 	add	r6, lr, r1, lsl #3
    2e54:	e58dc018 	str	ip, [sp, #24]
    2e58:	e2811001 	add	r1, r1, #1
    2e5c:	e1520001 	cmp	r2, r1
    2e60:	e5967004 	ldr	r7, [r6, #4]
    2e64:	e59b0000 	ldr	r0, [fp]
    2e68:	da000009 	ble	2e94 <opj_dwt_encode+0xaa0>
    2e6c:	e596c008 	ldr	ip, [r6, #8]
    2e70:	e1530001 	cmp	r3, r1
    2e74:	e080000c 	add	r0, r0, ip
    2e78:	e2800002 	add	r0, r0, #2
    2e7c:	e2866008 	add	r6, r6, #8
    2e80:	e0870140 	add	r0, r7, r0, asr #2
    2e84:	e5060004 	str	r0, [r6, #-4]
    2e88:	cafffff2 	bgt	2e58 <opj_dwt_encode+0xa64>
    2e8c:	e59dc018 	ldr	ip, [sp, #24]
    2e90:	eaffff77 	b	2c74 <opj_dwt_encode+0x880>
    2e94:	e2800001 	add	r0, r0, #1
    2e98:	e1530001 	cmp	r3, r1
    2e9c:	e1a00080 	lsl	r0, r0, #1
    2ea0:	e2866008 	add	r6, r6, #8
    2ea4:	e0870140 	add	r0, r7, r0, asr #2
    2ea8:	e5060004 	str	r0, [r6, #-4]
    2eac:	caffffe9 	bgt	2e58 <opj_dwt_encode+0xa64>
    2eb0:	e59dc018 	ldr	ip, [sp, #24]
    2eb4:	eaffff6e 	b	2c74 <opj_dwt_encode+0x880>
    2eb8:	e59e0004 	ldr	r0, [lr, #4]
    2ebc:	e35c0001 	cmp	ip, #1
    2ec0:	e0870000 	add	r0, r7, r0
    2ec4:	e1a01008 	mov	r1, r8
    2ec8:	e04600c0 	sub	r0, r6, r0, asr #1
    2ecc:	e58e0000 	str	r0, [lr]
    2ed0:	caffffaf 	bgt	2d94 <opj_dwt_encode+0x9a0>
    2ed4:	eaffffb9 	b	2dc0 <opj_dwt_encode+0x9cc>
    2ed8:	e59e1000 	ldr	r1, [lr]
    2edc:	e1a01081 	lsl	r1, r1, #1
    2ee0:	e58e1000 	str	r1, [lr]
    2ee4:	eaffff42 	b	2bf4 <opj_dwt_encode+0x800>
    2ee8:	e3520000 	cmp	r2, #0
    2eec:	dafffe71 	ble	28b8 <opj_dwt_encode+0x4c4>
    2ef0:	e3a03000 	mov	r3, #0
    2ef4:	e79ac183 	ldr	ip, [sl, r3, lsl #3]
    2ef8:	e79e8183 	ldr	r8, [lr, r3, lsl #3]
    2efc:	e2833001 	add	r3, r3, #1
    2f00:	e1510003 	cmp	r1, r3
    2f04:	d59d0030 	ldrle	r0, [sp, #48]	; 0x30
    2f08:	c79e0183 	ldrgt	r0, [lr, r3, lsl #3]
    2f0c:	d5900000 	ldrle	r0, [r0]
    2f10:	e153000b 	cmp	r3, fp
    2f14:	e0880000 	add	r0, r8, r0
    2f18:	e2800002 	add	r0, r0, #2
    2f1c:	e08c0140 	add	r0, ip, r0, asr #2
    2f20:	e7840183 	str	r0, [r4, r3, lsl #3]
    2f24:	bafffff2 	blt	2ef4 <opj_dwt_encode+0xb00>
    2f28:	e1520003 	cmp	r2, r3
    2f2c:	dafffe63 	ble	28c0 <opj_dwt_encode+0x4cc>
    2f30:	e08ec183 	add	ip, lr, r3, lsl #3
    2f34:	e58de018 	str	lr, [sp, #24]
    2f38:	e59d0030 	ldr	r0, [sp, #48]	; 0x30
    2f3c:	e2833001 	add	r3, r3, #1
    2f40:	e1510003 	cmp	r1, r3
    2f44:	e59c8004 	ldr	r8, [ip, #4]
    2f48:	e5900000 	ldr	r0, [r0]
    2f4c:	da000009 	ble	2f78 <opj_dwt_encode+0xb84>
    2f50:	e59ce008 	ldr	lr, [ip, #8]
    2f54:	e1520003 	cmp	r2, r3
    2f58:	e080000e 	add	r0, r0, lr
    2f5c:	e2800002 	add	r0, r0, #2
    2f60:	e28cc008 	add	ip, ip, #8
    2f64:	e0880140 	add	r0, r8, r0, asr #2
    2f68:	e50c0004 	str	r0, [ip, #-4]
    2f6c:	cafffff1 	bgt	2f38 <opj_dwt_encode+0xb44>
    2f70:	e59de018 	ldr	lr, [sp, #24]
    2f74:	eafffe51 	b	28c0 <opj_dwt_encode+0x4cc>
    2f78:	e2800001 	add	r0, r0, #1
    2f7c:	e1520003 	cmp	r2, r3
    2f80:	e1a00080 	lsl	r0, r0, #1
    2f84:	e28cc008 	add	ip, ip, #8
    2f88:	e0880140 	add	r0, r8, r0, asr #2
    2f8c:	e50c0004 	str	r0, [ip, #-4]
    2f90:	caffffe8 	bgt	2f38 <opj_dwt_encode+0xb44>
    2f94:	e59de018 	ldr	lr, [sp, #24]
    2f98:	eafffe48 	b	28c0 <opj_dwt_encode+0x4cc>
    2f9c:	e59e3000 	ldr	r3, [lr]
    2fa0:	e59d0014 	ldr	r0, [sp, #20]
    2fa4:	e1a03083 	lsl	r3, r3, #1
    2fa8:	e58e3000 	str	r3, [lr]
    2fac:	eafffe4e 	b	28ec <opj_dwt_encode+0x4f8>
    2fb0:	e59e0004 	ldr	r0, [lr, #4]
    2fb4:	e35b0001 	cmp	fp, #1
    2fb8:	e0880000 	add	r0, r8, r0
    2fbc:	e59d3008 	ldr	r3, [sp, #8]
    2fc0:	e04c00c0 	sub	r0, ip, r0, asr #1
    2fc4:	e58e0000 	str	r0, [lr]
    2fc8:	caffff42 	bgt	2cd8 <opj_dwt_encode+0x8e4>
    2fcc:	eaffff4c 	b	2d04 <opj_dwt_encode+0x910>
    2fd0:	e1a00005 	mov	r0, r5
    2fd4:	ebfffffe 	bl	0 <opj_malloc>
    2fd8:	e1a0e000 	mov	lr, r0
    2fdc:	e1a0000e 	mov	r0, lr
    2fe0:	ebfffffe 	bl	0 <opj_free>
    2fe4:	e3a00001 	mov	r0, #1
    2fe8:	eaffff1d 	b	2c64 <opj_dwt_encode+0x870>
    2fec:	e3520000 	cmp	r2, #0
    2ff0:	c59d301c 	ldrgt	r3, [sp, #28]
    2ff4:	caffffcd 	bgt	2f30 <opj_dwt_encode+0xb3c>
    2ff8:	eafffe2e 	b	28b8 <opj_dwt_encode+0x4c4>
    2ffc:	e3530000 	cmp	r3, #0
    3000:	c59d1008 	ldrgt	r1, [sp, #8]
    3004:	caffff91 	bgt	2e50 <opj_dwt_encode+0xa5c>
    3008:	eaffff02 	b	2c18 <opj_dwt_encode+0x824>

0000300c <opj_dwt_decode>:
    300c:	e92d4ff0 	push	{r4, r5, r6, r7, r8, r9, sl, fp, lr}
    3010:	e24ddf4f 	sub	sp, sp, #316	; 0x13c
    3014:	e591701c 	ldr	r7, [r1, #28]
    3018:	e5903040 	ldr	r3, [r0, #64]	; 0x40
    301c:	e1a0c001 	mov	ip, r1
    3020:	e1a0e003 	mov	lr, r3
    3024:	e58d104c 	str	r1, [sp, #76]	; 0x4c
    3028:	e58d3034 	str	r3, [sp, #52]	; 0x34
    302c:	e5971008 	ldr	r1, [r7, #8]
    3030:	e5973000 	ldr	r3, [r7]
    3034:	e1a04002 	mov	r4, r2
    3038:	e0413003 	sub	r3, r1, r3
    303c:	e58d2044 	str	r2, [sp, #68]	; 0x44
    3040:	e58d302c 	str	r3, [sp, #44]	; 0x2c
    3044:	e597200c 	ldr	r2, [r7, #12]
    3048:	e5973004 	ldr	r3, [r7, #4]
    304c:	e35e0000 	cmp	lr, #0
    3050:	e042a003 	sub	sl, r2, r3
    3054:	0a000028 	beq	30fc <opj_dwt_decode+0xf0>
    3058:	e3540001 	cmp	r4, #1
    305c:	0a0000e9 	beq	3408 <opj_dwt_decode+0x3fc>
    3060:	e59c3018 	ldr	r3, [ip, #24]
    3064:	e590002c 	ldr	r0, [r0, #44]	; 0x2c
    3068:	e2446001 	sub	r6, r4, #1
    306c:	e0832183 	add	r2, r3, r3, lsl #3
    3070:	e58d0028 	str	r0, [sp, #40]	; 0x28
    3074:	e0833082 	add	r3, r3, r2, lsl #1
    3078:	e58d605c 	str	r6, [sp, #92]	; 0x5c
    307c:	e1a03183 	lsl	r3, r3, #3
    3080:	e2433098 	sub	r3, r3, #152	; 0x98
    3084:	e0872003 	add	r2, r7, r3
    3088:	e58d7050 	str	r7, [sp, #80]	; 0x50
    308c:	e5925008 	ldr	r5, [r2, #8]
    3090:	e7974003 	ldr	r4, [r7, r3]
    3094:	ebfffffe 	bl	0 <opj_thread_pool_get_thread_count>
    3098:	e1a08007 	mov	r8, r7
    309c:	e1a02007 	mov	r2, r7
    30a0:	e1a0c006 	mov	ip, r6
    30a4:	e58d0054 	str	r0, [sp, #84]	; 0x54
    30a8:	e3a00000 	mov	r0, #0
    30ac:	e59230a0 	ldr	r3, [r2, #160]	; 0xa0
    30b0:	e5926098 	ldr	r6, [r2, #152]	; 0x98
    30b4:	e59210a4 	ldr	r1, [r2, #164]	; 0xa4
    30b8:	e592e09c 	ldr	lr, [r2, #156]	; 0x9c
    30bc:	e0433006 	sub	r3, r3, r6
    30c0:	e041100e 	sub	r1, r1, lr
    30c4:	e1530001 	cmp	r3, r1
    30c8:	31a03001 	movcc	r3, r1
    30cc:	e1500003 	cmp	r0, r3
    30d0:	31a00003 	movcc	r0, r3
    30d4:	e25cc001 	subs	ip, ip, #1
    30d8:	e2822098 	add	r2, r2, #152	; 0x98
    30dc:	1afffff2 	bne	30ac <opj_dwt_decode+0xa0>
    30e0:	e370037e 	cmn	r0, #-134217727	; 0xf8000001
    30e4:	9a0000cb 	bls	3418 <opj_dwt_decode+0x40c>
    30e8:	e3a03000 	mov	r3, #0
    30ec:	e58d3034 	str	r3, [sp, #52]	; 0x34
    30f0:	e59d0034 	ldr	r0, [sp, #52]	; 0x34
    30f4:	e28ddf4f 	add	sp, sp, #316	; 0x13c
    30f8:	e8bd8ff0 	pop	{r4, r5, r6, r7, r8, r9, sl, fp, pc}
    30fc:	e0843184 	add	r3, r4, r4, lsl #3
    3100:	e0843083 	add	r3, r4, r3, lsl #1
    3104:	e1a03183 	lsl	r3, r3, #3
    3108:	e2433098 	sub	r3, r3, #152	; 0x98
    310c:	e0871003 	add	r1, r7, r3
    3110:	e7972003 	ldr	r2, [r7, r3]
    3114:	e58d30a4 	str	r3, [sp, #164]	; 0xa4
    3118:	e5913008 	ldr	r3, [r1, #8]
    311c:	e58d10a0 	str	r1, [sp, #160]	; 0xa0
    3120:	e1520003 	cmp	r2, r3
    3124:	0a0000b2 	beq	33f4 <opj_dwt_decode+0x3e8>
    3128:	e5912004 	ldr	r2, [r1, #4]
    312c:	e591300c 	ldr	r3, [r1, #12]
    3130:	e1520003 	cmp	r2, r3
    3134:	0a0000ae 	beq	33f4 <opj_dwt_decode+0x3e8>
    3138:	e59c2038 	ldr	r2, [ip, #56]	; 0x38
    313c:	e59c3044 	ldr	r3, [ip, #68]	; 0x44
    3140:	e58d209c 	str	r2, [sp, #156]	; 0x9c
    3144:	e59c203c 	ldr	r2, [ip, #60]	; 0x3c
    3148:	e1a01004 	mov	r1, r4
    314c:	e58d2084 	str	r2, [sp, #132]	; 0x84
    3150:	e59c2040 	ldr	r2, [ip, #64]	; 0x40
    3154:	e28c001c 	add	r0, ip, #28
    3158:	e58d308c 	str	r3, [sp, #140]	; 0x8c
    315c:	e58d2088 	str	r2, [sp, #136]	; 0x88
    3160:	ebfff5db 	bl	8d4 <opj_dwt_init_sparse_array.isra.4>
    3164:	e2503000 	subs	r3, r0, #0
    3168:	e58d3024 	str	r3, [sp, #36]	; 0x24
    316c:	0a0000a2 	beq	33fc <opj_dwt_decode+0x3f0>
    3170:	e3540001 	cmp	r4, #1
    3174:	0a000859 	beq	52e0 <opj_dwt_decode+0x22d4>
    3178:	e59d0034 	ldr	r0, [sp, #52]	; 0x34
    317c:	e244c001 	sub	ip, r4, #1
    3180:	e1a02007 	mov	r2, r7
    3184:	e58d7090 	str	r7, [sp, #144]	; 0x90
    3188:	e59230a0 	ldr	r3, [r2, #160]	; 0xa0
    318c:	e5924098 	ldr	r4, [r2, #152]	; 0x98
    3190:	e59210a4 	ldr	r1, [r2, #164]	; 0xa4
    3194:	e592e09c 	ldr	lr, [r2, #156]	; 0x9c
    3198:	e0433004 	sub	r3, r3, r4
    319c:	e041100e 	sub	r1, r1, lr
    31a0:	e1530001 	cmp	r3, r1
    31a4:	31a03001 	movcc	r3, r1
    31a8:	e1500003 	cmp	r0, r3
    31ac:	31a00003 	movcc	r0, r3
    31b0:	e25cc001 	subs	ip, ip, #1
    31b4:	e2822098 	add	r2, r2, #152	; 0x98
    31b8:	1afffff2 	bne	3188 <opj_dwt_decode+0x17c>
    31bc:	e370021f 	cmn	r0, #-268435455	; 0xf0000001
    31c0:	8a000831 	bhi	528c <opj_dwt_decode+0x2280>
    31c4:	e1a00200 	lsl	r0, r0, #4
    31c8:	ebfffffe 	bl	0 <opj_aligned_32_malloc>
    31cc:	e250b000 	subs	fp, r0, #0
    31d0:	0a00082d 	beq	528c <opj_dwt_decode+0x2280>
    31d4:	e59d3044 	ldr	r3, [sp, #68]	; 0x44
    31d8:	e3530001 	cmp	r3, #1
    31dc:	9a000599 	bls	4848 <opj_dwt_decode+0x183c>
    31e0:	e3a03001 	mov	r3, #1
    31e4:	e1a0900a 	mov	r9, sl
    31e8:	e59da02c 	ldr	sl, [sp, #44]	; 0x2c
    31ec:	e58d30c4 	str	r3, [sp, #196]	; 0xc4
    31f0:	e28d3f4a 	add	r3, sp, #296	; 0x128
    31f4:	e58d30e4 	str	r3, [sp, #228]	; 0xe4
    31f8:	e24b3004 	sub	r3, fp, #4
    31fc:	e58d30e8 	str	r3, [sp, #232]	; 0xe8
    3200:	e58d7114 	str	r7, [sp, #276]	; 0x114
    3204:	e59d2090 	ldr	r2, [sp, #144]	; 0x90
    3208:	e59d604c 	ldr	r6, [sp, #76]	; 0x4c
    320c:	e59d70c4 	ldr	r7, [sp, #196]	; 0xc4
    3210:	e5920098 	ldr	r0, [r2, #152]	; 0x98
    3214:	e592c09c 	ldr	ip, [r2, #156]	; 0x9c
    3218:	e59250a0 	ldr	r5, [r2, #160]	; 0xa0
    321c:	e592e0a4 	ldr	lr, [r2, #164]	; 0xa4
    3220:	e59d20e4 	ldr	r2, [sp, #228]	; 0xe4
    3224:	e2003001 	and	r3, r0, #1
    3228:	e58d2018 	str	r2, [sp, #24]
    322c:	e28d2f49 	add	r2, sp, #292	; 0x124
    3230:	e58d2014 	str	r2, [sp, #20]
    3234:	e28d2e12 	add	r2, sp, #288	; 0x120
    3238:	e58d2010 	str	r2, [sp, #16]
    323c:	e28d2f47 	add	r2, sp, #284	; 0x11c
    3240:	e58d200c 	str	r2, [sp, #12]
    3244:	e59d208c 	ldr	r2, [sp, #140]	; 0x8c
    3248:	e3500000 	cmp	r0, #0
    324c:	e58d2008 	str	r2, [sp, #8]
    3250:	e59d2088 	ldr	r2, [sp, #136]	; 0x88
    3254:	e20c4001 	and	r4, ip, #1
    3258:	b2633000 	rsblt	r3, r3, #0
    325c:	e58d2004 	str	r2, [sp, #4]
    3260:	e35c0000 	cmp	ip, #0
    3264:	e59d2084 	ldr	r2, [sp, #132]	; 0x84
    3268:	b2644000 	rsblt	r4, r4, #0
    326c:	e58d2000 	str	r2, [sp]
    3270:	e1a01007 	mov	r1, r7
    3274:	e0455000 	sub	r5, r5, r0
    3278:	e58d302c 	str	r3, [sp, #44]	; 0x2c
    327c:	e58d4040 	str	r4, [sp, #64]	; 0x40
    3280:	e59d309c 	ldr	r3, [sp, #156]	; 0x9c
    3284:	e04e400c 	sub	r4, lr, ip
    3288:	e3a02000 	mov	r2, #0
    328c:	e5960014 	ldr	r0, [r6, #20]
    3290:	e58d5074 	str	r5, [sp, #116]	; 0x74
    3294:	e58d4050 	str	r4, [sp, #80]	; 0x50
    3298:	ebfff4fc 	bl	690 <opj_dwt_get_band_coordinates.isra.2>
    329c:	e5961014 	ldr	r1, [r6, #20]
    32a0:	e045800a 	sub	r8, r5, sl
    32a4:	e0511007 	subs	r1, r1, r7
    32a8:	e0447009 	sub	r7, r4, r9
    32ac:	0a0001ba 	beq	399c <opj_dwt_decode+0x990>
    32b0:	e3a03001 	mov	r3, #1
    32b4:	e241c001 	sub	ip, r1, #1
    32b8:	e59d509c 	ldr	r5, [sp, #156]	; 0x9c
    32bc:	e1a0cc13 	lsl	ip, r3, ip
    32c0:	e155000c 	cmp	r5, ip
    32c4:	93a03000 	movls	r3, #0
    32c8:	958d3028 	strls	r3, [sp, #40]	; 0x28
    32cc:	9a000010 	bls	3314 <opj_dwt_decode+0x308>
    32d0:	e241e020 	sub	lr, r1, #32
    32d4:	e2610020 	rsb	r0, r1, #32
    32d8:	e1a02e13 	lsl	r2, r3, lr
    32dc:	e1a04113 	lsl	r4, r3, r1
    32e0:	e1822033 	orr	r2, r2, r3, lsr r0
    32e4:	e2543001 	subs	r3, r4, #1
    32e8:	e58d30f0 	str	r3, [sp, #240]	; 0xf0
    32ec:	e2c23000 	sbc	r3, r2, #0
    32f0:	e58d30f4 	str	r3, [sp, #244]	; 0xf4
    32f4:	e1cd2fd0 	ldrd	r2, [sp, #240]	; 0xf0
    32f8:	e045400c 	sub	r4, r5, ip
    32fc:	e0922004 	adds	r2, r2, r4
    3300:	e2a33000 	adc	r3, r3, #0
    3304:	e1a02132 	lsr	r2, r2, r1
    3308:	e1822013 	orr	r2, r2, r3, lsl r0
    330c:	e1823e33 	orr	r3, r2, r3, lsr lr
    3310:	e58d3028 	str	r3, [sp, #40]	; 0x28
    3314:	e59d3088 	ldr	r3, [sp, #136]	; 0x88
    3318:	e153000c 	cmp	r3, ip
    331c:	8a000810 	bhi	5364 <opj_dwt_decode+0x2358>
    3320:	e3a03000 	mov	r3, #0
    3324:	e58d3030 	str	r3, [sp, #48]	; 0x30
    3328:	e59d3084 	ldr	r3, [sp, #132]	; 0x84
    332c:	e153000c 	cmp	r3, ip
    3330:	93a03000 	movls	r3, #0
    3334:	958d3038 	strls	r3, [sp, #56]	; 0x38
    3338:	9a000015 	bls	3394 <opj_dwt_decode+0x388>
    333c:	e3a0e001 	mov	lr, #1
    3340:	e2415020 	sub	r5, r1, #32
    3344:	e2610020 	rsb	r0, r1, #32
    3348:	e1a0351e 	lsl	r3, lr, r5
    334c:	e1a0211e 	lsl	r2, lr, r1
    3350:	e183303e 	orr	r3, r3, lr, lsr r0
    3354:	e2522001 	subs	r2, r2, #1
    3358:	e2c33000 	sbc	r3, r3, #0
    335c:	e58d3104 	str	r3, [sp, #260]	; 0x104
    3360:	e59d3084 	ldr	r3, [sp, #132]	; 0x84
    3364:	e58d2100 	str	r2, [sp, #256]	; 0x100
    3368:	e043e00c 	sub	lr, r3, ip
    336c:	e28d3c01 	add	r3, sp, #256	; 0x100
    3370:	e1c320d0 	ldrd	r2, [r3]
    3374:	e092200e 	adds	r2, r2, lr
    3378:	e2a33000 	adc	r3, r3, #0
    337c:	e1cd23f8 	strd	r2, [sp, #56]	; 0x38
    3380:	e59d303c 	ldr	r3, [sp, #60]	; 0x3c
    3384:	e1a02132 	lsr	r2, r2, r1
    3388:	e1822013 	orr	r2, r2, r3, lsl r0
    338c:	e1823533 	orr	r3, r2, r3, lsr r5
    3390:	e58d3038 	str	r3, [sp, #56]	; 0x38
    3394:	e59d308c 	ldr	r3, [sp, #140]	; 0x8c
    3398:	e153000c 	cmp	r3, ip
    339c:	93a00000 	movls	r0, #0
    33a0:	9a000184 	bls	39b8 <opj_dwt_decode+0x9ac>
    33a4:	e3a00001 	mov	r0, #1
    33a8:	e241e020 	sub	lr, r1, #32
    33ac:	e2614020 	rsb	r4, r1, #32
    33b0:	e1a03e10 	lsl	r3, r0, lr
    33b4:	e1a02110 	lsl	r2, r0, r1
    33b8:	e1833430 	orr	r3, r3, r0, lsr r4
    33bc:	e2522001 	subs	r2, r2, #1
    33c0:	e2c33000 	sbc	r3, r3, #0
    33c4:	e58d2108 	str	r2, [sp, #264]	; 0x108
    33c8:	e58d310c 	str	r3, [sp, #268]	; 0x10c
    33cc:	e59d208c 	ldr	r2, [sp, #140]	; 0x8c
    33d0:	e28d3f42 	add	r3, sp, #264	; 0x108
    33d4:	e042c00c 	sub	ip, r2, ip
    33d8:	e1c320d0 	ldrd	r2, [r3]
    33dc:	e092200c 	adds	r2, r2, ip
    33e0:	e2a33000 	adc	r3, r3, #0
    33e4:	e1a00132 	lsr	r0, r2, r1
    33e8:	e1800413 	orr	r0, r0, r3, lsl r4
    33ec:	e1800e33 	orr	r0, r0, r3, lsr lr
    33f0:	ea000170 	b	39b8 <opj_dwt_decode+0x9ac>
    33f4:	e3a03001 	mov	r3, #1
    33f8:	e58d3034 	str	r3, [sp, #52]	; 0x34
    33fc:	e59d0034 	ldr	r0, [sp, #52]	; 0x34
    3400:	e28ddf4f 	add	sp, sp, #316	; 0x13c
    3404:	e8bd8ff0 	pop	{r4, r5, r6, r7, r8, r9, sl, fp, pc}
    3408:	e58d4034 	str	r4, [sp, #52]	; 0x34
    340c:	e59d0034 	ldr	r0, [sp, #52]	; 0x34
    3410:	e28ddf4f 	add	sp, sp, #316	; 0x13c
    3414:	e8bd8ff0 	pop	{r4, r5, r6, r7, r8, r9, sl, fp, pc}
    3418:	e1a03280 	lsl	r3, r0, #5
    341c:	e1a00003 	mov	r0, r3
    3420:	e58d3038 	str	r3, [sp, #56]	; 0x38
    3424:	ebfffffe 	bl	0 <opj_aligned_32_malloc>
    3428:	e2507000 	subs	r7, r0, #0
    342c:	0affff2d 	beq	30e8 <opj_dwt_decode+0xdc>
    3430:	e0453004 	sub	r3, r5, r4
    3434:	e58d3030 	str	r3, [sp, #48]	; 0x30
    3438:	e1a03103 	lsl	r3, r3, #2
    343c:	e58d3048 	str	r3, [sp, #72]	; 0x48
    3440:	e59d3054 	ldr	r3, [sp, #84]	; 0x54
    3444:	e59d902c 	ldr	r9, [sp, #44]	; 0x2c
    3448:	e3530001 	cmp	r3, #1
    344c:	c3a03000 	movgt	r3, #0
    3450:	d3a03001 	movle	r3, #1
    3454:	e58d3060 	str	r3, [sp, #96]	; 0x60
    3458:	e58d7128 	str	r7, [sp, #296]	; 0x128
    345c:	e59d1050 	ldr	r1, [sp, #80]	; 0x50
    3460:	e58da130 	str	sl, [sp, #304]	; 0x130
    3464:	e59d4060 	ldr	r4, [sp, #96]	; 0x60
    3468:	e5913098 	ldr	r3, [r1, #152]	; 0x98
    346c:	e591c0a4 	ldr	ip, [r1, #164]	; 0xa4
    3470:	e591009c 	ldr	r0, [r1, #156]	; 0x9c
    3474:	e59110a0 	ldr	r1, [r1, #160]	; 0xa0
    3478:	e3530000 	cmp	r3, #0
    347c:	e2032001 	and	r2, r3, #1
    3480:	e0413003 	sub	r3, r1, r3
    3484:	e58d3034 	str	r3, [sp, #52]	; 0x34
    3488:	e0435009 	sub	r5, r3, r9
    348c:	e59d304c 	ldr	r3, [sp, #76]	; 0x4c
    3490:	e04c0000 	sub	r0, ip, r0
    3494:	b2622000 	rsblt	r2, r2, #0
    3498:	e5936024 	ldr	r6, [r3, #36]	; 0x24
    349c:	e3500001 	cmp	r0, #1
    34a0:	93844001 	orrls	r4, r4, #1
    34a4:	e3540000 	cmp	r4, #0
    34a8:	e58d002c 	str	r0, [sp, #44]	; 0x2c
    34ac:	e58d2024 	str	r2, [sp, #36]	; 0x24
    34b0:	e58d6040 	str	r6, [sp, #64]	; 0x40
    34b4:	0a0000a4 	beq	374c <opj_dwt_decode+0x740>
    34b8:	e3500000 	cmp	r0, #0
    34bc:	0a0000d1 	beq	3808 <opj_dwt_decode+0x7fc>
    34c0:	e0895005 	add	r5, r9, r5
    34c4:	e1e03005 	mvn	r3, r5
    34c8:	e2452002 	sub	r2, r5, #2
    34cc:	e2033001 	and	r3, r3, #1
    34d0:	e0423003 	sub	r3, r2, r3
    34d4:	e58d3084 	str	r3, [sp, #132]	; 0x84
    34d8:	e2433002 	sub	r3, r3, #2
    34dc:	e2451004 	sub	r1, r5, #4
    34e0:	e1a030a3 	lsr	r3, r3, #1
    34e4:	e2452107 	sub	r2, r5, #-1073741823	; 0xc0000001
    34e8:	e1a010a1 	lsr	r1, r1, #1
    34ec:	e1a0e103 	lsl	lr, r3, #2
    34f0:	e2811001 	add	r1, r1, #1
    34f4:	e1a03183 	lsl	r3, r3, #3
    34f8:	e1a02102 	lsl	r2, r2, #2
    34fc:	e283300c 	add	r3, r3, #12
    3500:	e2424004 	sub	r4, r2, #4
    3504:	e245c001 	sub	ip, r5, #1
    3508:	e58d3088 	str	r3, [sp, #136]	; 0x88
    350c:	e0873181 	add	r3, r7, r1, lsl #3
    3510:	e58d3078 	str	r3, [sp, #120]	; 0x78
    3514:	e0873004 	add	r3, r7, r4
    3518:	e1a000c5 	asr	r0, r5, #1
    351c:	e1a0c0cc 	asr	ip, ip, #1
    3520:	e58d307c 	str	r3, [sp, #124]	; 0x7c
    3524:	e0873002 	add	r3, r7, r2
    3528:	e2400107 	sub	r0, r0, #-1073741823	; 0xc0000001
    352c:	e58d306c 	str	r3, [sp, #108]	; 0x6c
    3530:	e2823004 	add	r3, r2, #4
    3534:	e58d3068 	str	r3, [sp, #104]	; 0x68
    3538:	e1a0310c 	lsl	r3, ip, #2
    353c:	e58d3080 	str	r3, [sp, #128]	; 0x80
    3540:	e1a03100 	lsl	r3, r0, #2
    3544:	e58d3090 	str	r3, [sp, #144]	; 0x90
    3548:	e2053001 	and	r3, r5, #1
    354c:	e1a08109 	lsl	r8, r9, #2
    3550:	e58d3064 	str	r3, [sp, #100]	; 0x64
    3554:	e2453003 	sub	r3, r5, #3
    3558:	e28ee008 	add	lr, lr, #8
    355c:	e58d3074 	str	r3, [sp, #116]	; 0x74
    3560:	e2683000 	rsb	r3, r8, #0
    3564:	e0864008 	add	r4, r6, r8
    3568:	e58d8044 	str	r8, [sp, #68]	; 0x44
    356c:	e58de08c 	str	lr, [sp, #140]	; 0x8c
    3570:	e58d3058 	str	r3, [sp, #88]	; 0x58
    3574:	e3a06000 	mov	r6, #0
    3578:	ea000007 	b	359c <opj_dwt_decode+0x590>
    357c:	e3550001 	cmp	r5, #1
    3580:	ca00003d 	bgt	367c <opj_dwt_decode+0x670>
    3584:	e59d302c 	ldr	r3, [sp, #44]	; 0x2c
    3588:	e2866001 	add	r6, r6, #1
    358c:	e1530006 	cmp	r3, r6
    3590:	e59d3048 	ldr	r3, [sp, #72]	; 0x48
    3594:	e0844003 	add	r4, r4, r3
    3598:	0a000099 	beq	3804 <opj_dwt_decode+0x7f8>
    359c:	e59d1024 	ldr	r1, [sp, #36]	; 0x24
    35a0:	e59d3044 	ldr	r3, [sp, #68]	; 0x44
    35a4:	e3510000 	cmp	r1, #0
    35a8:	e0440003 	sub	r0, r4, r3
    35ac:	e1a0c000 	mov	ip, r0
    35b0:	0afffff1 	beq	357c <opj_dwt_decode+0x570>
    35b4:	e3550001 	cmp	r5, #1
    35b8:	0a00005d 	beq	3734 <opj_dwt_decode+0x728>
    35bc:	e3550002 	cmp	r5, #2
    35c0:	0a000734 	beq	5298 <opj_dwt_decode+0x228c>
    35c4:	daffffee 	ble	3584 <opj_dwt_decode+0x578>
    35c8:	e59d1058 	ldr	r1, [sp, #88]	; 0x58
    35cc:	e5943000 	ldr	r3, [r4]
    35d0:	e5942004 	ldr	r2, [r4, #4]
    35d4:	e794e001 	ldr	lr, [r4, r1]
    35d8:	e0821003 	add	r1, r2, r3
    35dc:	e2811002 	add	r1, r1, #2
    35e0:	e59d8084 	ldr	r8, [sp, #132]	; 0x84
    35e4:	e04e1141 	sub	r1, lr, r1, asr #2
    35e8:	e0833001 	add	r3, r3, r1
    35ec:	e3580001 	cmp	r8, #1
    35f0:	e5873000 	str	r3, [r7]
    35f4:	da0008b2 	ble	58c4 <opj_dwt_decode+0x28b8>
    35f8:	e59d308c 	ldr	r3, [sp, #140]	; 0x8c
    35fc:	e2849004 	add	r9, r4, #4
    3600:	e1a08007 	mov	r8, r7
    3604:	e083a004 	add	sl, r3, r4
    3608:	e5b9e004 	ldr	lr, [r9, #4]!
    360c:	e5bcb004 	ldr	fp, [ip, #4]!
    3610:	e08e3002 	add	r3, lr, r2
    3614:	e2833002 	add	r3, r3, #2
    3618:	e159000a 	cmp	r9, sl
    361c:	e04b3143 	sub	r3, fp, r3, asr #2
    3620:	e083b001 	add	fp, r3, r1
    3624:	e5881004 	str	r1, [r8, #4]
    3628:	e08220cb 	add	r2, r2, fp, asr #1
    362c:	e5a82008 	str	r2, [r8, #8]!
    3630:	e1a01003 	mov	r1, r3
    3634:	e1a0200e 	mov	r2, lr
    3638:	1afffff2 	bne	3608 <opj_dwt_decode+0x5fc>
    363c:	e59d2088 	ldr	r2, [sp, #136]	; 0x88
    3640:	e59d1064 	ldr	r1, [sp, #100]	; 0x64
    3644:	e7873002 	str	r3, [r7, r2]
    3648:	e3510000 	cmp	r1, #0
    364c:	1a000740 	bne	5354 <opj_dwt_decode+0x2348>
    3650:	e59d1090 	ldr	r1, [sp, #144]	; 0x90
    3654:	e28e2001 	add	r2, lr, #1
    3658:	e7901001 	ldr	r1, [r0, r1]
    365c:	e04120c2 	sub	r2, r1, r2, asr #1
    3660:	e0823003 	add	r3, r2, r3
    3664:	e08ee0c3 	add	lr, lr, r3, asr #1
    3668:	e59d307c 	ldr	r3, [sp, #124]	; 0x7c
    366c:	e583e000 	str	lr, [r3]
    3670:	e59d306c 	ldr	r3, [sp, #108]	; 0x6c
    3674:	e5832000 	str	r2, [r3]
    3678:	ea000029 	b	3724 <opj_dwt_decode+0x718>
    367c:	e59d3058 	ldr	r3, [sp, #88]	; 0x58
    3680:	e5942000 	ldr	r2, [r4]
    3684:	e59d8074 	ldr	r8, [sp, #116]	; 0x74
    3688:	e794e003 	ldr	lr, [r4, r3]
    368c:	e2823001 	add	r3, r2, #1
    3690:	e3580000 	cmp	r8, #0
    3694:	e04ee0c3 	sub	lr, lr, r3, asr #1
    3698:	da00085c 	ble	5810 <opj_dwt_decode+0x2804>
    369c:	e58d0070 	str	r0, [sp, #112]	; 0x70
    36a0:	e1a09004 	mov	r9, r4
    36a4:	e287a004 	add	sl, r7, #4
    36a8:	e1a00008 	mov	r0, r8
    36ac:	e5b98004 	ldr	r8, [r9, #4]!
    36b0:	e5bcb004 	ldr	fp, [ip, #4]!
    36b4:	e0883002 	add	r3, r8, r2
    36b8:	e2833002 	add	r3, r3, #2
    36bc:	e787e101 	str	lr, [r7, r1, lsl #2]
    36c0:	e04b3143 	sub	r3, fp, r3, asr #2
    36c4:	e083b00e 	add	fp, r3, lr
    36c8:	e1a0e003 	mov	lr, r3
    36cc:	e08220cb 	add	r2, r2, fp, asr #1
    36d0:	e78a2101 	str	r2, [sl, r1, lsl #2]
    36d4:	e2811002 	add	r1, r1, #2
    36d8:	e1510000 	cmp	r1, r0
    36dc:	e1a02008 	mov	r2, r8
    36e0:	bafffff1 	blt	36ac <opj_dwt_decode+0x6a0>
    36e4:	e59d0070 	ldr	r0, [sp, #112]	; 0x70
    36e8:	e59d2078 	ldr	r2, [sp, #120]	; 0x78
    36ec:	e59d1064 	ldr	r1, [sp, #100]	; 0x64
    36f0:	e5823000 	str	r3, [r2]
    36f4:	e3510000 	cmp	r1, #0
    36f8:	0a000074 	beq	38d0 <opj_dwt_decode+0x8c4>
    36fc:	e59d2080 	ldr	r2, [sp, #128]	; 0x80
    3700:	e2881001 	add	r1, r8, #1
    3704:	e7902002 	ldr	r2, [r0, r2]
    3708:	e04220c1 	sub	r2, r2, r1, asr #1
    370c:	e0823003 	add	r3, r2, r3
    3710:	e59d106c 	ldr	r1, [sp, #108]	; 0x6c
    3714:	e08880c3 	add	r8, r8, r3, asr #1
    3718:	e59d307c 	ldr	r3, [sp, #124]	; 0x7c
    371c:	e5812000 	str	r2, [r1]
    3720:	e5838000 	str	r8, [r3]
    3724:	e59d2068 	ldr	r2, [sp, #104]	; 0x68
    3728:	e1a01007 	mov	r1, r7
    372c:	ebfffffe 	bl	0 <memcpy>
    3730:	eaffff93 	b	3584 <opj_dwt_decode+0x578>
    3734:	e59d2058 	ldr	r2, [sp, #88]	; 0x58
    3738:	e7943002 	ldr	r3, [r4, r2]
    373c:	e0833fa3 	add	r3, r3, r3, lsr #31
    3740:	e1a030c3 	asr	r3, r3, #1
    3744:	e7843002 	str	r3, [r4, r2]
    3748:	eaffff8d 	b	3584 <opj_dwt_decode+0x578>
    374c:	e59d3054 	ldr	r3, [sp, #84]	; 0x54
    3750:	e1a06004 	mov	r6, r4
    3754:	e1500003 	cmp	r0, r3
    3758:	31a0a000 	movcc	sl, r0
    375c:	21a0a003 	movcs	sl, r3
    3760:	e1a0100a 	mov	r1, sl
    3764:	ebfffffe 	bl	0 <__aeabi_uidiv>
    3768:	e24a3001 	sub	r3, sl, #1
    376c:	e58d3044 	str	r3, [sp, #68]	; 0x44
    3770:	e1a08000 	mov	r8, r0
    3774:	e3a00024 	mov	r0, #36	; 0x24
    3778:	ebfffffe 	bl	0 <opj_malloc>
    377c:	e250b000 	subs	fp, r0, #0
    3780:	0a0007f6 	beq	5760 <opj_dwt_decode+0x2754>
    3784:	e59d3044 	ldr	r3, [sp, #68]	; 0x44
    3788:	e58b7000 	str	r7, [fp]
    378c:	e1530006 	cmp	r3, r6
    3790:	e59d3024 	ldr	r3, [sp, #36]	; 0x24
    3794:	e98b0220 	stmib	fp, {r5, r9}
    3798:	e58b300c 	str	r3, [fp, #12]
    379c:	e59d3034 	ldr	r3, [sp, #52]	; 0x34
    37a0:	e58b401c 	str	r4, [fp, #28]
    37a4:	e58b3010 	str	r3, [fp, #16]
    37a8:	e59d3030 	ldr	r3, [sp, #48]	; 0x30
    37ac:	e59d0038 	ldr	r0, [sp, #56]	; 0x38
    37b0:	e58b3014 	str	r3, [fp, #20]
    37b4:	e59d3040 	ldr	r3, [sp, #64]	; 0x40
    37b8:	e58b3018 	str	r3, [fp, #24]
    37bc:	059d302c 	ldreq	r3, [sp, #44]	; 0x2c
    37c0:	10883004 	addne	r3, r8, r4
    37c4:	e58b3020 	str	r3, [fp, #32]
    37c8:	ebfffffe 	bl	0 <opj_aligned_32_malloc>
    37cc:	e3500000 	cmp	r0, #0
    37d0:	e58b0000 	str	r0, [fp]
    37d4:	0a0007e8 	beq	577c <opj_dwt_decode+0x2770>
    37d8:	e1a0200b 	mov	r2, fp
    37dc:	e2866001 	add	r6, r6, #1
    37e0:	e59f1f98 	ldr	r1, [pc, #3992]	; 4780 <opj_dwt_decode+0x1774>
    37e4:	e59d0028 	ldr	r0, [sp, #40]	; 0x28
    37e8:	ebfffffe 	bl	0 <opj_thread_pool_submit_job>
    37ec:	e156000a 	cmp	r6, sl
    37f0:	e0844008 	add	r4, r4, r8
    37f4:	1affffde 	bne	3774 <opj_dwt_decode+0x768>
    37f8:	e3a01000 	mov	r1, #0
    37fc:	e59d0028 	ldr	r0, [sp, #40]	; 0x28
    3800:	ebfffffe 	bl	0 <opj_thread_pool_wait_completion>
    3804:	e59da130 	ldr	sl, [sp, #304]	; 0x130
    3808:	e59d302c 	ldr	r3, [sp, #44]	; 0x2c
    380c:	e59d4060 	ldr	r4, [sp, #96]	; 0x60
    3810:	e043a00a 	sub	sl, r3, sl
    3814:	e59d3050 	ldr	r3, [sp, #80]	; 0x50
    3818:	e58da12c 	str	sl, [sp, #300]	; 0x12c
    381c:	e59d2034 	ldr	r2, [sp, #52]	; 0x34
    3820:	e593309c 	ldr	r3, [r3, #156]	; 0x9c
    3824:	e3530000 	cmp	r3, #0
    3828:	e2033001 	and	r3, r3, #1
    382c:	b2633000 	rsblt	r3, r3, #0
    3830:	e3520001 	cmp	r2, #1
    3834:	93844001 	orrls	r4, r4, #1
    3838:	e3540000 	cmp	r4, #0
    383c:	e58d3134 	str	r3, [sp, #308]	; 0x134
    3840:	0a000026 	beq	38e0 <opj_dwt_decode+0x8d4>
    3844:	e3520007 	cmp	r2, #7
    3848:	9a000821 	bls	58d4 <opj_dwt_decode+0x28c8>
    384c:	e2426008 	sub	r6, r2, #8
    3850:	e59d8040 	ldr	r8, [sp, #64]	; 0x40
    3854:	e1a031a6 	lsr	r3, r6, #3
    3858:	e2884020 	add	r4, r8, #32
    385c:	e59d9030 	ldr	r9, [sp, #48]	; 0x30
    3860:	e0844283 	add	r4, r4, r3, lsl #5
    3864:	e28d5f4a 	add	r5, sp, #296	; 0x128
    3868:	e1a01008 	mov	r1, r8
    386c:	e1a02009 	mov	r2, r9
    3870:	e1a00005 	mov	r0, r5
    3874:	e2888020 	add	r8, r8, #32
    3878:	ebfff4ae 	bl	b38 <opj_idwt53_v.constprop.6>
    387c:	e1580004 	cmp	r8, r4
    3880:	1afffff8 	bne	3868 <opj_dwt_decode+0x85c>
    3884:	e3c63007 	bic	r3, r6, #7
    3888:	e2833008 	add	r3, r3, #8
    388c:	e59d2034 	ldr	r2, [sp, #52]	; 0x34
    3890:	e1520003 	cmp	r2, r3
    3894:	8a0007c9 	bhi	57c0 <opj_dwt_decode+0x27b4>
    3898:	e59d305c 	ldr	r3, [sp, #92]	; 0x5c
    389c:	e59d9034 	ldr	r9, [sp, #52]	; 0x34
    38a0:	e2533001 	subs	r3, r3, #1
    38a4:	e58d305c 	str	r3, [sp, #92]	; 0x5c
    38a8:	e59d3050 	ldr	r3, [sp, #80]	; 0x50
    38ac:	e59da02c 	ldr	sl, [sp, #44]	; 0x2c
    38b0:	e2833098 	add	r3, r3, #152	; 0x98
    38b4:	e58d3050 	str	r3, [sp, #80]	; 0x50
    38b8:	1afffee7 	bne	345c <opj_dwt_decode+0x450>
    38bc:	e1a00007 	mov	r0, r7
    38c0:	ebfffffe 	bl	0 <opj_aligned_free>
    38c4:	e3a03001 	mov	r3, #1
    38c8:	e58d3034 	str	r3, [sp, #52]	; 0x34
    38cc:	eafffeca 	b	33fc <opj_dwt_decode+0x3f0>
    38d0:	e59d206c 	ldr	r2, [sp, #108]	; 0x6c
    38d4:	e0833008 	add	r3, r3, r8
    38d8:	e5823000 	str	r3, [r2]
    38dc:	eaffff90 	b	3724 <opj_dwt_decode+0x718>
    38e0:	e59d3054 	ldr	r3, [sp, #84]	; 0x54
    38e4:	e1a00002 	mov	r0, r2
    38e8:	e1520003 	cmp	r2, r3
    38ec:	31a08002 	movcc	r8, r2
    38f0:	21a08003 	movcs	r8, r3
    38f4:	e1a01008 	mov	r1, r8
    38f8:	ebfffffe 	bl	0 <__aeabi_uidiv>
    38fc:	e58d7024 	str	r7, [sp, #36]	; 0x24
    3900:	e59da02c 	ldr	sl, [sp, #44]	; 0x2c
    3904:	e59d7040 	ldr	r7, [sp, #64]	; 0x40
    3908:	e1a06004 	mov	r6, r4
    390c:	e28d5f4a 	add	r5, sp, #296	; 0x128
    3910:	e1a09000 	mov	r9, r0
    3914:	e3a00024 	mov	r0, #36	; 0x24
    3918:	ebfffffe 	bl	0 <opj_malloc>
    391c:	e250b000 	subs	fp, r0, #0
    3920:	0a00079f 	beq	57a4 <opj_dwt_decode+0x2798>
    3924:	e895000f 	ldm	r5, {r0, r1, r2, r3}
    3928:	e248c001 	sub	ip, r8, #1
    392c:	e15c0006 	cmp	ip, r6
    3930:	e58ba010 	str	sl, [fp, #16]
    3934:	e88b000f 	stm	fp, {r0, r1, r2, r3}
    3938:	e59d3030 	ldr	r3, [sp, #48]	; 0x30
    393c:	e58b7018 	str	r7, [fp, #24]
    3940:	e58b3014 	str	r3, [fp, #20]
    3944:	059d3034 	ldreq	r3, [sp, #52]	; 0x34
    3948:	10893004 	addne	r3, r9, r4
    394c:	e58b401c 	str	r4, [fp, #28]
    3950:	e58b3020 	str	r3, [fp, #32]
    3954:	e59d0038 	ldr	r0, [sp, #56]	; 0x38
    3958:	ebfffffe 	bl	0 <opj_aligned_32_malloc>
    395c:	e3500000 	cmp	r0, #0
    3960:	e58b0000 	str	r0, [fp]
    3964:	0a00079d 	beq	57e0 <opj_dwt_decode+0x27d4>
    3968:	e1a0200b 	mov	r2, fp
    396c:	e2866001 	add	r6, r6, #1
    3970:	e59f1e0c 	ldr	r1, [pc, #3596]	; 4784 <opj_dwt_decode+0x1778>
    3974:	e59d0028 	ldr	r0, [sp, #40]	; 0x28
    3978:	ebfffffe 	bl	0 <opj_thread_pool_submit_job>
    397c:	e1560008 	cmp	r6, r8
    3980:	e0844009 	add	r4, r4, r9
    3984:	1affffe2 	bne	3914 <opj_dwt_decode+0x908>
    3988:	e3a01000 	mov	r1, #0
    398c:	e59d0028 	ldr	r0, [sp, #40]	; 0x28
    3990:	e59d7024 	ldr	r7, [sp, #36]	; 0x24
    3994:	ebfffffe 	bl	0 <opj_thread_pool_wait_completion>
    3998:	eaffffbe 	b	3898 <opj_dwt_decode+0x88c>
    399c:	e59d3088 	ldr	r3, [sp, #136]	; 0x88
    39a0:	e59d008c 	ldr	r0, [sp, #140]	; 0x8c
    39a4:	e58d3030 	str	r3, [sp, #48]	; 0x30
    39a8:	e59d309c 	ldr	r3, [sp, #156]	; 0x9c
    39ac:	e58d3028 	str	r3, [sp, #40]	; 0x28
    39b0:	e59d3084 	ldr	r3, [sp, #132]	; 0x84
    39b4:	e58d3038 	str	r3, [sp, #56]	; 0x38
    39b8:	e59d3090 	ldr	r3, [sp, #144]	; 0x90
    39bc:	e59dc11c 	ldr	ip, [sp, #284]	; 0x11c
    39c0:	e59de124 	ldr	lr, [sp, #292]	; 0x124
    39c4:	e59310d8 	ldr	r1, [r3, #216]	; 0xd8
    39c8:	e59320b8 	ldr	r2, [r3, #184]	; 0xb8
    39cc:	e59350b4 	ldr	r5, [r3, #180]	; 0xb4
    39d0:	e59340dc 	ldr	r4, [r3, #220]	; 0xdc
    39d4:	e59d3120 	ldr	r3, [sp, #288]	; 0x120
    39d8:	e151000c 	cmp	r1, ip
    39dc:	904cc001 	subls	ip, ip, r1
    39e0:	83a0c000 	movhi	ip, #0
    39e4:	e1520003 	cmp	r2, r3
    39e8:	90433002 	subls	r3, r3, r2
    39ec:	83a03000 	movhi	r3, #0
    39f0:	e151000e 	cmp	r1, lr
    39f4:	83a01002 	movhi	r1, #2
    39f8:	8a000005 	bhi	3a14 <opj_dwt_decode+0xa08>
    39fc:	e04e1001 	sub	r1, lr, r1
    3a00:	e291e002 	adds	lr, r1, #2
    3a04:	e3a06000 	mov	r6, #0
    3a08:	e0a66006 	adc	r6, r6, r6
    3a0c:	e2666000 	rsb	r6, r6, #0
    3a10:	e186100e 	orr	r1, r6, lr
    3a14:	e59de128 	ldr	lr, [sp, #296]	; 0x128
    3a18:	e152000e 	cmp	r2, lr
    3a1c:	83a02002 	movhi	r2, #2
    3a20:	8a000005 	bhi	3a3c <opj_dwt_decode+0xa30>
    3a24:	e04e2002 	sub	r2, lr, r2
    3a28:	e292e002 	adds	lr, r2, #2
    3a2c:	e3a06000 	mov	r6, #0
    3a30:	e0a66006 	adc	r6, r6, r6
    3a34:	e2666000 	rsb	r6, r6, #0
    3a38:	e186200e 	orr	r2, r6, lr
    3a3c:	e59de028 	ldr	lr, [sp, #40]	; 0x28
    3a40:	e59d6030 	ldr	r6, [sp, #48]	; 0x30
    3a44:	e155000e 	cmp	r5, lr
    3a48:	904ee005 	subls	lr, lr, r5
    3a4c:	83a0e000 	movhi	lr, #0
    3a50:	e1550006 	cmp	r5, r6
    3a54:	83a06002 	movhi	r6, #2
    3a58:	8a000006 	bhi	3a78 <opj_dwt_decode+0xa6c>
    3a5c:	e0465005 	sub	r5, r6, r5
    3a60:	e2956002 	adds	r6, r5, #2
    3a64:	e3a06000 	mov	r6, #0
    3a68:	e0a66006 	adc	r6, r6, r6
    3a6c:	e2855002 	add	r5, r5, #2
    3a70:	e2666000 	rsb	r6, r6, #0
    3a74:	e1866005 	orr	r6, r6, r5
    3a78:	e59d5038 	ldr	r5, [sp, #56]	; 0x38
    3a7c:	e1540005 	cmp	r4, r5
    3a80:	90455004 	subls	r5, r5, r4
    3a84:	83a05000 	movhi	r5, #0
    3a88:	e1540000 	cmp	r4, r0
    3a8c:	83a00002 	movhi	r0, #2
    3a90:	8a000006 	bhi	3ab0 <opj_dwt_decode+0xaa4>
    3a94:	e0400004 	sub	r0, r0, r4
    3a98:	e2904002 	adds	r4, r0, #2
    3a9c:	e3a04000 	mov	r4, #0
    3aa0:	e0a44004 	adc	r4, r4, r4
    3aa4:	e2800002 	add	r0, r0, #2
    3aa8:	e2644000 	rsb	r4, r4, #0
    3aac:	e1840000 	orr	r0, r4, r0
    3ab0:	e35c0001 	cmp	ip, #1
    3ab4:	824cc002 	subhi	ip, ip, #2
    3ab8:	93a04000 	movls	r4, #0
    3abc:	91a0c004 	movls	ip, r4
    3ac0:	81a0408c 	lslhi	r4, ip, #1
    3ac4:	e15a0001 	cmp	sl, r1
    3ac8:	31a0100a 	movcc	r1, sl
    3acc:	e35e0001 	cmp	lr, #1
    3ad0:	e58dc11c 	str	ip, [sp, #284]	; 0x11c
    3ad4:	824ec002 	subhi	ip, lr, #2
    3ad8:	93a0e000 	movls	lr, #0
    3adc:	858dc048 	strhi	ip, [sp, #72]	; 0x48
    3ae0:	81a0e08c 	lslhi	lr, ip, #1
    3ae4:	958de048 	strls	lr, [sp, #72]	; 0x48
    3ae8:	e1580006 	cmp	r8, r6
    3aec:	31a06008 	movcc	r6, r8
    3af0:	e3530001 	cmp	r3, #1
    3af4:	82433002 	subhi	r3, r3, #2
    3af8:	93a0c000 	movls	ip, #0
    3afc:	91a0300c 	movls	r3, ip
    3b00:	81a0c083 	lslhi	ip, r3, #1
    3b04:	e1590002 	cmp	r9, r2
    3b08:	31a02009 	movcc	r2, r9
    3b0c:	e3550001 	cmp	r5, #1
    3b10:	82455002 	subhi	r5, r5, #2
    3b14:	93a05000 	movls	r5, #0
    3b18:	858d5038 	strhi	r5, [sp, #56]	; 0x38
    3b1c:	81a05085 	lslhi	r5, r5, #1
    3b20:	858d5098 	strhi	r5, [sp, #152]	; 0x98
    3b24:	958d5098 	strls	r5, [sp, #152]	; 0x98
    3b28:	958d5038 	strls	r5, [sp, #56]	; 0x38
    3b2c:	e1570000 	cmp	r7, r0
    3b30:	31a00007 	movcc	r0, r7
    3b34:	e58d0030 	str	r0, [sp, #48]	; 0x30
    3b38:	e59d002c 	ldr	r0, [sp, #44]	; 0x2c
    3b3c:	e58d1124 	str	r1, [sp, #292]	; 0x124
    3b40:	e3500000 	cmp	r0, #0
    3b44:	e58d2128 	str	r2, [sp, #296]	; 0x128
    3b48:	e58d3120 	str	r3, [sp, #288]	; 0x120
    3b4c:	e1a01081 	lsl	r1, r1, #1
    3b50:	e1a00086 	lsl	r0, r6, #1
    3b54:	1a0005c4 	bne	526c <opj_dwt_decode+0x2260>
    3b58:	e28ee001 	add	lr, lr, #1
    3b5c:	e15e0004 	cmp	lr, r4
    3b60:	e2800001 	add	r0, r0, #1
    3b64:	21a0e004 	movcs	lr, r4
    3b68:	e1500001 	cmp	r0, r1
    3b6c:	21a01000 	movcs	r1, r0
    3b70:	e58de058 	str	lr, [sp, #88]	; 0x58
    3b74:	e59d0074 	ldr	r0, [sp, #116]	; 0x74
    3b78:	e1a02082 	lsl	r2, r2, #1
    3b7c:	e1510000 	cmp	r1, r0
    3b80:	21a01000 	movcs	r1, r0
    3b84:	e58d1028 	str	r1, [sp, #40]	; 0x28
    3b88:	e59d1040 	ldr	r1, [sp, #64]	; 0x40
    3b8c:	e3510000 	cmp	r1, #0
    3b90:	e59d1030 	ldr	r1, [sp, #48]	; 0x30
    3b94:	e1a01081 	lsl	r1, r1, #1
    3b98:	1a0005aa 	bne	5248 <opj_dwt_decode+0x223c>
    3b9c:	e59d0098 	ldr	r0, [sp, #152]	; 0x98
    3ba0:	e2811001 	add	r1, r1, #1
    3ba4:	e2800001 	add	r0, r0, #1
    3ba8:	e150000c 	cmp	r0, ip
    3bac:	21a0000c 	movcs	r0, ip
    3bb0:	e1510002 	cmp	r1, r2
    3bb4:	21a02001 	movcs	r2, r1
    3bb8:	e58d0060 	str	r0, [sp, #96]	; 0x60
    3bbc:	e59d1050 	ldr	r1, [sp, #80]	; 0x50
    3bc0:	e1520001 	cmp	r2, r1
    3bc4:	21a02001 	movcs	r2, r1
    3bc8:	e3510000 	cmp	r1, #0
    3bcc:	e58d2064 	str	r2, [sp, #100]	; 0x64
    3bd0:	0a000194 	beq	4228 <opj_dwt_decode+0x121c>
    3bd4:	e59d202c 	ldr	r2, [sp, #44]	; 0x2c
    3bd8:	e59de028 	ldr	lr, [sp, #40]	; 0x28
    3bdc:	e59d4048 	ldr	r4, [sp, #72]	; 0x48
    3be0:	e0622f02 	rsb	r2, r2, r2, lsl #30
    3be4:	e24e1107 	sub	r1, lr, #-1073741823	; 0xc0000001
    3be8:	e1a02102 	lsl	r2, r2, #2
    3bec:	e2822004 	add	r2, r2, #4
    3bf0:	e0822184 	add	r2, r2, r4, lsl #3
    3bf4:	e1a01101 	lsl	r1, r1, #2
    3bf8:	e08b2002 	add	r2, fp, r2
    3bfc:	e2480001 	sub	r0, r8, #1
    3c00:	e24ac001 	sub	ip, sl, #1
    3c04:	e58d206c 	str	r2, [sp, #108]	; 0x6c
    3c08:	e2812004 	add	r2, r1, #4
    3c0c:	e08b5180 	add	r5, fp, r0, lsl #3
    3c10:	e58dc0b0 	str	ip, [sp, #176]	; 0xb0
    3c14:	e08b2002 	add	r2, fp, r2
    3c18:	e08b1001 	add	r1, fp, r1
    3c1c:	e08b418c 	add	r4, fp, ip, lsl #3
    3c20:	e58d207c 	str	r2, [sp, #124]	; 0x7c
    3c24:	e59dc074 	ldr	ip, [sp, #116]	; 0x74
    3c28:	e59d20b0 	ldr	r2, [sp, #176]	; 0xb0
    3c2c:	e58d1078 	str	r1, [sp, #120]	; 0x78
    3c30:	e2851004 	add	r1, r5, #4
    3c34:	e58d10ac 	str	r1, [sp, #172]	; 0xac
    3c38:	e2841004 	add	r1, r4, #4
    3c3c:	e15c000e 	cmp	ip, lr
    3c40:	e58d10b4 	str	r1, [sp, #180]	; 0xb4
    3c44:	e1a01002 	mov	r1, r2
    3c48:	e59d2028 	ldr	r2, [sp, #40]	; 0x28
    3c4c:	93a0e000 	movls	lr, #0
    3c50:	83a0e001 	movhi	lr, #1
    3c54:	e15a0006 	cmp	sl, r6
    3c58:	c1a01006 	movgt	r1, r6
    3c5c:	e3520000 	cmp	r2, #0
    3c60:	e58d10bc 	str	r1, [sp, #188]	; 0xbc
    3c64:	e1a0100e 	mov	r1, lr
    3c68:	03a01000 	moveq	r1, #0
    3c6c:	e35a0000 	cmp	sl, #0
    3c70:	e248c001 	sub	ip, r8, #1
    3c74:	e16fcf1c 	clz	ip, ip
    3c78:	e1a0c2ac 	lsr	ip, ip, #5
    3c7c:	13a0c000 	movne	ip, #0
    3c80:	e35a0001 	cmp	sl, #1
    3c84:	d3580000 	cmple	r8, #0
    3c88:	c3a02001 	movgt	r2, #1
    3c8c:	d3a02000 	movle	r2, #0
    3c90:	e58d2080 	str	r2, [sp, #128]	; 0x80
    3c94:	e59d2058 	ldr	r2, [sp, #88]	; 0x58
    3c98:	e58d9054 	str	r9, [sp, #84]	; 0x54
    3c9c:	e59d90e8 	ldr	r9, [sp, #232]	; 0xe8
    3ca0:	e58d40a8 	str	r4, [sp, #168]	; 0xa8
    3ca4:	e3a04000 	mov	r4, #0
    3ca8:	e08b2102 	add	r2, fp, r2, lsl #2
    3cac:	e58d5070 	str	r5, [sp, #112]	; 0x70
    3cb0:	e58d105c 	str	r1, [sp, #92]	; 0x5c
    3cb4:	e58dc094 	str	ip, [sp, #148]	; 0x94
    3cb8:	e58d2068 	str	r2, [sp, #104]	; 0x68
    3cbc:	e58d70b8 	str	r7, [sp, #184]	; 0xb8
    3cc0:	e1540003 	cmp	r4, r3
    3cc4:	e2845001 	add	r5, r4, #1
    3cc8:	3a000090 	bcc	3f10 <opj_dwt_decode+0xf04>
    3ccc:	e59d3128 	ldr	r3, [sp, #296]	; 0x128
    3cd0:	e1530004 	cmp	r3, r4
    3cd4:	9a00008d 	bls	3f10 <opj_dwt_decode+0xf04>
    3cd8:	e59d305c 	ldr	r3, [sp, #92]	; 0x5c
    3cdc:	e3530000 	cmp	r3, #0
    3ce0:	0a0000b1 	beq	3fac <opj_dwt_decode+0xfa0>
    3ce4:	e59d2078 	ldr	r2, [sp, #120]	; 0x78
    3ce8:	e3a03000 	mov	r3, #0
    3cec:	e5823000 	str	r3, [r2]
    3cf0:	e59d207c 	ldr	r2, [sp, #124]	; 0x7c
    3cf4:	e3a03000 	mov	r3, #0
    3cf8:	e5823000 	str	r3, [r2]
    3cfc:	e59d111c 	ldr	r1, [sp, #284]	; 0x11c
    3d00:	e59d302c 	ldr	r3, [sp, #44]	; 0x2c
    3d04:	e3a07002 	mov	r7, #2
    3d08:	e0833081 	add	r3, r3, r1, lsl #1
    3d0c:	e3a02001 	mov	r2, #1
    3d10:	e08b3713 	add	r3, fp, r3, lsl r7
    3d14:	e58d3004 	str	r3, [sp, #4]
    3d18:	e3a03000 	mov	r3, #0
    3d1c:	e58d2010 	str	r2, [sp, #16]
    3d20:	e58d300c 	str	r3, [sp, #12]
    3d24:	e58d5000 	str	r5, [sp]
    3d28:	e58d7008 	str	r7, [sp, #8]
    3d2c:	e59d3124 	ldr	r3, [sp, #292]	; 0x124
    3d30:	e1a02004 	mov	r2, r4
    3d34:	e59d0024 	ldr	r0, [sp, #36]	; 0x24
    3d38:	ebfffffe 	bl	0 <opj_sparse_array_int32_read>
    3d3c:	e3500000 	cmp	r0, #0
    3d40:	0a0006f4 	beq	5918 <opj_dwt_decode+0x290c>
    3d44:	e3a00000 	mov	r0, #0
    3d48:	e3a01001 	mov	r1, #1
    3d4c:	e59d306c 	ldr	r3, [sp, #108]	; 0x6c
    3d50:	e1cd00fc 	strd	r0, [sp, #12]
    3d54:	e59d1048 	ldr	r1, [sp, #72]	; 0x48
    3d58:	e58d3004 	str	r3, [sp, #4]
    3d5c:	e58d7008 	str	r7, [sp, #8]
    3d60:	e58d5000 	str	r5, [sp]
    3d64:	e086300a 	add	r3, r6, sl
    3d68:	e1a02004 	mov	r2, r4
    3d6c:	e081100a 	add	r1, r1, sl
    3d70:	e59d0024 	ldr	r0, [sp, #36]	; 0x24
    3d74:	ebfffffe 	bl	0 <opj_sparse_array_int32_read>
    3d78:	e3500000 	cmp	r0, #0
    3d7c:	0a0006e0 	beq	5904 <opj_dwt_decode+0x28f8>
    3d80:	e59d302c 	ldr	r3, [sp, #44]	; 0x2c
    3d84:	e59d211c 	ldr	r2, [sp, #284]	; 0x11c
    3d88:	e3530000 	cmp	r3, #0
    3d8c:	e1a01002 	mov	r1, r2
    3d90:	e59dc124 	ldr	ip, [sp, #292]	; 0x124
    3d94:	1a000089 	bne	3fc0 <opj_dwt_decode+0xfb4>
    3d98:	e59d3080 	ldr	r3, [sp, #128]	; 0x80
    3d9c:	e3530000 	cmp	r3, #0
    3da0:	0a00006d 	beq	3f5c <opj_dwt_decode+0xf50>
    3da4:	e152000c 	cmp	r2, ip
    3da8:	aa0000df 	bge	412c <opj_dwt_decode+0x1120>
    3dac:	e3520000 	cmp	r2, #0
    3db0:	e08b0182 	add	r0, fp, r2, lsl #3
    3db4:	e79b7182 	ldr	r7, [fp, r2, lsl #3]
    3db8:	da000664 	ble	5750 <opj_dwt_decode+0x2744>
    3dbc:	e1580002 	cmp	r8, r2
    3dc0:	ba0005a0 	blt	5448 <opj_dwt_decode+0x243c>
    3dc4:	e08b3182 	add	r3, fp, r2, lsl #3
    3dc8:	e5133004 	ldr	r3, [r3, #-4]
    3dcc:	e3520000 	cmp	r2, #0
    3dd0:	ba000660 	blt	5758 <opj_dwt_decode+0x274c>
    3dd4:	e1580002 	cmp	r8, r2
    3dd8:	c08b1182 	addgt	r1, fp, r2, lsl #3
    3ddc:	d59d10ac 	ldrle	r1, [sp, #172]	; 0xac
    3de0:	c5911004 	ldrgt	r1, [r1, #4]
    3de4:	d5911000 	ldrle	r1, [r1]
    3de8:	e0811003 	add	r1, r1, r3
    3dec:	e158000c 	cmp	r8, ip
    3df0:	e2811002 	add	r1, r1, #2
    3df4:	b1a0e008 	movlt	lr, r8
    3df8:	a1a0e00c 	movge	lr, ip
    3dfc:	e2823001 	add	r3, r2, #1
    3e00:	e0471141 	sub	r1, r7, r1, asr #2
    3e04:	e15e0003 	cmp	lr, r3
    3e08:	e78b1182 	str	r1, [fp, r2, lsl #3]
    3e0c:	da00000f 	ble	3e50 <opj_dwt_decode+0xe44>
    3e10:	e24b7008 	sub	r7, fp, #8
    3e14:	e087718e 	add	r7, r7, lr, lsl #3
    3e18:	e58d30c0 	str	r3, [sp, #192]	; 0xc0
    3e1c:	e590300c 	ldr	r3, [r0, #12]
    3e20:	e5901004 	ldr	r1, [r0, #4]
    3e24:	e0811003 	add	r1, r1, r3
    3e28:	e2811002 	add	r1, r1, #2
    3e2c:	e5903008 	ldr	r3, [r0, #8]
    3e30:	e0431141 	sub	r1, r3, r1, asr #2
    3e34:	e5a01008 	str	r1, [r0, #8]!
    3e38:	e1500007 	cmp	r0, r7
    3e3c:	1afffff6 	bne	3e1c <opj_dwt_decode+0xe10>
    3e40:	e59d30c0 	ldr	r3, [sp, #192]	; 0xc0
    3e44:	e1e02002 	mvn	r2, r2
    3e48:	e0823003 	add	r3, r2, r3
    3e4c:	e083300e 	add	r3, r3, lr
    3e50:	e15c0003 	cmp	ip, r3
    3e54:	da0000b4 	ble	412c <opj_dwt_decode+0x1120>
    3e58:	e3530000 	cmp	r3, #0
    3e5c:	ca000013 	bgt	3eb0 <opj_dwt_decode+0xea4>
    3e60:	e24c0001 	sub	r0, ip, #1
    3e64:	e59de0ac 	ldr	lr, [sp, #172]	; 0xac
    3e68:	e0000fc0 	and	r0, r0, r0, asr #31
    3e6c:	e59b2004 	ldr	r2, [fp, #4]
    3e70:	e3530000 	cmp	r3, #0
    3e74:	e79b1183 	ldr	r1, [fp, r3, lsl #3]
    3e78:	11a07002 	movne	r7, r2
    3e7c:	1a000002 	bne	3e8c <opj_dwt_decode+0xe80>
    3e80:	e3580000 	cmp	r8, #0
    3e84:	d59e7000 	ldrle	r7, [lr]
    3e88:	c59b7004 	ldrgt	r7, [fp, #4]
    3e8c:	e0822007 	add	r2, r2, r7
    3e90:	e2822002 	add	r2, r2, #2
    3e94:	e0412142 	sub	r2, r1, r2, asr #2
    3e98:	e78b2183 	str	r2, [fp, r3, lsl #3]
    3e9c:	e2833001 	add	r3, r3, #1
    3ea0:	e1530000 	cmp	r3, r0
    3ea4:	dafffff0 	ble	3e6c <opj_dwt_decode+0xe60>
    3ea8:	e15c0003 	cmp	ip, r3
    3eac:	da00009e 	ble	412c <opj_dwt_decode+0x1120>
    3eb0:	e28b0004 	add	r0, fp, #4
    3eb4:	e59de0ac 	ldr	lr, [sp, #172]	; 0xac
    3eb8:	ea00000a 	b	3ee8 <opj_dwt_decode+0xedc>
    3ebc:	e59e2000 	ldr	r2, [lr]
    3ec0:	e3530000 	cmp	r3, #0
    3ec4:	a1a07002 	movge	r7, r2
    3ec8:	ba000562 	blt	5458 <opj_dwt_decode+0x244c>
    3ecc:	e0822007 	add	r2, r2, r7
    3ed0:	e2822002 	add	r2, r2, #2
    3ed4:	e0412142 	sub	r2, r1, r2, asr #2
    3ed8:	e78b2183 	str	r2, [fp, r3, lsl #3]
    3edc:	e2833001 	add	r3, r3, #1
    3ee0:	e15c0003 	cmp	ip, r3
    3ee4:	da000090 	ble	412c <opj_dwt_decode+0x1120>
    3ee8:	e1580003 	cmp	r8, r3
    3eec:	e79b1183 	ldr	r1, [fp, r3, lsl #3]
    3ef0:	bafffff1 	blt	3ebc <opj_dwt_decode+0xeb0>
    3ef4:	e3530000 	cmp	r3, #0
    3ef8:	e7992183 	ldr	r2, [r9, r3, lsl #3]
    3efc:	ba000555 	blt	5458 <opj_dwt_decode+0x244c>
    3f00:	e1580003 	cmp	r8, r3
    3f04:	059e7000 	ldreq	r7, [lr]
    3f08:	17907183 	ldrne	r7, [r0, r3, lsl #3]
    3f0c:	eaffffee 	b	3ecc <opj_dwt_decode+0xec0>
    3f10:	e59d3038 	ldr	r3, [sp, #56]	; 0x38
    3f14:	e59d2054 	ldr	r2, [sp, #84]	; 0x54
    3f18:	e0833002 	add	r3, r3, r2
    3f1c:	e1530004 	cmp	r3, r4
    3f20:	8a000003 	bhi	3f34 <opj_dwt_decode+0xf28>
    3f24:	e59d3030 	ldr	r3, [sp, #48]	; 0x30
    3f28:	e0833002 	add	r3, r3, r2
    3f2c:	e1530004 	cmp	r3, r4
    3f30:	8affff68 	bhi	3cd8 <opj_dwt_decode+0xccc>
    3f34:	e59d3050 	ldr	r3, [sp, #80]	; 0x50
    3f38:	e1530005 	cmp	r3, r5
    3f3c:	0a0000b7 	beq	4220 <opj_dwt_decode+0x1214>
    3f40:	e1a04005 	mov	r4, r5
    3f44:	e59d3120 	ldr	r3, [sp, #288]	; 0x120
    3f48:	eaffff5c 	b	3cc0 <opj_dwt_decode+0xcb4>
    3f4c:	e59b3000 	ldr	r3, [fp]
    3f50:	e0833fa3 	add	r3, r3, r3, lsr #31
    3f54:	e1a030c3 	asr	r3, r3, #1
    3f58:	e58b3000 	str	r3, [fp]
    3f5c:	e3a02001 	mov	r2, #1
    3f60:	e58d2010 	str	r2, [sp, #16]
    3f64:	e58d2008 	str	r2, [sp, #8]
    3f68:	e59d2068 	ldr	r2, [sp, #104]	; 0x68
    3f6c:	e3a03000 	mov	r3, #0
    3f70:	e58d2004 	str	r2, [sp, #4]
    3f74:	e58d300c 	str	r3, [sp, #12]
    3f78:	e58d5000 	str	r5, [sp]
    3f7c:	e1a02004 	mov	r2, r4
    3f80:	e59d3028 	ldr	r3, [sp, #40]	; 0x28
    3f84:	e59d1058 	ldr	r1, [sp, #88]	; 0x58
    3f88:	e59d0024 	ldr	r0, [sp, #36]	; 0x24
    3f8c:	ebfffffe 	bl	0 <opj_sparse_array_int32_write>
    3f90:	e3500000 	cmp	r0, #0
    3f94:	1affffe6 	bne	3f34 <opj_dwt_decode+0xf28>
    3f98:	e59d0024 	ldr	r0, [sp, #36]	; 0x24
    3f9c:	ebfffffe 	bl	0 <opj_sparse_array_int32_free>
    3fa0:	e1a0000b 	mov	r0, fp
    3fa4:	ebfffffe 	bl	0 <opj_aligned_free>
    3fa8:	eafffd13 	b	33fc <opj_dwt_decode+0x3f0>
    3fac:	e59d3074 	ldr	r3, [sp, #116]	; 0x74
    3fb0:	e59d2028 	ldr	r2, [sp, #40]	; 0x28
    3fb4:	e1530002 	cmp	r3, r2
    3fb8:	9affff4f 	bls	3cfc <opj_dwt_decode+0xcf0>
    3fbc:	eaffff4b 	b	3cf0 <opj_dwt_decode+0xce4>
    3fc0:	e59d3094 	ldr	r3, [sp, #148]	; 0x94
    3fc4:	e3530000 	cmp	r3, #0
    3fc8:	1affffdf 	bne	3f4c <opj_dwt_decode+0xf40>
    3fcc:	e152000c 	cmp	r2, ip
    3fd0:	aa00002e 	bge	4090 <opj_dwt_decode+0x1084>
    3fd4:	e3520000 	cmp	r2, #0
    3fd8:	aa000015 	bge	4034 <opj_dwt_decode+0x1028>
    3fdc:	e00cefcc 	and	lr, ip, ip, asr #31
    3fe0:	e08b0182 	add	r0, fp, r2, lsl #3
    3fe4:	e59b3000 	ldr	r3, [fp]
    3fe8:	e3720001 	cmn	r2, #1
    3fec:	e2821001 	add	r1, r2, #1
    3ff0:	11a07003 	movne	r7, r3
    3ff4:	e5902004 	ldr	r2, [r0, #4]
    3ff8:	1a000003 	bne	400c <opj_dwt_decode+0x1000>
    3ffc:	e1580001 	cmp	r8, r1
    4000:	d59d7070 	ldrle	r7, [sp, #112]	; 0x70
    4004:	c5907008 	ldrgt	r7, [r0, #8]
    4008:	d5977000 	ldrle	r7, [r7]
    400c:	e0833007 	add	r3, r3, r7
    4010:	e2833002 	add	r3, r3, #2
    4014:	e15e0001 	cmp	lr, r1
    4018:	e0423143 	sub	r3, r2, r3, asr #2
    401c:	e5803004 	str	r3, [r0, #4]
    4020:	e1a02001 	mov	r2, r1
    4024:	e2800008 	add	r0, r0, #8
    4028:	caffffed 	bgt	3fe4 <opj_dwt_decode+0xfd8>
    402c:	e15c0001 	cmp	ip, r1
    4030:	da000016 	ble	4090 <opj_dwt_decode+0x1084>
    4034:	e1a03001 	mov	r3, r1
    4038:	e28b0004 	add	r0, fp, #4
    403c:	e59d1070 	ldr	r1, [sp, #112]	; 0x70
    4040:	ea000009 	b	406c <opj_dwt_decode+0x1060>
    4044:	e1580002 	cmp	r8, r2
    4048:	d5913000 	ldrle	r3, [r1]
    404c:	c79b3182 	ldrgt	r3, [fp, r2, lsl #3]
    4050:	e0837007 	add	r7, r3, r7
    4054:	e2877002 	add	r7, r7, #2
    4058:	e15c0002 	cmp	ip, r2
    405c:	e04e7147 	sub	r7, lr, r7, asr #2
    4060:	e1a03002 	mov	r3, r2
    4064:	e7897182 	str	r7, [r9, r2, lsl #3]
    4068:	da000008 	ble	4090 <opj_dwt_decode+0x1084>
    406c:	e1580003 	cmp	r8, r3
    4070:	e790e183 	ldr	lr, [r0, r3, lsl #3]
    4074:	d5917000 	ldrle	r7, [r1]
    4078:	c79b7183 	ldrgt	r7, [fp, r3, lsl #3]
    407c:	e3730001 	cmn	r3, #1
    4080:	e2832001 	add	r2, r3, #1
    4084:	aaffffee 	bge	4044 <opj_dwt_decode+0x1038>
    4088:	e59b3000 	ldr	r3, [fp]
    408c:	eaffffef 	b	4050 <opj_dwt_decode+0x1044>
    4090:	e59d3048 	ldr	r3, [sp, #72]	; 0x48
    4094:	e1530006 	cmp	r3, r6
    4098:	aaffffaf 	bge	3f5c <opj_dwt_decode+0xf50>
    409c:	e3530000 	cmp	r3, #0
    40a0:	aa00000a 	bge	40d0 <opj_dwt_decode+0x10c4>
    40a4:	e0060fc6 	and	r0, r6, r6, asr #31
    40a8:	e59b1004 	ldr	r1, [fp, #4]
    40ac:	e79b2183 	ldr	r2, [fp, r3, lsl #3]
    40b0:	e1a01081 	lsl	r1, r1, #1
    40b4:	e08220c1 	add	r2, r2, r1, asr #1
    40b8:	e78b2183 	str	r2, [fp, r3, lsl #3]
    40bc:	e2833001 	add	r3, r3, #1
    40c0:	e1530000 	cmp	r3, r0
    40c4:	bafffff7 	blt	40a8 <opj_dwt_decode+0x109c>
    40c8:	e1560003 	cmp	r6, r3
    40cc:	daffffa2 	ble	3f5c <opj_dwt_decode+0xf50>
    40d0:	e28b0004 	add	r0, fp, #4
    40d4:	e59dc0b4 	ldr	ip, [sp, #180]	; 0xb4
    40d8:	ea00000b 	b	410c <opj_dwt_decode+0x1100>
    40dc:	e59ce000 	ldr	lr, [ip]
    40e0:	e3530000 	cmp	r3, #0
    40e4:	e1a0100e 	mov	r1, lr
    40e8:	da000638 	ble	59d0 <opj_dwt_decode+0x29c4>
    40ec:	e15a0003 	cmp	sl, r3
    40f0:	aa00000b 	bge	4124 <opj_dwt_decode+0x1118>
    40f4:	e081100e 	add	r1, r1, lr
    40f8:	e08220c1 	add	r2, r2, r1, asr #1
    40fc:	e78b2183 	str	r2, [fp, r3, lsl #3]
    4100:	e2833001 	add	r3, r3, #1
    4104:	e1560003 	cmp	r6, r3
    4108:	daffff93 	ble	3f5c <opj_dwt_decode+0xf50>
    410c:	e15a0003 	cmp	sl, r3
    4110:	e79b2183 	ldr	r2, [fp, r3, lsl #3]
    4114:	dafffff0 	ble	40dc <opj_dwt_decode+0x10d0>
    4118:	e3530000 	cmp	r3, #0
    411c:	e7901183 	ldr	r1, [r0, r3, lsl #3]
    4120:	da00062a 	ble	59d0 <opj_dwt_decode+0x29c4>
    4124:	e799e183 	ldr	lr, [r9, r3, lsl #3]
    4128:	eafffff1 	b	40f4 <opj_dwt_decode+0x10e8>
    412c:	e59d3048 	ldr	r3, [sp, #72]	; 0x48
    4130:	e1530006 	cmp	r3, r6
    4134:	aaffff88 	bge	3f5c <opj_dwt_decode+0xf50>
    4138:	e15a0006 	cmp	sl, r6
    413c:	e28b0004 	add	r0, fp, #4
    4140:	da000462 	ble	52d0 <opj_dwt_decode+0x22c4>
    4144:	e59dc0bc 	ldr	ip, [sp, #188]	; 0xbc
    4148:	e1a0e003 	mov	lr, r3
    414c:	e2833001 	add	r3, r3, #1
    4150:	e79b118e 	ldr	r1, [fp, lr, lsl #3]
    4154:	e79b7183 	ldr	r7, [fp, r3, lsl #3]
    4158:	e790218e 	ldr	r2, [r0, lr, lsl #3]
    415c:	e0811007 	add	r1, r1, r7
    4160:	e153000c 	cmp	r3, ip
    4164:	e08220c1 	add	r2, r2, r1, asr #1
    4168:	e7892183 	str	r2, [r9, r3, lsl #3]
    416c:	bafffff5 	blt	4148 <opj_dwt_decode+0x113c>
    4170:	e1560003 	cmp	r6, r3
    4174:	daffff78 	ble	3f5c <opj_dwt_decode+0xf50>
    4178:	e3530000 	cmp	r3, #0
    417c:	aa000013 	bge	41d0 <opj_dwt_decode+0x11c4>
    4180:	e0061fc6 	and	r1, r6, r6, asr #31
    4184:	e59dc0a8 	ldr	ip, [sp, #168]	; 0xa8
    4188:	e1a02003 	mov	r2, r3
    418c:	e3720001 	cmn	r2, #1
    4190:	e59b2000 	ldr	r2, [fp]
    4194:	e790e183 	ldr	lr, [r0, r3, lsl #3]
    4198:	11a07002 	movne	r7, r2
    419c:	e2833001 	add	r3, r3, #1
    41a0:	1a000002 	bne	41b0 <opj_dwt_decode+0x11a4>
    41a4:	e15a0003 	cmp	sl, r3
    41a8:	d59c7000 	ldrle	r7, [ip]
    41ac:	c79b7183 	ldrgt	r7, [fp, r3, lsl #3]
    41b0:	e0822007 	add	r2, r2, r7
    41b4:	e1510003 	cmp	r1, r3
    41b8:	e08e20c2 	add	r2, lr, r2, asr #1
    41bc:	e7892183 	str	r2, [r9, r3, lsl #3]
    41c0:	e1a02003 	mov	r2, r3
    41c4:	cafffff0 	bgt	418c <opj_dwt_decode+0x1180>
    41c8:	e1560003 	cmp	r6, r3
    41cc:	daffff62 	ble	3f5c <opj_dwt_decode+0xf50>
    41d0:	e59de0a8 	ldr	lr, [sp, #168]	; 0xa8
    41d4:	ea000008 	b	41fc <opj_dwt_decode+0x11f0>
    41d8:	e15a000c 	cmp	sl, ip
    41dc:	d59e1000 	ldrle	r1, [lr]
    41e0:	c79b118c 	ldrgt	r1, [fp, ip, lsl #3]
    41e4:	e0811007 	add	r1, r1, r7
    41e8:	e156000c 	cmp	r6, ip
    41ec:	e08220c1 	add	r2, r2, r1, asr #1
    41f0:	e1a0300c 	mov	r3, ip
    41f4:	e789218c 	str	r2, [r9, ip, lsl #3]
    41f8:	daffff57 	ble	3f5c <opj_dwt_decode+0xf50>
    41fc:	e15a0003 	cmp	sl, r3
    4200:	e7902183 	ldr	r2, [r0, r3, lsl #3]
    4204:	d59e7000 	ldrle	r7, [lr]
    4208:	c79b7183 	ldrgt	r7, [fp, r3, lsl #3]
    420c:	e3730001 	cmn	r3, #1
    4210:	e283c001 	add	ip, r3, #1
    4214:	aaffffef 	bge	41d8 <opj_dwt_decode+0x11cc>
    4218:	e59b1000 	ldr	r1, [fp]
    421c:	eafffff0 	b	41e4 <opj_dwt_decode+0x11d8>
    4220:	e59d70b8 	ldr	r7, [sp, #184]	; 0xb8
    4224:	e59d9054 	ldr	r9, [sp, #84]	; 0x54
    4228:	e59d3028 	ldr	r3, [sp, #40]	; 0x28
    422c:	e59d2058 	ldr	r2, [sp, #88]	; 0x58
    4230:	e1530002 	cmp	r3, r2
    4234:	9a000177 	bls	4818 <opj_dwt_decode+0x180c>
    4238:	e2470001 	sub	r0, r7, #1
    423c:	e2493001 	sub	r3, r9, #1
    4240:	e1a02280 	lsl	r2, r0, #5
    4244:	e282a008 	add	sl, r2, #8
    4248:	e08b0280 	add	r0, fp, r0, lsl #5
    424c:	e58d30e0 	str	r3, [sp, #224]	; 0xe0
    4250:	e59d1040 	ldr	r1, [sp, #64]	; 0x40
    4254:	e1a03283 	lsl	r3, r3, #5
    4258:	e282501c 	add	r5, r2, #28
    425c:	e58d007c 	str	r0, [sp, #124]	; 0x7c
    4260:	e08ba00a 	add	sl, fp, sl
    4264:	e282000c 	add	r0, r2, #12
    4268:	e59dc098 	ldr	ip, [sp, #152]	; 0x98
    426c:	e2828010 	add	r8, r2, #16
    4270:	e2826018 	add	r6, r2, #24
    4274:	e283e018 	add	lr, r3, #24
    4278:	e58da0ac 	str	sl, [sp, #172]	; 0xac
    427c:	e08b5005 	add	r5, fp, r5
    4280:	e08ba000 	add	sl, fp, r0
    4284:	e2820014 	add	r0, r2, #20
    4288:	e2822004 	add	r2, r2, #4
    428c:	e08b8008 	add	r8, fp, r8
    4290:	e58d5080 	str	r5, [sp, #128]	; 0x80
    4294:	e08be00e 	add	lr, fp, lr
    4298:	e08b5002 	add	r5, fp, r2
    429c:	e2611001 	rsb	r1, r1, #1
    42a0:	e283201c 	add	r2, r3, #28
    42a4:	e081100c 	add	r1, r1, ip
    42a8:	e58d80c8 	str	r8, [sp, #200]	; 0xc8
    42ac:	e58de05c 	str	lr, [sp, #92]	; 0x5c
    42b0:	e08b8000 	add	r8, fp, r0
    42b4:	e08be002 	add	lr, fp, r2
    42b8:	e2830004 	add	r0, r3, #4
    42bc:	e58d102c 	str	r1, [sp, #44]	; 0x2c
    42c0:	e58de054 	str	lr, [sp, #84]	; 0x54
    42c4:	e59d1038 	ldr	r1, [sp, #56]	; 0x38
    42c8:	e08be000 	add	lr, fp, r0
    42cc:	e2830008 	add	r0, r3, #8
    42d0:	e59d202c 	ldr	r2, [sp, #44]	; 0x2c
    42d4:	e58de0cc 	str	lr, [sp, #204]	; 0xcc
    42d8:	e08be000 	add	lr, fp, r0
    42dc:	e283000c 	add	r0, r3, #12
    42e0:	e2834014 	add	r4, r3, #20
    42e4:	e08b0000 	add	r0, fp, r0
    42e8:	e2833010 	add	r3, r3, #16
    42ec:	e1a01281 	lsl	r1, r1, #5
    42f0:	e58d00d4 	str	r0, [sp, #212]	; 0xd4
    42f4:	e08b0003 	add	r0, fp, r3
    42f8:	e58d00d8 	str	r0, [sp, #216]	; 0xd8
    42fc:	e08b0202 	add	r0, fp, r2, lsl #4
    4300:	e281200c 	add	r2, r1, #12
    4304:	e08b2002 	add	r2, fp, r2
    4308:	e58d20dc 	str	r2, [sp, #220]	; 0xdc
    430c:	e08b2001 	add	r2, fp, r1
    4310:	e59d1030 	ldr	r1, [sp, #48]	; 0x30
    4314:	e59d30e0 	ldr	r3, [sp, #224]	; 0xe0
    4318:	e1590001 	cmp	r9, r1
    431c:	e58d2110 	str	r2, [sp, #272]	; 0x110
    4320:	e1a02001 	mov	r2, r1
    4324:	d1a02003 	movle	r2, r3
    4328:	e3590000 	cmp	r9, #0
    432c:	e08b3283 	add	r3, fp, r3, lsl #5
    4330:	e247c001 	sub	ip, r7, #1
    4334:	e16fcf1c 	clz	ip, ip
    4338:	e1a0c2ac 	lsr	ip, ip, #5
    433c:	13a0c000 	movne	ip, #0
    4340:	e3590001 	cmp	r9, #1
    4344:	d3570000 	cmple	r7, #0
    4348:	e58d30b4 	str	r3, [sp, #180]	; 0xb4
    434c:	c3a03001 	movgt	r3, #1
    4350:	d3a03000 	movle	r3, #0
    4354:	e58d3094 	str	r3, [sp, #148]	; 0x94
    4358:	e59d3060 	ldr	r3, [sp, #96]	; 0x60
    435c:	e08b6006 	add	r6, fp, r6
    4360:	e08b4004 	add	r4, fp, r4
    4364:	e08b3203 	add	r3, fp, r3, lsl #4
    4368:	e58da0b0 	str	sl, [sp, #176]	; 0xb0
    436c:	e58d60c0 	str	r6, [sp, #192]	; 0xc0
    4370:	e58d3068 	str	r3, [sp, #104]	; 0x68
    4374:	e58d80bc 	str	r8, [sp, #188]	; 0xbc
    4378:	e58d50a8 	str	r5, [sp, #168]	; 0xa8
    437c:	e58d4078 	str	r4, [sp, #120]	; 0x78
    4380:	e58de0d0 	str	lr, [sp, #208]	; 0xd0
    4384:	e58d006c 	str	r0, [sp, #108]	; 0x6c
    4388:	e58d20ec 	str	r2, [sp, #236]	; 0xec
    438c:	e58dc098 	str	ip, [sp, #152]	; 0x98
    4390:	e59d1038 	ldr	r1, [sp, #56]	; 0x38
    4394:	e59d6058 	ldr	r6, [sp, #88]	; 0x58
    4398:	e3a0a001 	mov	sl, #1
    439c:	e0813009 	add	r3, r1, r9
    43a0:	e58d3070 	str	r3, [sp, #112]	; 0x70
    43a4:	e59d3028 	ldr	r3, [sp, #40]	; 0x28
    43a8:	e59d2120 	ldr	r2, [sp, #288]	; 0x120
    43ac:	e0431006 	sub	r1, r3, r6
    43b0:	e59d3040 	ldr	r3, [sp, #64]	; 0x40
    43b4:	e59d0128 	ldr	r0, [sp, #296]	; 0x128
    43b8:	e0833082 	add	r3, r3, r2, lsl #1
    43bc:	e3a0c008 	mov	ip, #8
    43c0:	e08b3203 	add	r3, fp, r3, lsl #4
    43c4:	e3510004 	cmp	r1, #4
    43c8:	90861001 	addls	r1, r6, r1
    43cc:	82861004 	addhi	r1, r6, #4
    43d0:	e58d102c 	str	r1, [sp, #44]	; 0x2c
    43d4:	e98d1408 	stmib	sp, {r3, sl, ip}
    43d8:	e1a03001 	mov	r3, r1
    43dc:	e58d0000 	str	r0, [sp]
    43e0:	e58da010 	str	sl, [sp, #16]
    43e4:	e1a01006 	mov	r1, r6
    43e8:	e59d0024 	ldr	r0, [sp, #36]	; 0x24
    43ec:	ebfffffe 	bl	0 <opj_sparse_array_int32_read>
    43f0:	e3500000 	cmp	r0, #0
    43f4:	0a00053d 	beq	58f0 <opj_dwt_decode+0x28e4>
    43f8:	e59d3030 	ldr	r3, [sp, #48]	; 0x30
    43fc:	e3a02008 	mov	r2, #8
    4400:	e58d200c 	str	r2, [sp, #12]
    4404:	e59d206c 	ldr	r2, [sp, #108]	; 0x6c
    4408:	e0833009 	add	r3, r3, r9
    440c:	e58d2004 	str	r2, [sp, #4]
    4410:	e58d3000 	str	r3, [sp]
    4414:	e58da010 	str	sl, [sp, #16]
    4418:	e58da008 	str	sl, [sp, #8]
    441c:	e59d302c 	ldr	r3, [sp, #44]	; 0x2c
    4420:	e59d2070 	ldr	r2, [sp, #112]	; 0x70
    4424:	e1a01006 	mov	r1, r6
    4428:	e59d0024 	ldr	r0, [sp, #36]	; 0x24
    442c:	ebfffffe 	bl	0 <opj_sparse_array_int32_read>
    4430:	e3500000 	cmp	r0, #0
    4434:	0a000528 	beq	58dc <opj_dwt_decode+0x28d0>
    4438:	e59d3040 	ldr	r3, [sp, #64]	; 0x40
    443c:	e59d1120 	ldr	r1, [sp, #288]	; 0x120
    4440:	e3530000 	cmp	r3, #0
    4444:	e1a02001 	mov	r2, r1
    4448:	e59de128 	ldr	lr, [sp, #296]	; 0x128
    444c:	1a0000cd 	bne	4788 <opj_dwt_decode+0x177c>
    4450:	e59d3094 	ldr	r3, [sp, #148]	; 0x94
    4454:	e3530000 	cmp	r3, #0
    4458:	0a0000db 	beq	47cc <opj_dwt_decode+0x17c0>
    445c:	e151000e 	cmp	r1, lr
    4460:	aa000118 	bge	48c8 <opj_dwt_decode+0x18bc>
    4464:	e1a02181 	lsl	r2, r1, #3
    4468:	e2822001 	add	r2, r2, #1
    446c:	e1a0c281 	lsl	ip, r1, #5
    4470:	e1a03102 	lsl	r3, r2, #2
    4474:	e08b000c 	add	r0, fp, ip
    4478:	e3510000 	cmp	r1, #0
    447c:	e08b8003 	add	r8, fp, r3
    4480:	e58d0058 	str	r0, [sp, #88]	; 0x58
    4484:	e79b4281 	ldr	r4, [fp, r1, lsl #5]
    4488:	da00049d 	ble	5704 <opj_dwt_decode+0x26f8>
    448c:	e1570001 	cmp	r7, r1
    4490:	ba0003c8 	blt	53b8 <opj_dwt_decode+0x23ac>
    4494:	e5100010 	ldr	r0, [r0, #-16]
    4498:	e3510000 	cmp	r1, #0
    449c:	ba00048e 	blt	56dc <opj_dwt_decode+0x26d0>
    44a0:	e1570001 	cmp	r7, r1
    44a4:	da0004f7 	ble	5888 <opj_dwt_decode+0x287c>
    44a8:	e598500c 	ldr	r5, [r8, #12]
    44ac:	e3510000 	cmp	r1, #0
    44b0:	e0800005 	add	r0, r0, r5
    44b4:	e2800002 	add	r0, r0, #2
    44b8:	e0440140 	sub	r0, r4, r0, asr #2
    44bc:	e78b000c 	str	r0, [fp, ip]
    44c0:	e2830004 	add	r0, r3, #4
    44c4:	e79b4102 	ldr	r4, [fp, r2, lsl #2]
    44c8:	e58d0048 	str	r0, [sp, #72]	; 0x48
    44cc:	0a00048a 	beq	56fc <opj_dwt_decode+0x26f0>
    44d0:	e08b0281 	add	r0, fp, r1, lsl #5
    44d4:	e510c00c 	ldr	ip, [r0, #-12]
    44d8:	e59d0048 	ldr	r0, [sp, #72]	; 0x48
    44dc:	e3510000 	cmp	r1, #0
    44e0:	e08b0000 	add	r0, fp, r0
    44e4:	ba000490 	blt	572c <opj_dwt_decode+0x2720>
    44e8:	e1570001 	cmp	r7, r1
    44ec:	da0004d7 	ble	5850 <opj_dwt_decode+0x2844>
    44f0:	e5985010 	ldr	r5, [r8, #16]
    44f4:	e3510000 	cmp	r1, #0
    44f8:	e08cc005 	add	ip, ip, r5
    44fc:	e28cc002 	add	ip, ip, #2
    4500:	e2833008 	add	r3, r3, #8
    4504:	e044c14c 	sub	ip, r4, ip, asr #2
    4508:	e78bc102 	str	ip, [fp, r2, lsl #2]
    450c:	e5902000 	ldr	r2, [r0]
    4510:	0a00048c 	beq	5748 <opj_dwt_decode+0x273c>
    4514:	e08bc281 	add	ip, fp, r1, lsl #5
    4518:	e51c4008 	ldr	r4, [ip, #-8]
    451c:	e3510000 	cmp	r1, #0
    4520:	e08bc003 	add	ip, fp, r3
    4524:	ba000478 	blt	570c <opj_dwt_decode+0x2700>
    4528:	e1570001 	cmp	r7, r1
    452c:	da0004bb 	ble	5820 <opj_dwt_decode+0x2814>
    4530:	e5983014 	ldr	r3, [r8, #20]
    4534:	e3510000 	cmp	r1, #0
    4538:	e0843003 	add	r3, r4, r3
    453c:	e2833002 	add	r3, r3, #2
    4540:	e0423143 	sub	r3, r2, r3, asr #2
    4544:	e5803000 	str	r3, [r0]
    4548:	e59c3000 	ldr	r3, [ip]
    454c:	0a000474 	beq	5724 <opj_dwt_decode+0x2718>
    4550:	e08b2281 	add	r2, fp, r1, lsl #5
    4554:	e5120004 	ldr	r0, [r2, #-4]
    4558:	e3510000 	cmp	r1, #0
    455c:	ba0003b7 	blt	5440 <opj_dwt_decode+0x2434>
    4560:	e1570001 	cmp	r7, r1
    4564:	d59d2080 	ldrle	r2, [sp, #128]	; 0x80
    4568:	c5982018 	ldrgt	r2, [r8, #24]
    456c:	d5922000 	ldrle	r2, [r2]
    4570:	e0800002 	add	r0, r0, r2
    4574:	e157000e 	cmp	r7, lr
    4578:	e2800002 	add	r0, r0, #2
    457c:	b1a04007 	movlt	r4, r7
    4580:	a1a0400e 	movge	r4, lr
    4584:	e2812001 	add	r2, r1, #1
    4588:	e0433140 	sub	r3, r3, r0, asr #2
    458c:	e1540002 	cmp	r4, r2
    4590:	e58d4048 	str	r4, [sp, #72]	; 0x48
    4594:	e58c3000 	str	r3, [ip]
    4598:	da000027 	ble	463c <opj_dwt_decode+0x1630>
    459c:	e24b5020 	sub	r5, fp, #32
    45a0:	e0855284 	add	r5, r5, r4, lsl #5
    45a4:	e59d3058 	ldr	r3, [sp, #88]	; 0x58
    45a8:	e58d2058 	str	r2, [sp, #88]	; 0x58
    45ac:	e5930030 	ldr	r0, [r3, #48]	; 0x30
    45b0:	e5934010 	ldr	r4, [r3, #16]
    45b4:	e593c014 	ldr	ip, [r3, #20]
    45b8:	e0844000 	add	r4, r4, r0
    45bc:	e5930034 	ldr	r0, [r3, #52]	; 0x34
    45c0:	e5932020 	ldr	r2, [r3, #32]
    45c4:	e5938018 	ldr	r8, [r3, #24]
    45c8:	e08cc000 	add	ip, ip, r0
    45cc:	e2844002 	add	r4, r4, #2
    45d0:	e5930038 	ldr	r0, [r3, #56]	; 0x38
    45d4:	e0424144 	sub	r4, r2, r4, asr #2
    45d8:	e0880000 	add	r0, r8, r0
    45dc:	e593203c 	ldr	r2, [r3, #60]	; 0x3c
    45e0:	e593801c 	ldr	r8, [r3, #28]
    45e4:	e5834020 	str	r4, [r3, #32]
    45e8:	e28cc002 	add	ip, ip, #2
    45ec:	e5934024 	ldr	r4, [r3, #36]	; 0x24
    45f0:	e0888002 	add	r8, r8, r2
    45f4:	e044c14c 	sub	ip, r4, ip, asr #2
    45f8:	e5932028 	ldr	r2, [r3, #40]	; 0x28
    45fc:	e593402c 	ldr	r4, [r3, #44]	; 0x2c
    4600:	e2800002 	add	r0, r0, #2
    4604:	e2888002 	add	r8, r8, #2
    4608:	e0420140 	sub	r0, r2, r0, asr #2
    460c:	e0448148 	sub	r8, r4, r8, asr #2
    4610:	e583c024 	str	ip, [r3, #36]	; 0x24
    4614:	e5830028 	str	r0, [r3, #40]	; 0x28
    4618:	e583802c 	str	r8, [r3, #44]	; 0x2c
    461c:	e2833020 	add	r3, r3, #32
    4620:	e1530005 	cmp	r3, r5
    4624:	1affffe0 	bne	45ac <opj_dwt_decode+0x15a0>
    4628:	e59d2058 	ldr	r2, [sp, #88]	; 0x58
    462c:	e1e01001 	mvn	r1, r1
    4630:	e59d3048 	ldr	r3, [sp, #72]	; 0x48
    4634:	e0812002 	add	r2, r1, r2
    4638:	e0822003 	add	r2, r2, r3
    463c:	e15e0002 	cmp	lr, r2
    4640:	da0000a0 	ble	48c8 <opj_dwt_decode+0x18bc>
    4644:	e3520000 	cmp	r2, #0
    4648:	ca00038a 	bgt	5478 <opj_dwt_decode+0x246c>
    464c:	e24e4001 	sub	r4, lr, #1
    4650:	e08b3282 	add	r3, fp, r2, lsl #5
    4654:	e58de048 	str	lr, [sp, #72]	; 0x48
    4658:	e0044fc4 	and	r4, r4, r4, asr #31
    465c:	e283300c 	add	r3, r3, #12
    4660:	e59de0c8 	ldr	lr, [sp, #200]	; 0xc8
    4664:	ea00002c 	b	471c <opj_dwt_decode+0x1710>
    4668:	e3570000 	cmp	r7, #0
    466c:	e5135008 	ldr	r5, [r3, #-8]
    4670:	d59ec000 	ldrle	ip, [lr]
    4674:	c593c004 	ldrgt	ip, [r3, #4]
    4678:	e3570000 	cmp	r7, #0
    467c:	e081c00c 	add	ip, r1, ip
    4680:	e28cc002 	add	ip, ip, #2
    4684:	e040c14c 	sub	ip, r0, ip, asr #2
    4688:	e503c00c 	str	ip, [r3, #-12]
    468c:	e59b8014 	ldr	r8, [fp, #20]
    4690:	e243c004 	sub	ip, r3, #4
    4694:	c5930008 	ldrgt	r0, [r3, #8]
    4698:	da000370 	ble	5460 <opj_dwt_decode+0x2454>
    469c:	e0880000 	add	r0, r8, r0
    46a0:	e2800002 	add	r0, r0, #2
    46a4:	e3520000 	cmp	r2, #0
    46a8:	e0450140 	sub	r0, r5, r0, asr #2
    46ac:	e5030008 	str	r0, [r3, #-8]
    46b0:	e5131004 	ldr	r1, [r3, #-4]
    46b4:	e59b0018 	ldr	r0, [fp, #24]
    46b8:	1a00002a 	bne	4768 <opj_dwt_decode+0x175c>
    46bc:	e3570000 	cmp	r7, #0
    46c0:	d59d50c0 	ldrle	r5, [sp, #192]	; 0xc0
    46c4:	c593500c 	ldrgt	r5, [r3, #12]
    46c8:	d5955000 	ldrle	r5, [r5]
    46cc:	e0800005 	add	r0, r0, r5
    46d0:	e2800002 	add	r0, r0, #2
    46d4:	e0410140 	sub	r0, r1, r0, asr #2
    46d8:	e58c0000 	str	r0, [ip]
    46dc:	e5930000 	ldr	r0, [r3]
    46e0:	e59b101c 	ldr	r1, [fp, #28]
    46e4:	e3520000 	cmp	r2, #0
    46e8:	11a0c001 	movne	ip, r1
    46ec:	1a000003 	bne	4700 <opj_dwt_decode+0x16f4>
    46f0:	e3570000 	cmp	r7, #0
    46f4:	d59dc080 	ldrle	ip, [sp, #128]	; 0x80
    46f8:	c593c010 	ldrgt	ip, [r3, #16]
    46fc:	d59cc000 	ldrle	ip, [ip]
    4700:	e081100c 	add	r1, r1, ip
    4704:	e2811002 	add	r1, r1, #2
    4708:	e2822001 	add	r2, r2, #1
    470c:	e0401141 	sub	r1, r0, r1, asr #2
    4710:	e1520004 	cmp	r2, r4
    4714:	e4831020 	str	r1, [r3], #32
    4718:	ca000353 	bgt	546c <opj_dwt_decode+0x2460>
    471c:	e3520000 	cmp	r2, #0
    4720:	e513000c 	ldr	r0, [r3, #-12]
    4724:	e59b1010 	ldr	r1, [fp, #16]
    4728:	0affffce 	beq	4668 <opj_dwt_decode+0x165c>
    472c:	e2811001 	add	r1, r1, #1
    4730:	e5135008 	ldr	r5, [r3, #-8]
    4734:	e1a01081 	lsl	r1, r1, #1
    4738:	e3520000 	cmp	r2, #0
    473c:	e0401141 	sub	r1, r0, r1, asr #2
    4740:	e503100c 	str	r1, [r3, #-12]
    4744:	e59b1014 	ldr	r1, [fp, #20]
    4748:	e243c004 	sub	ip, r3, #4
    474c:	e1a01081 	lsl	r1, r1, #1
    4750:	e2811002 	add	r1, r1, #2
    4754:	e0455141 	sub	r5, r5, r1, asr #2
    4758:	e5035008 	str	r5, [r3, #-8]
    475c:	e5131004 	ldr	r1, [r3, #-4]
    4760:	e59b0018 	ldr	r0, [fp, #24]
    4764:	0affffd4 	beq	46bc <opj_dwt_decode+0x16b0>
    4768:	e1a00080 	lsl	r0, r0, #1
    476c:	e2800002 	add	r0, r0, #2
    4770:	e0410140 	sub	r0, r1, r0, asr #2
    4774:	e58c0000 	str	r0, [ip]
    4778:	e5930000 	ldr	r0, [r3]
    477c:	eaffffd7 	b	46e0 <opj_dwt_decode+0x16d4>
	...
    4788:	e59d3098 	ldr	r3, [sp, #152]	; 0x98
    478c:	e3530000 	cmp	r3, #0
    4790:	0a0000cc 	beq	4ac8 <opj_dwt_decode+0x1abc>
    4794:	e1cb00d4 	ldrd	r0, [fp, #4]
    4798:	e59b3000 	ldr	r3, [fp]
    479c:	e59b200c 	ldr	r2, [fp, #12]
    47a0:	e0800fa0 	add	r0, r0, r0, lsr #31
    47a4:	e0811fa1 	add	r1, r1, r1, lsr #31
    47a8:	e0833fa3 	add	r3, r3, r3, lsr #31
    47ac:	e0822fa2 	add	r2, r2, r2, lsr #31
    47b0:	e1a000c0 	asr	r0, r0, #1
    47b4:	e1a010c1 	asr	r1, r1, #1
    47b8:	e1a030c3 	asr	r3, r3, #1
    47bc:	e1a020c2 	asr	r2, r2, #1
    47c0:	e58b3000 	str	r3, [fp]
    47c4:	e1cb00f4 	strd	r0, [fp, #4]
    47c8:	e58b200c 	str	r2, [fp, #12]
    47cc:	e59d2068 	ldr	r2, [sp, #104]	; 0x68
    47d0:	e3a03004 	mov	r3, #4
    47d4:	e58d2004 	str	r2, [sp, #4]
    47d8:	e59d2064 	ldr	r2, [sp, #100]	; 0x64
    47dc:	e58d300c 	str	r3, [sp, #12]
    47e0:	e58d2000 	str	r2, [sp]
    47e4:	e58da010 	str	sl, [sp, #16]
    47e8:	e58da008 	str	sl, [sp, #8]
    47ec:	e1a01006 	mov	r1, r6
    47f0:	e59d302c 	ldr	r3, [sp, #44]	; 0x2c
    47f4:	e59d2060 	ldr	r2, [sp, #96]	; 0x60
    47f8:	e59d0024 	ldr	r0, [sp, #36]	; 0x24
    47fc:	ebfffffe 	bl	0 <opj_sparse_array_int32_write>
    4800:	e3500000 	cmp	r0, #0
    4804:	0afffde3 	beq	3f98 <opj_dwt_decode+0xf8c>
    4808:	e59d602c 	ldr	r6, [sp, #44]	; 0x2c
    480c:	e59d3028 	ldr	r3, [sp, #40]	; 0x28
    4810:	e1530006 	cmp	r3, r6
    4814:	8afffee2 	bhi	43a4 <opj_dwt_decode+0x1398>
    4818:	e59d30c4 	ldr	r3, [sp, #196]	; 0xc4
    481c:	e59d2044 	ldr	r2, [sp, #68]	; 0x44
    4820:	e2833001 	add	r3, r3, #1
    4824:	e58d30c4 	str	r3, [sp, #196]	; 0xc4
    4828:	e1520003 	cmp	r2, r3
    482c:	e59d3090 	ldr	r3, [sp, #144]	; 0x90
    4830:	e59da074 	ldr	sl, [sp, #116]	; 0x74
    4834:	e2833098 	add	r3, r3, #152	; 0x98
    4838:	e58d3090 	str	r3, [sp, #144]	; 0x90
    483c:	e59d9050 	ldr	r9, [sp, #80]	; 0x50
    4840:	1afffa6f 	bne	3204 <opj_dwt_decode+0x1f8>
    4844:	e59d7114 	ldr	r7, [sp, #276]	; 0x114
    4848:	e1a0000b 	mov	r0, fp
    484c:	ebfffffe 	bl	0 <opj_aligned_free>
    4850:	e59d50a0 	ldr	r5, [sp, #160]	; 0xa0
    4854:	e59d104c 	ldr	r1, [sp, #76]	; 0x4c
    4858:	e3a0b001 	mov	fp, #1
    485c:	e595c088 	ldr	ip, [r5, #136]	; 0x88
    4860:	e5953090 	ldr	r3, [r5, #144]	; 0x90
    4864:	e5914034 	ldr	r4, [r1, #52]	; 0x34
    4868:	e59d10a4 	ldr	r1, [sp, #164]	; 0xa4
    486c:	e043000c 	sub	r0, r3, ip
    4870:	e595e004 	ldr	lr, [r5, #4]
    4874:	e7971001 	ldr	r1, [r7, r1]
    4878:	e595208c 	ldr	r2, [r5, #140]	; 0x8c
    487c:	e58d4004 	str	r4, [sp, #4]
    4880:	e58d000c 	str	r0, [sp, #12]
    4884:	e58db010 	str	fp, [sp, #16]
    4888:	e58db008 	str	fp, [sp, #8]
    488c:	e5950094 	ldr	r0, [r5, #148]	; 0x94
    4890:	e0433001 	sub	r3, r3, r1
    4894:	e040000e 	sub	r0, r0, lr
    4898:	e58d0000 	str	r0, [sp]
    489c:	e042200e 	sub	r2, r2, lr
    48a0:	e04c1001 	sub	r1, ip, r1
    48a4:	e59d0024 	ldr	r0, [sp, #36]	; 0x24
    48a8:	ebfffffe 	bl	0 <opj_sparse_array_int32_read>
    48ac:	e3500000 	cmp	r0, #0
    48b0:	0a000441 	beq	59bc <opj_dwt_decode+0x29b0>
    48b4:	e59d0024 	ldr	r0, [sp, #36]	; 0x24
    48b8:	ebfffffe 	bl	0 <opj_sparse_array_int32_free>
    48bc:	e58db034 	str	fp, [sp, #52]	; 0x34
    48c0:	eafffacd 	b	33fc <opj_dwt_decode+0x3f0>
    48c4:	e59d6048 	ldr	r6, [sp, #72]	; 0x48
    48c8:	e59d3038 	ldr	r3, [sp, #56]	; 0x38
    48cc:	e59d2030 	ldr	r2, [sp, #48]	; 0x30
    48d0:	e1530002 	cmp	r3, r2
    48d4:	aaffffbc 	bge	47cc <opj_dwt_decode+0x17c0>
    48d8:	e1590002 	cmp	r9, r2
    48dc:	ca000006 	bgt	48fc <opj_dwt_decode+0x18f0>
    48e0:	e59d3038 	ldr	r3, [sp, #56]	; 0x38
    48e4:	e59d20e0 	ldr	r2, [sp, #224]	; 0xe0
    48e8:	e1530002 	cmp	r3, r2
    48ec:	aa000024 	bge	4984 <opj_dwt_decode+0x1978>
    48f0:	e59d2110 	ldr	r2, [sp, #272]	; 0x110
    48f4:	e59d40ec 	ldr	r4, [sp, #236]	; 0xec
    48f8:	ea000002 	b	4908 <opj_dwt_decode+0x18fc>
    48fc:	e59d2110 	ldr	r2, [sp, #272]	; 0x110
    4900:	e59d3038 	ldr	r3, [sp, #56]	; 0x38
    4904:	e59d40ec 	ldr	r4, [sp, #236]	; 0xec
    4908:	e592c000 	ldr	ip, [r2]
    490c:	e5921020 	ldr	r1, [r2, #32]
    4910:	e5925004 	ldr	r5, [r2, #4]
    4914:	e08c0001 	add	r0, ip, r1
    4918:	e5921024 	ldr	r1, [r2, #36]	; 0x24
    491c:	e5928010 	ldr	r8, [r2, #16]
    4920:	e592c008 	ldr	ip, [r2, #8]
    4924:	e0855001 	add	r5, r5, r1
    4928:	e5921028 	ldr	r1, [r2, #40]	; 0x28
    492c:	e2833001 	add	r3, r3, #1
    4930:	e08ce001 	add	lr, ip, r1
    4934:	e088c0c0 	add	ip, r8, r0, asr #1
    4938:	e592100c 	ldr	r1, [r2, #12]
    493c:	e592002c 	ldr	r0, [r2, #44]	; 0x2c
    4940:	e582c010 	str	ip, [r2, #16]
    4944:	e592c014 	ldr	ip, [r2, #20]
    4948:	e0810000 	add	r0, r1, r0
    494c:	e08c10c5 	add	r1, ip, r5, asr #1
    4950:	e5821014 	str	r1, [r2, #20]
    4954:	e592c018 	ldr	ip, [r2, #24]
    4958:	e592101c 	ldr	r1, [r2, #28]
    495c:	e08cc0ce 	add	ip, ip, lr, asr #1
    4960:	e08110c0 	add	r1, r1, r0, asr #1
    4964:	e1540003 	cmp	r4, r3
    4968:	e582c018 	str	ip, [r2, #24]
    496c:	e582101c 	str	r1, [r2, #28]
    4970:	e2822020 	add	r2, r2, #32
    4974:	caffffe3 	bgt	4908 <opj_dwt_decode+0x18fc>
    4978:	e59d2030 	ldr	r2, [sp, #48]	; 0x30
    497c:	e1520003 	cmp	r2, r3
    4980:	daffff91 	ble	47cc <opj_dwt_decode+0x17c0>
    4984:	e3530000 	cmp	r3, #0
    4988:	aa0001da 	bge	50f8 <opj_dwt_decode+0x20ec>
    498c:	e59d2030 	ldr	r2, [sp, #48]	; 0x30
    4990:	e58d6058 	str	r6, [sp, #88]	; 0x58
    4994:	e1a01003 	mov	r1, r3
    4998:	e002cfc2 	and	ip, r2, r2, asr #31
    499c:	e58d7048 	str	r7, [sp, #72]	; 0x48
    49a0:	e08b2283 	add	r2, fp, r3, lsl #5
    49a4:	e59de0d0 	ldr	lr, [sp, #208]	; 0xd0
    49a8:	e59d40d4 	ldr	r4, [sp, #212]	; 0xd4
    49ac:	e59d60cc 	ldr	r6, [sp, #204]	; 0xcc
    49b0:	ea00002e 	b	4a70 <opj_dwt_decode+0x1a64>
    49b4:	e1590003 	cmp	r9, r3
    49b8:	d59d70b4 	ldrle	r7, [sp, #180]	; 0xb4
    49bc:	c5928020 	ldrgt	r8, [r2, #32]
    49c0:	d5978000 	ldrle	r8, [r7]
    49c4:	e3710001 	cmn	r1, #1
    49c8:	e0880000 	add	r0, r8, r0
    49cc:	e5928014 	ldr	r8, [r2, #20]
    49d0:	e08500c0 	add	r0, r5, r0, asr #1
    49d4:	e5820010 	str	r0, [r2, #16]
    49d8:	0a0003d3 	beq	592c <opj_dwt_decode+0x2920>
    49dc:	e1590001 	cmp	r9, r1
    49e0:	c5925004 	ldrgt	r5, [r2, #4]
    49e4:	d5965000 	ldrle	r5, [r6]
    49e8:	e1590003 	cmp	r9, r3
    49ec:	d5960000 	ldrle	r0, [r6]
    49f0:	c5920024 	ldrgt	r0, [r2, #36]	; 0x24
    49f4:	e3710001 	cmn	r1, #1
    49f8:	e0800005 	add	r0, r0, r5
    49fc:	e08800c0 	add	r0, r8, r0, asr #1
    4a00:	e5820014 	str	r0, [r2, #20]
    4a04:	e5928018 	ldr	r8, [r2, #24]
    4a08:	0a0003e9 	beq	59b4 <opj_dwt_decode+0x29a8>
    4a0c:	e1590001 	cmp	r9, r1
    4a10:	c5925008 	ldrgt	r5, [r2, #8]
    4a14:	d59e5000 	ldrle	r5, [lr]
    4a18:	e1590003 	cmp	r9, r3
    4a1c:	d59e0000 	ldrle	r0, [lr]
    4a20:	c5920028 	ldrgt	r0, [r2, #40]	; 0x28
    4a24:	e3710001 	cmn	r1, #1
    4a28:	e0800005 	add	r0, r0, r5
    4a2c:	e08800c0 	add	r0, r8, r0, asr #1
    4a30:	e5820018 	str	r0, [r2, #24]
    4a34:	e592801c 	ldr	r8, [r2, #28]
    4a38:	0a0003db 	beq	59ac <opj_dwt_decode+0x29a0>
    4a3c:	e1590001 	cmp	r9, r1
    4a40:	c592500c 	ldrgt	r5, [r2, #12]
    4a44:	d5945000 	ldrle	r5, [r4]
    4a48:	e1590003 	cmp	r9, r3
    4a4c:	c592002c 	ldrgt	r0, [r2, #44]	; 0x2c
    4a50:	d5940000 	ldrle	r0, [r4]
    4a54:	e0800005 	add	r0, r0, r5
    4a58:	e153000c 	cmp	r3, ip
    4a5c:	e08800c0 	add	r0, r8, r0, asr #1
    4a60:	e582001c 	str	r0, [r2, #28]
    4a64:	e2811001 	add	r1, r1, #1
    4a68:	e2822020 	add	r2, r2, #32
    4a6c:	aa00019c 	bge	50e4 <opj_dwt_decode+0x20d8>
    4a70:	e3710001 	cmn	r1, #1
    4a74:	e2833001 	add	r3, r3, #1
    4a78:	e5925010 	ldr	r5, [r2, #16]
    4a7c:	e59b0000 	ldr	r0, [fp]
    4a80:	aaffffcb 	bge	49b4 <opj_dwt_decode+0x19a8>
    4a84:	e1a00080 	lsl	r0, r0, #1
    4a88:	e5927014 	ldr	r7, [r2, #20]
    4a8c:	e08500c0 	add	r0, r5, r0, asr #1
    4a90:	e5820010 	str	r0, [r2, #16]
    4a94:	e59b0004 	ldr	r0, [fp, #4]
    4a98:	e5925018 	ldr	r5, [r2, #24]
    4a9c:	e592801c 	ldr	r8, [r2, #28]
    4aa0:	e1a00080 	lsl	r0, r0, #1
    4aa4:	e08700c0 	add	r0, r7, r0, asr #1
    4aa8:	e5820014 	str	r0, [r2, #20]
    4aac:	e59b0008 	ldr	r0, [fp, #8]
    4ab0:	e1a00080 	lsl	r0, r0, #1
    4ab4:	e08500c0 	add	r0, r5, r0, asr #1
    4ab8:	e5820018 	str	r0, [r2, #24]
    4abc:	e59b500c 	ldr	r5, [fp, #12]
    4ac0:	e1a00005 	mov	r0, r5
    4ac4:	eaffffe2 	b	4a54 <opj_dwt_decode+0x1a48>
    4ac8:	e151000e 	cmp	r1, lr
    4acc:	aa000057 	bge	4c30 <opj_dwt_decode+0x1c24>
    4ad0:	e3510000 	cmp	r1, #0
    4ad4:	aa000129 	bge	4f80 <opj_dwt_decode+0x1f74>
    4ad8:	e00ecfce 	and	ip, lr, lr, asr #31
    4adc:	e58de048 	str	lr, [sp, #72]	; 0x48
    4ae0:	e58d6058 	str	r6, [sp, #88]	; 0x58
    4ae4:	e08b3281 	add	r3, fp, r1, lsl #5
    4ae8:	e59de0a8 	ldr	lr, [sp, #168]	; 0xa8
    4aec:	e59d60ac 	ldr	r6, [sp, #172]	; 0xac
    4af0:	e59d40b0 	ldr	r4, [sp, #176]	; 0xb0
    4af4:	ea000032 	b	4bc4 <opj_dwt_decode+0x1bb8>
    4af8:	e1570002 	cmp	r7, r2
    4afc:	d59d807c 	ldrle	r8, [sp, #124]	; 0x7c
    4b00:	c5938020 	ldrgt	r8, [r3, #32]
    4b04:	d5988000 	ldrle	r8, [r8]
    4b08:	e3710001 	cmn	r1, #1
    4b0c:	e0800008 	add	r0, r0, r8
    4b10:	e2800002 	add	r0, r0, #2
    4b14:	e5938014 	ldr	r8, [r3, #20]
    4b18:	e0450140 	sub	r0, r5, r0, asr #2
    4b1c:	e5830010 	str	r0, [r3, #16]
    4b20:	0a00039f 	beq	59a4 <opj_dwt_decode+0x2998>
    4b24:	e1570001 	cmp	r7, r1
    4b28:	c5935004 	ldrgt	r5, [r3, #4]
    4b2c:	d59e5000 	ldrle	r5, [lr]
    4b30:	e1570002 	cmp	r7, r2
    4b34:	d59e0000 	ldrle	r0, [lr]
    4b38:	c5930024 	ldrgt	r0, [r3, #36]	; 0x24
    4b3c:	e3710001 	cmn	r1, #1
    4b40:	e0800005 	add	r0, r0, r5
    4b44:	e2800002 	add	r0, r0, #2
    4b48:	e0480140 	sub	r0, r8, r0, asr #2
    4b4c:	e5830014 	str	r0, [r3, #20]
    4b50:	e5938018 	ldr	r8, [r3, #24]
    4b54:	0a000390 	beq	599c <opj_dwt_decode+0x2990>
    4b58:	e1570001 	cmp	r7, r1
    4b5c:	c5935008 	ldrgt	r5, [r3, #8]
    4b60:	d5965000 	ldrle	r5, [r6]
    4b64:	e1570002 	cmp	r7, r2
    4b68:	d5960000 	ldrle	r0, [r6]
    4b6c:	c5930028 	ldrgt	r0, [r3, #40]	; 0x28
    4b70:	e3710001 	cmn	r1, #1
    4b74:	e0800005 	add	r0, r0, r5
    4b78:	e2800002 	add	r0, r0, #2
    4b7c:	e0480140 	sub	r0, r8, r0, asr #2
    4b80:	e5830018 	str	r0, [r3, #24]
    4b84:	e593801c 	ldr	r8, [r3, #28]
    4b88:	0a000381 	beq	5994 <opj_dwt_decode+0x2988>
    4b8c:	e1570001 	cmp	r7, r1
    4b90:	c593500c 	ldrgt	r5, [r3, #12]
    4b94:	d5945000 	ldrle	r5, [r4]
    4b98:	e1570002 	cmp	r7, r2
    4b9c:	c593002c 	ldrgt	r0, [r3, #44]	; 0x2c
    4ba0:	d5940000 	ldrle	r0, [r4]
    4ba4:	e0800005 	add	r0, r0, r5
    4ba8:	e2800002 	add	r0, r0, #2
    4bac:	e15c0002 	cmp	ip, r2
    4bb0:	e0480140 	sub	r0, r8, r0, asr #2
    4bb4:	e583001c 	str	r0, [r3, #28]
    4bb8:	e2811001 	add	r1, r1, #1
    4bbc:	e2833020 	add	r3, r3, #32
    4bc0:	da0000ea 	ble	4f70 <opj_dwt_decode+0x1f64>
    4bc4:	e3710001 	cmn	r1, #1
    4bc8:	e2822001 	add	r2, r2, #1
    4bcc:	e5935010 	ldr	r5, [r3, #16]
    4bd0:	e59b0000 	ldr	r0, [fp]
    4bd4:	aaffffc7 	bge	4af8 <opj_dwt_decode+0x1aec>
    4bd8:	e2800001 	add	r0, r0, #1
    4bdc:	e593801c 	ldr	r8, [r3, #28]
    4be0:	e1a00080 	lsl	r0, r0, #1
    4be4:	e0450140 	sub	r0, r5, r0, asr #2
    4be8:	e5830010 	str	r0, [r3, #16]
    4bec:	e59b0004 	ldr	r0, [fp, #4]
    4bf0:	e5935014 	ldr	r5, [r3, #20]
    4bf4:	e1a00080 	lsl	r0, r0, #1
    4bf8:	e2800002 	add	r0, r0, #2
    4bfc:	e0450140 	sub	r0, r5, r0, asr #2
    4c00:	e5830014 	str	r0, [r3, #20]
    4c04:	e59b0008 	ldr	r0, [fp, #8]
    4c08:	e5935018 	ldr	r5, [r3, #24]
    4c0c:	e1a00080 	lsl	r0, r0, #1
    4c10:	e2800002 	add	r0, r0, #2
    4c14:	e0450140 	sub	r0, r5, r0, asr #2
    4c18:	e5830018 	str	r0, [r3, #24]
    4c1c:	e59b500c 	ldr	r5, [fp, #12]
    4c20:	e1a00005 	mov	r0, r5
    4c24:	eaffffde 	b	4ba4 <opj_dwt_decode+0x1b98>
    4c28:	e59d9058 	ldr	r9, [sp, #88]	; 0x58
    4c2c:	e59d60b8 	ldr	r6, [sp, #184]	; 0xb8
    4c30:	e59d3038 	ldr	r3, [sp, #56]	; 0x38
    4c34:	e59d2030 	ldr	r2, [sp, #48]	; 0x30
    4c38:	e1530002 	cmp	r3, r2
    4c3c:	aafffee2 	bge	47cc <opj_dwt_decode+0x17c0>
    4c40:	e3530000 	cmp	r3, #0
    4c44:	aa000058 	bge	4dac <opj_dwt_decode+0x1da0>
    4c48:	e0025fc2 	and	r5, r2, r2, asr #31
    4c4c:	e59d20dc 	ldr	r2, [sp, #220]	; 0xdc
    4c50:	ea000021 	b	4cdc <opj_dwt_decode+0x1cd0>
    4c54:	e1590003 	cmp	r9, r3
    4c58:	da000034 	ble	4d30 <opj_dwt_decode+0x1d24>
    4c5c:	e3530000 	cmp	r3, #0
    4c60:	e5921008 	ldr	r1, [r2, #8]
    4c64:	0a000343 	beq	5978 <opj_dwt_decode+0x296c>
    4c68:	e242e004 	sub	lr, r2, #4
    4c6c:	e512c018 	ldr	ip, [r2, #-24]	; 0xffffffe8
    4c70:	e5120004 	ldr	r0, [r2, #-4]
    4c74:	e081c00c 	add	ip, r1, ip
    4c78:	e1a0800e 	mov	r8, lr
    4c7c:	e084c0cc 	add	ip, r4, ip, asr #1
    4c80:	e502c008 	str	ip, [r2, #-8]
    4c84:	e1590003 	cmp	r9, r3
    4c88:	da000034 	ble	4d60 <opj_dwt_decode+0x1d54>
    4c8c:	e3530000 	cmp	r3, #0
    4c90:	e592100c 	ldr	r1, [r2, #12]
    4c94:	0a000331 	beq	5960 <opj_dwt_decode+0x2954>
    4c98:	e512c014 	ldr	ip, [r2, #-20]	; 0xffffffec
    4c9c:	e081100c 	add	r1, r1, ip
    4ca0:	e08000c1 	add	r0, r0, r1, asr #1
    4ca4:	e5880000 	str	r0, [r8]
    4ca8:	e5920000 	ldr	r0, [r2]
    4cac:	e1590003 	cmp	r9, r3
    4cb0:	da0000a6 	ble	4f50 <opj_dwt_decode+0x1f44>
    4cb4:	e3530000 	cmp	r3, #0
    4cb8:	e5921010 	ldr	r1, [r2, #16]
    4cbc:	0a000321 	beq	5948 <opj_dwt_decode+0x293c>
    4cc0:	e512c010 	ldr	ip, [r2, #-16]
    4cc4:	e081100c 	add	r1, r1, ip
    4cc8:	e2833001 	add	r3, r3, #1
    4ccc:	e08010c1 	add	r1, r0, r1, asr #1
    4cd0:	e1530005 	cmp	r3, r5
    4cd4:	e4821020 	str	r1, [r2], #32
    4cd8:	aa000030 	bge	4da0 <opj_dwt_decode+0x1d94>
    4cdc:	e59b1010 	ldr	r1, [fp, #16]
    4ce0:	e512000c 	ldr	r0, [r2, #-12]
    4ce4:	e3530000 	cmp	r3, #0
    4ce8:	e1a01081 	lsl	r1, r1, #1
    4cec:	e5124008 	ldr	r4, [r2, #-8]
    4cf0:	e08000c1 	add	r0, r0, r1, asr #1
    4cf4:	e502000c 	str	r0, [r2, #-12]
    4cf8:	aaffffd5 	bge	4c54 <opj_dwt_decode+0x1c48>
    4cfc:	e59bc014 	ldr	ip, [fp, #20]
    4d00:	e5121004 	ldr	r1, [r2, #-4]
    4d04:	e5920000 	ldr	r0, [r2]
    4d08:	e1a0c08c 	lsl	ip, ip, #1
    4d0c:	e084c0cc 	add	ip, r4, ip, asr #1
    4d10:	e502c008 	str	ip, [r2, #-8]
    4d14:	e59bc018 	ldr	ip, [fp, #24]
    4d18:	e1a0c08c 	lsl	ip, ip, #1
    4d1c:	e08110cc 	add	r1, r1, ip, asr #1
    4d20:	e5021004 	str	r1, [r2, #-4]
    4d24:	e59b101c 	ldr	r1, [fp, #28]
    4d28:	e1a0c001 	mov	ip, r1
    4d2c:	eaffffe4 	b	4cc4 <opj_dwt_decode+0x1cb8>
    4d30:	e59d1078 	ldr	r1, [sp, #120]	; 0x78
    4d34:	e242e004 	sub	lr, r2, #4
    4d38:	e3530000 	cmp	r3, #0
    4d3c:	e1a0800e 	mov	r8, lr
    4d40:	e5911000 	ldr	r1, [r1]
    4d44:	0a000342 	beq	5a54 <opj_dwt_decode+0x2a48>
    4d48:	e1590003 	cmp	r9, r3
    4d4c:	aaffffc6 	bge	4c6c <opj_dwt_decode+0x1c60>
    4d50:	e1a0c081 	lsl	ip, r1, #1
    4d54:	e5120004 	ldr	r0, [r2, #-4]
    4d58:	e084c0cc 	add	ip, r4, ip, asr #1
    4d5c:	e502c008 	str	ip, [r2, #-8]
    4d60:	e59d105c 	ldr	r1, [sp, #92]	; 0x5c
    4d64:	e3530000 	cmp	r3, #0
    4d68:	e5911000 	ldr	r1, [r1]
    4d6c:	0a00034f 	beq	5ab0 <opj_dwt_decode+0x2aa4>
    4d70:	e1590003 	cmp	r9, r3
    4d74:	aaffffc7 	bge	4c98 <opj_dwt_decode+0x1c8c>
    4d78:	e1a01081 	lsl	r1, r1, #1
    4d7c:	e08000c1 	add	r0, r0, r1, asr #1
    4d80:	e59d1054 	ldr	r1, [sp, #84]	; 0x54
    4d84:	e58e0000 	str	r0, [lr]
    4d88:	e5920000 	ldr	r0, [r2]
    4d8c:	e5911000 	ldr	r1, [r1]
    4d90:	e1a01081 	lsl	r1, r1, #1
    4d94:	e2833001 	add	r3, r3, #1
    4d98:	e08010c1 	add	r1, r0, r1, asr #1
    4d9c:	e5821000 	str	r1, [r2]
    4da0:	e59d2030 	ldr	r2, [sp, #48]	; 0x30
    4da4:	e1520003 	cmp	r2, r3
    4da8:	dafffe87 	ble	47cc <opj_dwt_decode+0x17c0>
    4dac:	e08b2283 	add	r2, fp, r3, lsl #5
    4db0:	e282200c 	add	r2, r2, #12
    4db4:	e59d4030 	ldr	r4, [sp, #48]	; 0x30
    4db8:	e59d80d8 	ldr	r8, [sp, #216]	; 0xd8
    4dbc:	e59d5078 	ldr	r5, [sp, #120]	; 0x78
    4dc0:	ea00002b 	b	4e74 <opj_dwt_decode+0x1e68>
    4dc4:	e3530000 	cmp	r3, #0
    4dc8:	e5921004 	ldr	r1, [r2, #4]
    4dcc:	da000335 	ble	5aa8 <opj_dwt_decode+0x2a9c>
    4dd0:	e512c01c 	ldr	ip, [r2, #-28]	; 0xffffffe4
    4dd4:	e081100c 	add	r1, r1, ip
    4dd8:	e3530000 	cmp	r3, #0
    4ddc:	e08010c1 	add	r1, r0, r1, asr #1
    4de0:	e502100c 	str	r1, [r2, #-12]
    4de4:	e512e008 	ldr	lr, [r2, #-8]
    4de8:	ba00003d 	blt	4ee4 <opj_dwt_decode+0x1ed8>
    4dec:	e1590003 	cmp	r9, r3
    4df0:	da0002f8 	ble	59d8 <opj_dwt_decode+0x29cc>
    4df4:	e3530000 	cmp	r3, #0
    4df8:	e5920008 	ldr	r0, [r2, #8]
    4dfc:	0a000322 	beq	5a8c <opj_dwt_decode+0x2a80>
    4e00:	e242c004 	sub	ip, r2, #4
    4e04:	e5121018 	ldr	r1, [r2, #-24]	; 0xffffffe8
    4e08:	e0800001 	add	r0, r0, r1
    4e0c:	e1590003 	cmp	r9, r3
    4e10:	e08e00c0 	add	r0, lr, r0, asr #1
    4e14:	e5020008 	str	r0, [r2, #-8]
    4e18:	e1a0100c 	mov	r1, ip
    4e1c:	e5120004 	ldr	r0, [r2, #-4]
    4e20:	da000043 	ble	4f34 <opj_dwt_decode+0x1f28>
    4e24:	e3530000 	cmp	r3, #0
    4e28:	e592e00c 	ldr	lr, [r2, #12]
    4e2c:	0a000310 	beq	5a74 <opj_dwt_decode+0x2a68>
    4e30:	e512c014 	ldr	ip, [r2, #-20]	; 0xffffffec
    4e34:	e08ee00c 	add	lr, lr, ip
    4e38:	e080e0ce 	add	lr, r0, lr, asr #1
    4e3c:	e581e000 	str	lr, [r1]
    4e40:	e592c000 	ldr	ip, [r2]
    4e44:	e1590003 	cmp	r9, r3
    4e48:	da000031 	ble	4f14 <opj_dwt_decode+0x1f08>
    4e4c:	e3530000 	cmp	r3, #0
    4e50:	e5921010 	ldr	r1, [r2, #16]
    4e54:	0a000304 	beq	5a6c <opj_dwt_decode+0x2a60>
    4e58:	e5120010 	ldr	r0, [r2, #-16]
    4e5c:	e0811000 	add	r1, r1, r0
    4e60:	e2833001 	add	r3, r3, #1
    4e64:	e08cc0c1 	add	ip, ip, r1, asr #1
    4e68:	e1540003 	cmp	r4, r3
    4e6c:	e482c020 	str	ip, [r2], #32
    4e70:	dafffe55 	ble	47cc <opj_dwt_decode+0x17c0>
    4e74:	e1590003 	cmp	r9, r3
    4e78:	e512000c 	ldr	r0, [r2, #-12]
    4e7c:	caffffd0 	bgt	4dc4 <opj_dwt_decode+0x1db8>
    4e80:	e3530000 	cmp	r3, #0
    4e84:	e5981000 	ldr	r1, [r8]
    4e88:	da000306 	ble	5aa8 <opj_dwt_decode+0x2a9c>
    4e8c:	e1590003 	cmp	r9, r3
    4e90:	aaffffce 	bge	4dd0 <opj_dwt_decode+0x1dc4>
    4e94:	e1a01081 	lsl	r1, r1, #1
    4e98:	e512c008 	ldr	ip, [r2, #-8]
    4e9c:	e08010c1 	add	r1, r0, r1, asr #1
    4ea0:	e502100c 	str	r1, [r2, #-12]
    4ea4:	e5950000 	ldr	r0, [r5]
    4ea8:	e2421004 	sub	r1, r2, #4
    4eac:	e1a00080 	lsl	r0, r0, #1
    4eb0:	e08cc0c0 	add	ip, ip, r0, asr #1
    4eb4:	e5120004 	ldr	r0, [r2, #-4]
    4eb8:	e502c008 	str	ip, [r2, #-8]
    4ebc:	e59dc05c 	ldr	ip, [sp, #92]	; 0x5c
    4ec0:	e59ce000 	ldr	lr, [ip]
    4ec4:	e1a0e08e 	lsl	lr, lr, #1
    4ec8:	e080e0ce 	add	lr, r0, lr, asr #1
    4ecc:	e581e000 	str	lr, [r1]
    4ed0:	e59d1054 	ldr	r1, [sp, #84]	; 0x54
    4ed4:	e592c000 	ldr	ip, [r2]
    4ed8:	e5910000 	ldr	r0, [r1]
    4edc:	e1a01000 	mov	r1, r0
    4ee0:	eaffffdd 	b	4e5c <opj_dwt_decode+0x1e50>
    4ee4:	e59b1014 	ldr	r1, [fp, #20]
    4ee8:	e8121001 	ldmda	r2, {r0, ip}
    4eec:	e1a01081 	lsl	r1, r1, #1
    4ef0:	e08e10c1 	add	r1, lr, r1, asr #1
    4ef4:	e5021008 	str	r1, [r2, #-8]
    4ef8:	e59b1018 	ldr	r1, [fp, #24]
    4efc:	e1a01081 	lsl	r1, r1, #1
    4f00:	e08000c1 	add	r0, r0, r1, asr #1
    4f04:	e5020004 	str	r0, [r2, #-4]
    4f08:	e59b101c 	ldr	r1, [fp, #28]
    4f0c:	e1a00001 	mov	r0, r1
    4f10:	eaffffd1 	b	4e5c <opj_dwt_decode+0x1e50>
    4f14:	e59d1054 	ldr	r1, [sp, #84]	; 0x54
    4f18:	e3530000 	cmp	r3, #0
    4f1c:	e5910000 	ldr	r0, [r1]
    4f20:	e1a01000 	mov	r1, r0
    4f24:	0a0002d0 	beq	5a6c <opj_dwt_decode+0x2a60>
    4f28:	e1590003 	cmp	r9, r3
    4f2c:	baffffca 	blt	4e5c <opj_dwt_decode+0x1e50>
    4f30:	eaffffc8 	b	4e58 <opj_dwt_decode+0x1e4c>
    4f34:	e59de05c 	ldr	lr, [sp, #92]	; 0x5c
    4f38:	e3530000 	cmp	r3, #0
    4f3c:	e59ee000 	ldr	lr, [lr]
    4f40:	0a0002bd 	beq	5a3c <opj_dwt_decode+0x2a30>
    4f44:	e1590003 	cmp	r9, r3
    4f48:	baffffdd 	blt	4ec4 <opj_dwt_decode+0x1eb8>
    4f4c:	eaffffb7 	b	4e30 <opj_dwt_decode+0x1e24>
    4f50:	e59d1054 	ldr	r1, [sp, #84]	; 0x54
    4f54:	e3530000 	cmp	r3, #0
    4f58:	e5911000 	ldr	r1, [r1]
    4f5c:	059bc01c 	ldreq	ip, [fp, #28]
    4f60:	0affff57 	beq	4cc4 <opj_dwt_decode+0x1cb8>
    4f64:	e1590003 	cmp	r9, r3
    4f68:	baffff88 	blt	4d90 <opj_dwt_decode+0x1d84>
    4f6c:	eaffff53 	b	4cc0 <opj_dwt_decode+0x1cb4>
    4f70:	e59de048 	ldr	lr, [sp, #72]	; 0x48
    4f74:	e59d6058 	ldr	r6, [sp, #88]	; 0x58
    4f78:	e15e0002 	cmp	lr, r2
    4f7c:	daffff2b 	ble	4c30 <opj_dwt_decode+0x1c24>
    4f80:	e58d9058 	str	r9, [sp, #88]	; 0x58
    4f84:	e58d60b8 	str	r6, [sp, #184]	; 0xb8
    4f88:	e1a01002 	mov	r1, r2
    4f8c:	e08b3282 	add	r3, fp, r2, lsl #5
    4f90:	e59d607c 	ldr	r6, [sp, #124]	; 0x7c
    4f94:	e59d90a8 	ldr	r9, [sp, #168]	; 0xa8
    4f98:	e59dc0ac 	ldr	ip, [sp, #172]	; 0xac
    4f9c:	e59d40b0 	ldr	r4, [sp, #176]	; 0xb0
    4fa0:	ea000031 	b	506c <opj_dwt_decode+0x2060>
    4fa4:	e1570002 	cmp	r7, r2
    4fa8:	d5960000 	ldrle	r0, [r6]
    4fac:	c5930020 	ldrgt	r0, [r3, #32]
    4fb0:	e3710001 	cmn	r1, #1
    4fb4:	e0800005 	add	r0, r0, r5
    4fb8:	e2800002 	add	r0, r0, #2
    4fbc:	e0480140 	sub	r0, r8, r0, asr #2
    4fc0:	e5830010 	str	r0, [r3, #16]
    4fc4:	e5938014 	ldr	r8, [r3, #20]
    4fc8:	0a000299 	beq	5a34 <opj_dwt_decode+0x2a28>
    4fcc:	e1570001 	cmp	r7, r1
    4fd0:	c5935004 	ldrgt	r5, [r3, #4]
    4fd4:	d5995000 	ldrle	r5, [r9]
    4fd8:	e1570002 	cmp	r7, r2
    4fdc:	d5990000 	ldrle	r0, [r9]
    4fe0:	c5930024 	ldrgt	r0, [r3, #36]	; 0x24
    4fe4:	e3710001 	cmn	r1, #1
    4fe8:	e0800005 	add	r0, r0, r5
    4fec:	e2800002 	add	r0, r0, #2
    4ff0:	e0480140 	sub	r0, r8, r0, asr #2
    4ff4:	e5830014 	str	r0, [r3, #20]
    4ff8:	e5938018 	ldr	r8, [r3, #24]
    4ffc:	0a00028a 	beq	5a2c <opj_dwt_decode+0x2a20>
    5000:	e1570001 	cmp	r7, r1
    5004:	c5935008 	ldrgt	r5, [r3, #8]
    5008:	d59c5000 	ldrle	r5, [ip]
    500c:	e1570002 	cmp	r7, r2
    5010:	d59c0000 	ldrle	r0, [ip]
    5014:	c5930028 	ldrgt	r0, [r3, #40]	; 0x28
    5018:	e3710001 	cmn	r1, #1
    501c:	e0800005 	add	r0, r0, r5
    5020:	e2800002 	add	r0, r0, #2
